---
triple:          'arm64-apple-darwin'
binary-path:     './main'
relocations:
  - { offsetInCU: 0x5C, offset: 0x5C, size: 0x8, addend: 0x0, symName: __ZNSt3__1L19piecewise_constructE, symObjAddr: 0x6A641, symBinAddr: 0x10006E469, symSize: 0x0 }
  - { offsetInCU: 0x8C, offset: 0x8C, size: 0x8, addend: 0x0, symName: __ZNSt3__17nulloptE, symObjAddr: 0x6ACC1, symBinAddr: 0x10006EAE9, symSize: 0x0 }
  - { offsetInCU: 0xDAAB, offset: 0xDAAB, size: 0x8, addend: 0x0, symName: __ZNSt3__17advanceB7v160006IP7RequestmmvEEvRT_T0_, symObjAddr: 0x3D04, symBinAddr: 0x100007804, symSize: 0x50 }
  - { offsetInCU: 0x14AA9, offset: 0x14AA9, size: 0x8, addend: 0x0, symName: __ZNSt3__17advanceB7v160006IP5RoutemmvEEvRT_T0_, symObjAddr: 0xB418, symBinAddr: 0x10000EF18, symSize: 0x50 }
  - { offsetInCU: 0x14B14, offset: 0x14B14, size: 0x8, addend: 0x0, symName: __ZNSt3__17advanceB7v160006IP4StopmmvEEvRT_T0_, symObjAddr: 0xBC28, symBinAddr: 0x10000F728, symSize: 0x50 }
  - { offsetInCU: 0x14B7F, offset: 0x14B7F, size: 0x8, addend: 0x0, symName: __ZNSt3__17advanceB7v160006IPcmmvEEvRT_T0_, symObjAddr: 0xC498, symBinAddr: 0x10000FF98, symSize: 0x50 }
  - { offsetInCU: 0x1AD96, offset: 0x1AD96, size: 0x8, addend: 0x0, symName: __ZNSt3__17advanceB7v160006INS_21__tree_const_iteratorINS_12__value_typeINS_12basic_stringIcNS_11char_traitsIcEENS_9allocatorIcEEEE9ParameterEEPNS_11__tree_nodeISA_PvEElEEllvEEvRT_T0_, symObjAddr: 0x16428, symBinAddr: 0x100019F28, symSize: 0x50 }
  - { offsetInCU: 0x1D548, offset: 0x1D548, size: 0x8, addend: 0x0, symName: __ZNSt3__111__introsortINS_17_ClassicAlgPolicyERZN11ShawRemoval16destroy_solutionER15PDPTWT_solutionRNS_23mersenne_twister_engineIjLm32ELm624ELm397ELm31ELj2567483615ELm11ELj4294967295ELm7ELj2636928640ELm15ELj4022730752ELm18ELj1812433253EEEEUlRT_RT0_E_PNS_4pairIPK7RequestdEEEEvT1_SK_SA_NS_15iterator_traitsISK_E15difference_typeE, symObjAddr: 0x1A914, symBinAddr: 0x10001E414, symSize: 0x6B8 }
  - { offsetInCU: 0x1D6A3, offset: 0x1D6A3, size: 0x8, addend: 0x0, symName: __ZNSt3__118__insertion_sort_3B7v160006INS_17_ClassicAlgPolicyERZN11ShawRemoval16destroy_solutionER15PDPTWT_solutionRNS_23mersenne_twister_engineIjLm32ELm624ELm397ELm31ELj2567483615ELm11ELj4294967295ELm7ELj2636928640ELm15ELj4022730752ELm18ELj1812433253EEEEUlRT_RT0_E_PNS_4pairIPK7RequestdEEEEvT1_SK_SA_, symObjAddr: 0x1B134, symBinAddr: 0x10001EC34, symSize: 0x144 }
  - { offsetInCU: 0x1D776, offset: 0x1D776, size: 0x8, addend: 0x0, symName: __ZNSt3__111__sift_downB7v160006INS_17_ClassicAlgPolicyERZN11ShawRemoval16destroy_solutionER15PDPTWT_solutionRNS_23mersenne_twister_engineIjLm32ELm624ELm397ELm31ELj2567483615ELm11ELj4294967295ELm7ELj2636928640ELm15ELj4022730752ELm18ELj1812433253EEEEUlRT_RT0_E_PNS_4pairIPK7RequestdEEEEvT1_OSA_NS_15iterator_traitsISK_E15difference_typeESK_, symObjAddr: 0x1BC14, symBinAddr: 0x10001F714, symSize: 0x20C }
  - { offsetInCU: 0x1D823, offset: 0x1D823, size: 0x8, addend: 0x0, symName: __ZNSt3__117__floyd_sift_downB7v160006INS_17_ClassicAlgPolicyERZN11ShawRemoval16destroy_solutionER15PDPTWT_solutionRNS_23mersenne_twister_engineIjLm32ELm624ELm397ELm31ELj2567483615ELm11ELj4294967295ELm7ELj2636928640ELm15ELj4022730752ELm18ELj1812433253EEEEUlRT_RT0_E_PNS_4pairIPK7RequestdEEEET1_SK_OSA_NS_15iterator_traitsISK_E15difference_typeE, symObjAddr: 0x1BFA4, symBinAddr: 0x10001FAA4, symSize: 0x100 }
  - { offsetInCU: 0x1D8BB, offset: 0x1D8BB, size: 0x8, addend: 0x0, symName: __ZNSt3__127__insertion_sort_incompleteIRZN11ShawRemoval16destroy_solutionER15PDPTWT_solutionRNS_23mersenne_twister_engineIjLm32ELm624ELm397ELm31ELj2567483615ELm11ELj4294967295ELm7ELj2636928640ELm15ELj4022730752ELm18ELj1812433253EEEEUlRT_RT0_E_PNS_4pairIPK7RequestdEEEEbS9_S9_S7_, symObjAddr: 0x1B4A4, symBinAddr: 0x10001EFA4, symSize: 0x310 }
  - { offsetInCU: 0x1F9B6, offset: 0x1F9B6, size: 0x8, addend: 0x0, symName: __ZNSt3__111__introsortINS_17_ClassicAlgPolicyERZN12WorstRemoval16destroy_solutionER15PDPTWT_solutionRNS_23mersenne_twister_engineIjLm32ELm624ELm397ELm31ELj2567483615ELm11ELj4294967295ELm7ELj2636928640ELm15ELj4022730752ELm18ELj1812433253EEEEUlRKZNS2_16destroy_solutionES4_S7_E11RequestCostSA_E_PS8_EEvT1_SE_T0_NS_15iterator_traitsISE_E15difference_typeE, symObjAddr: 0x1EDBC, symBinAddr: 0x1000228BC, symSize: 0x6B8 }
  - { offsetInCU: 0x1FB11, offset: 0x1FB11, size: 0x8, addend: 0x0, symName: __ZNSt3__118__insertion_sort_3B7v160006INS_17_ClassicAlgPolicyERZN12WorstRemoval16destroy_solutionER15PDPTWT_solutionRNS_23mersenne_twister_engineIjLm32ELm624ELm397ELm31ELj2567483615ELm11ELj4294967295ELm7ELj2636928640ELm15ELj4022730752ELm18ELj1812433253EEEEUlRKZNS2_16destroy_solutionES4_S7_E11RequestCostSA_E_PS8_EEvT1_SE_T0_, symObjAddr: 0x1F5C0, symBinAddr: 0x1000230C0, symSize: 0x144 }
  - { offsetInCU: 0x1FBE4, offset: 0x1FBE4, size: 0x8, addend: 0x0, symName: __ZNSt3__111__sift_downB7v160006INS_17_ClassicAlgPolicyERZN12WorstRemoval16destroy_solutionER15PDPTWT_solutionRNS_23mersenne_twister_engineIjLm32ELm624ELm397ELm31ELj2567483615ELm11ELj4294967295ELm7ELj2636928640ELm15ELj4022730752ELm18ELj1812433253EEEEUlRKZNS2_16destroy_solutionES4_S7_E11RequestCostSA_E_PS8_EEvT1_OT0_NS_15iterator_traitsISE_E15difference_typeESE_, symObjAddr: 0x1FFC4, symBinAddr: 0x100023AC4, symSize: 0x20C }
  - { offsetInCU: 0x1FC91, offset: 0x1FC91, size: 0x8, addend: 0x0, symName: __ZNSt3__117__floyd_sift_downB7v160006INS_17_ClassicAlgPolicyERZN12WorstRemoval16destroy_solutionER15PDPTWT_solutionRNS_23mersenne_twister_engineIjLm32ELm624ELm397ELm31ELj2567483615ELm11ELj4294967295ELm7ELj2636928640ELm15ELj4022730752ELm18ELj1812433253EEEEUlRKZNS2_16destroy_solutionES4_S7_E11RequestCostSA_E_PS8_EET1_SE_OT0_NS_15iterator_traitsISE_E15difference_typeE, symObjAddr: 0x20354, symBinAddr: 0x100023E54, symSize: 0x100 }
  - { offsetInCU: 0x1FD29, offset: 0x1FD29, size: 0x8, addend: 0x0, symName: __ZNSt3__127__insertion_sort_incompleteIRZN12WorstRemoval16destroy_solutionER15PDPTWT_solutionRNS_23mersenne_twister_engineIjLm32ELm624ELm397ELm31ELj2567483615ELm11ELj4294967295ELm7ELj2636928640ELm15ELj4022730752ELm18ELj1812433253EEEEUlRKZNS1_16destroy_solutionES3_S6_E11RequestCostS9_E_PS7_EEbT0_SD_T_, symObjAddr: 0x1F930, symBinAddr: 0x100023430, symSize: 0x310 }
  - { offsetInCU: 0x226AA, offset: 0x226AA, size: 0x8, addend: 0x0, symName: __ZNSt3__111__introsortINS_17_ClassicAlgPolicyERZN18regret_k_insertion15repair_solutionER15PDPTWT_solutionRNS_23mersenne_twister_engineIjLm32ELm624ELm397ELm31ELj2567483615ELm11ELj4294967295ELm7ELj2636928640ELm15ELj4022730752ELm18ELj1812433253EEEEUlRKT_RKT0_E_PNS_4pairINS_5tupleIJiiiEEEdEEEEvT1_SL_SB_NS_15iterator_traitsISL_E15difference_typeE, symObjAddr: 0x24A34, symBinAddr: 0x100028534, symSize: 0x6D0 }
  - { offsetInCU: 0x22805, offset: 0x22805, size: 0x8, addend: 0x0, symName: __ZNSt3__118__insertion_sort_3B7v160006INS_17_ClassicAlgPolicyERZN18regret_k_insertion15repair_solutionER15PDPTWT_solutionRNS_23mersenne_twister_engineIjLm32ELm624ELm397ELm31ELj2567483615ELm11ELj4294967295ELm7ELj2636928640ELm15ELj4022730752ELm18ELj1812433253EEEEUlRKT_RKT0_E_PNS_4pairINS_5tupleIJiiiEEEdEEEEvT1_SL_SB_, symObjAddr: 0x25250, symBinAddr: 0x100028D50, symSize: 0x14C }
  - { offsetInCU: 0x228D8, offset: 0x228D8, size: 0x8, addend: 0x0, symName: __ZNSt3__111__sift_downB7v160006INS_17_ClassicAlgPolicyERZN18regret_k_insertion15repair_solutionER15PDPTWT_solutionRNS_23mersenne_twister_engineIjLm32ELm624ELm397ELm31ELj2567483615ELm11ELj4294967295ELm7ELj2636928640ELm15ELj4022730752ELm18ELj1812433253EEEEUlRKT_RKT0_E_PNS_4pairINS_5tupleIJiiiEEEdEEEEvT1_OSB_NS_15iterator_traitsISL_E15difference_typeESL_, symObjAddr: 0x2608C, symBinAddr: 0x100029B8C, symSize: 0x224 }
  - { offsetInCU: 0x22985, offset: 0x22985, size: 0x8, addend: 0x0, symName: __ZNSt3__117__floyd_sift_downB7v160006INS_17_ClassicAlgPolicyERZN18regret_k_insertion15repair_solutionER15PDPTWT_solutionRNS_23mersenne_twister_engineIjLm32ELm624ELm397ELm31ELj2567483615ELm11ELj4294967295ELm7ELj2636928640ELm15ELj4022730752ELm18ELj1812433253EEEEUlRKT_RKT0_E_PNS_4pairINS_5tupleIJiiiEEEdEEEET1_SL_OSB_NS_15iterator_traitsISL_E15difference_typeE, symObjAddr: 0x2643C, symBinAddr: 0x100029F3C, symSize: 0x108 }
  - { offsetInCU: 0x22A1D, offset: 0x22A1D, size: 0x8, addend: 0x0, symName: __ZNSt3__127__insertion_sort_incompleteIRZN18regret_k_insertion15repair_solutionER15PDPTWT_solutionRNS_23mersenne_twister_engineIjLm32ELm624ELm397ELm31ELj2567483615ELm11ELj4294967295ELm7ELj2636928640ELm15ELj4022730752ELm18ELj1812433253EEEEUlRKT_RKT0_E_PNS_4pairINS_5tupleIJiiiEEEdEEEEbSA_SA_S7_, symObjAddr: 0x255C8, symBinAddr: 0x1000290C8, symSize: 0x318 }
  - { offsetInCU: 0x269F8, offset: 0x269F8, size: 0x8, addend: 0x0, symName: __ZNSt3__111__introsortINS_17_ClassicAlgPolicyERNS_6__lessIN5boost11multi_index6detail14copy_map_entryINS5_20sequenced_index_nodeINS5_18ordered_index_nodeINS5_19null_augment_policyENS5_15index_node_baseINS_4pairIKNS_12basic_stringIcNS_11char_traitsIcEENS_9allocatorIcEEEENS3_13property_tree11basic_ptreeISH_SH_NS_4lessISH_EEEEEENSF_ISO_EEEEEEEEEEST_EEPST_EEvT1_SX_T0_NS_15iterator_traitsISX_E15difference_typeE, symObjAddr: 0x33848, symBinAddr: 0x100037348, symSize: 0x6B8 }
  - { offsetInCU: 0x26B7F, offset: 0x26B7F, size: 0x8, addend: 0x0, symName: __ZNSt3__118__insertion_sort_3B7v160006INS_17_ClassicAlgPolicyERNS_6__lessIN5boost11multi_index6detail14copy_map_entryINS5_20sequenced_index_nodeINS5_18ordered_index_nodeINS5_19null_augment_policyENS5_15index_node_baseINS_4pairIKNS_12basic_stringIcNS_11char_traitsIcEENS_9allocatorIcEEEENS3_13property_tree11basic_ptreeISH_SH_NS_4lessISH_EEEEEENSF_ISO_EEEEEEEEEEST_EEPST_EEvT1_SX_T0_, symObjAddr: 0x3404C, symBinAddr: 0x100037B4C, symSize: 0x144 }
  - { offsetInCU: 0x26C52, offset: 0x26C52, size: 0x8, addend: 0x0, symName: __ZNSt3__111__sift_downB7v160006INS_17_ClassicAlgPolicyERNS_6__lessIN5boost11multi_index6detail14copy_map_entryINS5_20sequenced_index_nodeINS5_18ordered_index_nodeINS5_19null_augment_policyENS5_15index_node_baseINS_4pairIKNS_12basic_stringIcNS_11char_traitsIcEENS_9allocatorIcEEEENS3_13property_tree11basic_ptreeISH_SH_NS_4lessISH_EEEEEENSF_ISO_EEEEEEEEEEST_EEPST_EEvT1_OT0_NS_15iterator_traitsISX_E15difference_typeESX_, symObjAddr: 0x34AA4, symBinAddr: 0x1000385A4, symSize: 0x20C }
  - { offsetInCU: 0x26CFF, offset: 0x26CFF, size: 0x8, addend: 0x0, symName: __ZNSt3__117__floyd_sift_downB7v160006INS_17_ClassicAlgPolicyERNS_6__lessIN5boost11multi_index6detail14copy_map_entryINS5_20sequenced_index_nodeINS5_18ordered_index_nodeINS5_19null_augment_policyENS5_15index_node_baseINS_4pairIKNS_12basic_stringIcNS_11char_traitsIcEENS_9allocatorIcEEEENS3_13property_tree11basic_ptreeISH_SH_NS_4lessISH_EEEEEENSF_ISO_EEEEEEEEEEST_EEPST_EET1_SX_OT0_NS_15iterator_traitsISX_E15difference_typeE, symObjAddr: 0x34E34, symBinAddr: 0x100038934, symSize: 0x100 }
  - { offsetInCU: 0x26D97, offset: 0x26D97, size: 0x8, addend: 0x0, symName: __ZNSt3__127__insertion_sort_incompleteIRNS_6__lessIN5boost11multi_index6detail14copy_map_entryINS4_20sequenced_index_nodeINS4_18ordered_index_nodeINS4_19null_augment_policyENS4_15index_node_baseINS_4pairIKNS_12basic_stringIcNS_11char_traitsIcEENS_9allocatorIcEEEENS2_13property_tree11basic_ptreeISG_SG_NS_4lessISG_EEEEEENSE_ISN_EEEEEEEEEESS_EEPSS_EEbT0_SW_T_, symObjAddr: 0x343BC, symBinAddr: 0x100037EBC, symSize: 0x310 }
  - { offsetInCU: 0x26E9E, offset: 0x26E9E, size: 0x8, addend: 0x0, symName: __ZNSt3__17advanceB7v160006IPKN5boost11multi_index6detail14copy_map_entryINS3_20sequenced_index_nodeINS3_18ordered_index_nodeINS3_19null_augment_policyENS3_15index_node_baseINS_4pairIKNS_12basic_stringIcNS_11char_traitsIcEENS_9allocatorIcEEEENS1_13property_tree11basic_ptreeISF_SF_NS_4lessISF_EEEEEENSD_ISM_EEEEEEEEEEllvEEvRT_T0_, symObjAddr: 0x35A18, symBinAddr: 0x100039518, symSize: 0x50 }
  - { offsetInCU: 0x26F29, offset: 0x26F29, size: 0x8, addend: 0x0, symName: __ZNSt3__17advanceB7v160006INS_11__wrap_iterIPcEEllvEEvRT_T0_, symObjAddr: 0x3B150, symBinAddr: 0x10003EC50, symSize: 0x50 }
  - { offsetInCU: 0x26FBA, offset: 0x26FBA, size: 0x8, addend: 0x0, symName: __ZNSt3__16copy_nB7v160006IPKcmPcEENS_9enable_ifIXsr33__is_cpp17_random_access_iteratorIT_EE5valueET1_E4typeES5_T0_S6_, symObjAddr: 0x3D9B4, symBinAddr: 0x1000414B4, symSize: 0x44 }
  - { offsetInCU: 0x27463, offset: 0x27463, size: 0x8, addend: 0x0, symName: __ZNSt3__16chronomiB7v160006IxNS_5ratioILl1ELl1000000000EEExS3_EENS_11common_typeIJNS0_8durationIT_T0_EENS5_IT1_T2_EEEE4typeERKS8_RKSB_, symObjAddr: 0x4217C, symBinAddr: 0x100045C7C, symSize: 0x70 }
  - { offsetInCU: 0x279E1, offset: 0x279E1, size: 0x8, addend: 0x0, symName: __ZNSt3__16chrono13duration_castB7v160006INS0_8durationIxNS_5ratioILl1ELl1000000EEEEExNS3_ILl1ELl1000000000EEEEENS_9enable_ifIXsr13__is_durationIT_EE5valueES8_E4typeERKNS2_IT0_T1_EE, symObjAddr: 0x3578, symBinAddr: 0x100007078, symSize: 0x30 }
  - { offsetInCU: 0x27A28, offset: 0x27A28, size: 0x8, addend: 0x0, symName: __ZNSt3__16chronomiB7v160006INS0_12steady_clockENS0_8durationIxNS_5ratioILl1ELl1000000000EEEEES6_EENS_11common_typeIJT0_T1_EE4typeERKNS0_10time_pointIT_S8_EERKNSC_ISD_S9_EE, symObjAddr: 0x35A8, symBinAddr: 0x1000070A8, symSize: 0x58 }
  - { offsetInCU: 0x27ABD, offset: 0x27ABD, size: 0x8, addend: 0x0, symName: __ZNSt3__16chrono13duration_castB7v160006INS0_8durationIdNS_5ratioILl1ELl1EEEEExNS3_ILl1ELl1000000000EEEEENS_9enable_ifIXsr13__is_durationIT_EE5valueES8_E4typeERKNS2_IT0_T1_EE, symObjAddr: 0x5C430, symBinAddr: 0x10005FF30, symSize: 0x30 }
  - { offsetInCU: 0x2FBEA, offset: 0x2FBEA, size: 0x8, addend: 0x0, symName: __ZNSt3__124__put_character_sequenceB7v160006IcNS_11char_traitsIcEEEERNS_13basic_ostreamIT_T0_EES7_PKS4_m, symObjAddr: 0x454F4, symBinAddr: 0x100048FF4, symSize: 0x1EC }
  - { offsetInCU: 0x3FB5D, offset: 0x3FB5D, size: 0x8, addend: 0x0, symName: __ZNSt3__1lsB7v160006IcNS_11char_traitsIcEENS_9allocatorIcEEEERNS_13basic_ostreamIT_T0_EES9_RKNS_12basic_stringIS6_S7_T1_EE, symObjAddr: 0xB8C, symBinAddr: 0x10000468C, symSize: 0x4C }
  - { offsetInCU: 0x3FBB5, offset: 0x3FBB5, size: 0x8, addend: 0x0, symName: __ZNSt3__1lsB7v160006INS_11char_traitsIcEEEERNS_13basic_ostreamIcT_EES6_PKc, symObjAddr: 0xBD8, symBinAddr: 0x1000046D8, symSize: 0x48 }
  - { offsetInCU: 0x3FBFB, offset: 0x3FBFB, size: 0x8, addend: 0x0, symName: __ZNSt3__14endlB7v160006IcNS_11char_traitsIcEEEERNS_13basic_ostreamIT_T0_EES7_, symObjAddr: 0xC4C, symBinAddr: 0x10000474C, symSize: 0x58 }
  - { offsetInCU: 0x3FC3B, offset: 0x3FC3B, size: 0x8, addend: 0x0, symName: __ZNSt3__1rsB7v160006IcNS_11char_traitsIcEENS_9allocatorIcEEEERNS_13basic_istreamIT_T0_EES9_RNS_12basic_stringIS6_S7_T1_EE, symObjAddr: 0xDD0, symBinAddr: 0x1000048D0, symSize: 0x308 }
  - { offsetInCU: 0x40107, offset: 0x40107, size: 0x8, addend: 0x0, symName: __ZNSt3__1lsB7v160006INS_11char_traitsIcEEEERNS_13basic_ostreamIcT_EES6_c, symObjAddr: 0x2840, symBinAddr: 0x100006340, symSize: 0x34 }
  - { offsetInCU: 0x4014D, offset: 0x4014D, size: 0x8, addend: 0x0, symName: __ZNSt3__111make_uniqueB7v160006I12DummyVisitorI15PDPTWT_solutionEJEEENS_11__unique_ifIT_E15__unique_singleEDpOT0_, symObjAddr: 0x3340, symBinAddr: 0x100006E40, symSize: 0x40 }
  - { offsetInCU: 0x4017A, offset: 0x4017A, size: 0x8, addend: 0x0, symName: __ZNSt3__18distanceB7v160006IP7RequestEENS_15iterator_traitsIT_E15difference_typeES4_S4_, symObjAddr: 0x3C70, symBinAddr: 0x100007770, symSize: 0x2C }
  - { offsetInCU: 0x401BD, offset: 0x401BD, size: 0x8, addend: 0x0, symName: __ZNSt3__14copyB7v160006IP7RequestS2_EET0_T_S4_S3_, symObjAddr: 0x3D54, symBinAddr: 0x100007854, symSize: 0x40 }
  - { offsetInCU: 0x40218, offset: 0x40218, size: 0x8, addend: 0x0, symName: __ZNSt3__125__debug_db_invalidate_allB7v160006INS_6vectorI7RequestNS_9allocatorIS2_EEEEEEvPT_, symObjAddr: 0x406C, symBinAddr: 0x100007B6C, symSize: 0x10 }
  - { offsetInCU: 0x4024A, offset: 0x4024A, size: 0x8, addend: 0x0, symName: __ZNSt3__110__distanceB7v160006IP7RequestEENS_15iterator_traitsIT_E15difference_typeES4_S4_NS_26random_access_iterator_tagE, symObjAddr: 0x407C, symBinAddr: 0x100007B7C, symSize: 0x28 }
  - { offsetInCU: 0x40299, offset: 0x40299, size: 0x8, addend: 0x0, symName: __ZNSt3__121__convert_to_integralB7v160006Em, symObjAddr: 0x4104, symBinAddr: 0x100007C04, symSize: 0x14 }
  - { offsetInCU: 0x402C6, offset: 0x402C6, size: 0x8, addend: 0x0, symName: __ZNSt3__19__advanceB7v160006IP7RequestEEvRT_NS_15iterator_traitsIS3_E15difference_typeENS_26random_access_iterator_tagE, symObjAddr: 0x4118, symBinAddr: 0x100007C18, symSize: 0x28 }
  - { offsetInCU: 0x40310, offset: 0x40310, size: 0x8, addend: 0x0, symName: __ZNSt3__16__copyB7v160006INS_17_ClassicAlgPolicyEP7RequestS3_S3_EENS_4pairIT0_T2_EES5_T1_S6_, symObjAddr: 0x4140, symBinAddr: 0x100007C40, symSize: 0x44 }
  - { offsetInCU: 0x4037D, offset: 0x4037D, size: 0x8, addend: 0x0, symName: __ZNSt3__123__dispatch_copy_or_moveB7v160006INS_17_ClassicAlgPolicyENS_11__copy_loopIS1_EENS_14__copy_trivialEP7RequestS6_S6_EENS_4pairIT2_T4_EES8_T3_S9_, symObjAddr: 0x4184, symBinAddr: 0x100007C84, symSize: 0x44 }
  - { offsetInCU: 0x40403, offset: 0x40403, size: 0x8, addend: 0x0, symName: __ZNSt3__121__unwrap_and_dispatchB7v160006INS_10__overloadINS_11__copy_loopINS_17_ClassicAlgPolicyEEENS_14__copy_trivialEEEP7RequestS8_S8_Li0EEENS_4pairIT0_T2_EESA_T1_SB_, symObjAddr: 0x41C8, symBinAddr: 0x100007CC8, symSize: 0xB4 }
  - { offsetInCU: 0x4049D, offset: 0x4049D, size: 0x8, addend: 0x0, symName: __ZNSt3__114__unwrap_rangeB7v160006IP7RequestS2_EENS_4pairIT0_S4_EET_S6_, symObjAddr: 0x427C, symBinAddr: 0x100007D7C, symSize: 0x60 }
  - { offsetInCU: 0x406EC, offset: 0x406EC, size: 0x8, addend: 0x0, symName: __ZNSt3__113__unwrap_iterB7v160006IP7RequestNS_18__unwrap_iter_implIS2_Lb1EEELi0EEEDTclsrT0_8__unwrapclsr3stdE7declvalIT_EEEES6_, symObjAddr: 0x4324, symBinAddr: 0x100007E24, symSize: 0x24 }
  - { offsetInCU: 0x40733, offset: 0x40733, size: 0x8, addend: 0x0, symName: __ZNSt3__19make_pairB7v160006IP7RequestS2_EENS_4pairINS_18__unwrap_ref_decayIT_E4typeENS4_IT0_E4typeEEEOS5_OS8_, symObjAddr: 0x4348, symBinAddr: 0x100007E48, symSize: 0x38 }
  - { offsetInCU: 0x40783, offset: 0x40783, size: 0x8, addend: 0x0, symName: __ZNSt3__114__rewrap_rangeB7v160006IP7RequestS2_EET_S3_T0_, symObjAddr: 0x4380, symBinAddr: 0x100007E80, symSize: 0x2C }
  - { offsetInCU: 0x407D5, offset: 0x407D5, size: 0x8, addend: 0x0, symName: __ZNSt3__113__rewrap_iterB7v160006IP7RequestS2_NS_18__unwrap_iter_implIS2_Lb1EEEEET_S5_T0_, symObjAddr: 0x43AC, symBinAddr: 0x100007EAC, symSize: 0x3C }
  - { offsetInCU: 0x40830, offset: 0x40830, size: 0x8, addend: 0x0, symName: __ZNSt3__119__copy_trivial_implB7v160006I7RequestS1_EENS_4pairIPT_PT0_EES4_S4_S6_, symObjAddr: 0x43E8, symBinAddr: 0x100007EE8, symSize: 0x84 }
  - { offsetInCU: 0x408A1, offset: 0x408A1, size: 0x8, addend: 0x0, symName: __ZNSt3__19make_pairB7v160006IRP7RequestS2_EENS_4pairINS_18__unwrap_ref_decayIT_E4typeENS5_IT0_E4typeEEEOS6_OS9_, symObjAddr: 0x446C, symBinAddr: 0x100007F6C, symSize: 0x38 }
  - { offsetInCU: 0x4094C, offset: 0x4094C, size: 0x8, addend: 0x0, symName: __ZNSt3__112__to_addressB7v160006I7RequestEEPT_S3_, symObjAddr: 0x4538, symBinAddr: 0x100008038, symSize: 0x14 }
  - { offsetInCU: 0x40981, offset: 0x40981, size: 0x8, addend: 0x0, symName: __ZNSt3__130__uninitialized_allocator_copyB7v160006INS_9allocatorI7RequestEEPS2_S4_S4_EET2_RT_T0_T1_S5_, symObjAddr: 0x4654, symBinAddr: 0x100008154, symSize: 0xF4 }
  - { offsetInCU: 0x40A1F, offset: 0x40A1F, size: 0x8, addend: 0x0, symName: __ZNSt3__122__make_exception_guardB7v160006INS_29_AllocatorDestroyRangeReverseINS_9allocatorI7RequestEEPS3_EEEENS_28__exception_guard_exceptionsIT_EES8_, symObjAddr: 0x47E0, symBinAddr: 0x1000082E0, symSize: 0x4C }
  - { offsetInCU: 0x40A55, offset: 0x40A55, size: 0x8, addend: 0x0, symName: __ZNSt3__119__allocator_destroyB7v160006INS_9allocatorI7RequestEENS_16reverse_iteratorIPS2_EES6_EEvRT_T0_T1_, symObjAddr: 0x4A70, symBinAddr: 0x100008570, symSize: 0x70 }
  - { offsetInCU: 0x40AB8, offset: 0x40AB8, size: 0x8, addend: 0x0, symName: __ZNSt3__1neB7v160006IP7RequestS2_EEbRKNS_16reverse_iteratorIT_EERKNS3_IT0_EE, symObjAddr: 0x4B14, symBinAddr: 0x100008614, symSize: 0x48 }
  - { offsetInCU: 0x40B04, offset: 0x40B04, size: 0x8, addend: 0x0, symName: __ZNSt3__112__to_addressB7v160006INS_16reverse_iteratorIP7RequestEEvEENS_5decayIDTclsr19__to_address_helperIT_EE6__callclsr3stdE7declvalIRKS6_EEEEE4typeES8_, symObjAddr: 0x4B88, symBinAddr: 0x100008688, symSize: 0x24 }
  - { offsetInCU: 0x40B63, offset: 0x40B63, size: 0x8, addend: 0x0, symName: __ZNSt3__119__libcpp_deallocateB7v160006EPvmm, symObjAddr: 0x4FB0, symBinAddr: 0x100008AB0, symSize: 0x60 }
  - { offsetInCU: 0x40BC9, offset: 0x40BC9, size: 0x8, addend: 0x0, symName: __ZNSt3__124__is_overaligned_for_newB7v160006Em, symObjAddr: 0x5010, symBinAddr: 0x100008B10, symSize: 0x20 }
  - { offsetInCU: 0x40BF7, offset: 0x40BF7, size: 0x8, addend: 0x0, symName: __ZNSt3__127__do_deallocate_handle_sizeB7v160006IJSt11align_val_tEEEvPvmDpT_, symObjAddr: 0x5030, symBinAddr: 0x100008B30, symSize: 0x30 }
  - { offsetInCU: 0x40C4A, offset: 0x40C4A, size: 0x8, addend: 0x0, symName: __ZNSt3__127__do_deallocate_handle_sizeB7v160006IJEEEvPvmDpT_, symObjAddr: 0x5060, symBinAddr: 0x100008B60, symSize: 0x28 }
  - { offsetInCU: 0x40C88, offset: 0x40C88, size: 0x8, addend: 0x0, symName: __ZNSt3__124__libcpp_operator_deleteB7v160006IJPvSt11align_val_tEEEvDpT_, symObjAddr: 0x5088, symBinAddr: 0x100008B88, symSize: 0x2C }
  - { offsetInCU: 0x40CD1, offset: 0x40CD1, size: 0x8, addend: 0x0, symName: __ZNSt3__124__libcpp_operator_deleteB7v160006IJPvEEEvDpT_, symObjAddr: 0x50B4, symBinAddr: 0x100008BB4, symSize: 0x24 }
  - { offsetInCU: 0x40D07, offset: 0x40D07, size: 0x8, addend: 0x0, symName: __ZNSt3__119__allocate_at_leastB7v160006INS_9allocatorI7RequestEEEENS_19__allocation_resultINS_16allocator_traitsIT_E7pointerEEERS6_m, symObjAddr: 0x518C, symBinAddr: 0x100008C8C, symSize: 0x40 }
  - { offsetInCU: 0x40D50, offset: 0x40D50, size: 0x8, addend: 0x0, symName: __ZNSt3__13minB7v160006ImEERKT_S3_S3_, symObjAddr: 0x5278, symBinAddr: 0x100008D78, symSize: 0x2C }
  - { offsetInCU: 0x40F83, offset: 0x40F83, size: 0x8, addend: 0x0, symName: __ZNSt3__13minB7v160006ImNS_6__lessImmEEEERKT_S5_S5_T0_, symObjAddr: 0x5304, symBinAddr: 0x100008E04, symSize: 0x54 }
  - { offsetInCU: 0x41024, offset: 0x41024, size: 0x8, addend: 0x0, symName: __ZNSt3__120__throw_length_errorB7v160006EPKc, symObjAddr: 0x53E0, symBinAddr: 0x100008EE0, symSize: 0x64 }
  - { offsetInCU: 0x4104C, offset: 0x4104C, size: 0x8, addend: 0x0, symName: __ZNSt3__117__libcpp_allocateB7v160006Emm, symObjAddr: 0x5550, symBinAddr: 0x100009050, symSize: 0x60 }
  - { offsetInCU: 0x410A6, offset: 0x410A6, size: 0x8, addend: 0x0, symName: __ZNSt3__121__libcpp_operator_newB7v160006IJmSt11align_val_tEEEPvDpT_, symObjAddr: 0x55B0, symBinAddr: 0x1000090B0, symSize: 0x2C }
  - { offsetInCU: 0x410F3, offset: 0x410F3, size: 0x8, addend: 0x0, symName: __ZNSt3__121__libcpp_operator_newB7v160006IJmEEEPvDpT_, symObjAddr: 0x55DC, symBinAddr: 0x1000090DC, symSize: 0x24 }
  - { offsetInCU: 0x4112D, offset: 0x4112D, size: 0x8, addend: 0x0, symName: __ZNSt3__13maxB7v160006ImEERKT_S3_S3_, symObjAddr: 0x5600, symBinAddr: 0x100009100, symSize: 0x2C }
  - { offsetInCU: 0x41176, offset: 0x41176, size: 0x8, addend: 0x0, symName: __ZNSt3__13maxB7v160006ImNS_6__lessImmEEEERKT_S5_S5_T0_, symObjAddr: 0x562C, symBinAddr: 0x10000912C, symSize: 0x54 }
  - { offsetInCU: 0x411D7, offset: 0x411D7, size: 0x8, addend: 0x0, symName: __ZNSt3__122__make_exception_guardB7v160006INS_6vectorI5RouteNS_9allocatorIS2_EEE16__destroy_vectorEEENS_28__exception_guard_exceptionsIT_EES8_, symObjAddr: 0x59B0, symBinAddr: 0x1000094B0, symSize: 0x40 }
  - { offsetInCU: 0x4120D, offset: 0x4120D, size: 0x8, addend: 0x0, symName: __ZNSt3__119__debug_db_insert_cB7v160006INS_6vectorI5RouteNS_9allocatorIS2_EEEEEEvPT_, symObjAddr: 0x5A24, symBinAddr: 0x100009524, symSize: 0x10 }
  - { offsetInCU: 0x4123F, offset: 0x4123F, size: 0x8, addend: 0x0, symName: __ZNSt3__119__allocate_at_leastB7v160006INS_9allocatorI5RouteEEEENS_19__allocation_resultINS_16allocator_traitsIT_E7pointerEEERS6_m, symObjAddr: 0x5D58, symBinAddr: 0x100009858, symSize: 0x40 }
  - { offsetInCU: 0x41288, offset: 0x41288, size: 0x8, addend: 0x0, symName: __ZNSt3__112__to_addressB7v160006I5RouteEEPT_S3_, symObjAddr: 0x601C, symBinAddr: 0x100009B1C, symSize: 0x14 }
  - { offsetInCU: 0x412BD, offset: 0x412BD, size: 0x8, addend: 0x0, symName: __ZNSt3__130__uninitialized_allocator_copyB7v160006INS_9allocatorI5RouteEEPS2_S4_S4_EET2_RT_T0_T1_S5_, symObjAddr: 0x60CC, symBinAddr: 0x100009BCC, symSize: 0xF4 }
  - { offsetInCU: 0x4135B, offset: 0x4135B, size: 0x8, addend: 0x0, symName: __ZNSt3__122__make_exception_guardB7v160006INS_29_AllocatorDestroyRangeReverseINS_9allocatorI5RouteEEPS3_EEEENS_28__exception_guard_exceptionsIT_EES8_, symObjAddr: 0x6230, symBinAddr: 0x100009D30, symSize: 0x4C }
  - { offsetInCU: 0x41391, offset: 0x41391, size: 0x8, addend: 0x0, symName: __ZNSt3__122__make_exception_guardB7v160006INS_6vectorI4StopNS_9allocatorIS2_EEE16__destroy_vectorEEENS_28__exception_guard_exceptionsIT_EES8_, symObjAddr: 0x6640, symBinAddr: 0x10000A140, symSize: 0x40 }
  - { offsetInCU: 0x413C7, offset: 0x413C7, size: 0x8, addend: 0x0, symName: __ZNSt3__119__debug_db_insert_cB7v160006INS_6vectorI4StopNS_9allocatorIS2_EEEEEEvPT_, symObjAddr: 0x66B4, symBinAddr: 0x10000A1B4, symSize: 0x10 }
  - { offsetInCU: 0x413F9, offset: 0x413F9, size: 0x8, addend: 0x0, symName: __ZNSt3__119__allocate_at_leastB7v160006INS_9allocatorI4StopEEEENS_19__allocation_resultINS_16allocator_traitsIT_E7pointerEEERS6_m, symObjAddr: 0x69F0, symBinAddr: 0x10000A4F0, symSize: 0x40 }
  - { offsetInCU: 0x41442, offset: 0x41442, size: 0x8, addend: 0x0, symName: __ZNSt3__112__to_addressB7v160006I4StopEEPT_S3_, symObjAddr: 0x6CD8, symBinAddr: 0x10000A7D8, symSize: 0x14 }
  - { offsetInCU: 0x41477, offset: 0x41477, size: 0x8, addend: 0x0, symName: __ZNSt3__130__uninitialized_allocator_copyB7v160006INS_9allocatorI4StopEEPS2_S4_S4_EET2_RT_T0_T1_S5_, symObjAddr: 0x6D88, symBinAddr: 0x10000A888, symSize: 0xF4 }
  - { offsetInCU: 0x41515, offset: 0x41515, size: 0x8, addend: 0x0, symName: __ZNSt3__122__make_exception_guardB7v160006INS_29_AllocatorDestroyRangeReverseINS_9allocatorI4StopEEPS3_EEEENS_28__exception_guard_exceptionsIT_EES8_, symObjAddr: 0x6EF4, symBinAddr: 0x10000A9F4, symSize: 0x4C }
  - { offsetInCU: 0x4154B, offset: 0x4154B, size: 0x8, addend: 0x0, symName: __ZNSt3__119__allocator_destroyB7v160006INS_9allocatorI4StopEENS_16reverse_iteratorIPS2_EES6_EEvRT_T0_T1_, symObjAddr: 0x7184, symBinAddr: 0x10000AC84, symSize: 0x70 }
  - { offsetInCU: 0x415AE, offset: 0x415AE, size: 0x8, addend: 0x0, symName: __ZNSt3__1neB7v160006IP4StopS2_EEbRKNS_16reverse_iteratorIT_EERKNS3_IT0_EE, symObjAddr: 0x7228, symBinAddr: 0x10000AD28, symSize: 0x48 }
  - { offsetInCU: 0x415FA, offset: 0x415FA, size: 0x8, addend: 0x0, symName: __ZNSt3__112__to_addressB7v160006INS_16reverse_iteratorIP4StopEEvEENS_5decayIDTclsr19__to_address_helperIT_EE6__callclsr3stdE7declvalIRKS6_EEEEE4typeES8_, symObjAddr: 0x729C, symBinAddr: 0x10000AD9C, symSize: 0x24 }
  - { offsetInCU: 0x4165A, offset: 0x4165A, size: 0x8, addend: 0x0, symName: __ZNSt3__118__debug_db_erase_cB7v160006INS_6vectorI4StopNS_9allocatorIS2_EEEEEEvPT_, symObjAddr: 0x7598, symBinAddr: 0x10000B098, symSize: 0x10 }
  - { offsetInCU: 0x4168B, offset: 0x4168B, size: 0x8, addend: 0x0, symName: __ZNSt3__119__allocator_destroyB7v160006INS_9allocatorI5RouteEENS_16reverse_iteratorIPS2_EES6_EEvRT_T0_T1_, symObjAddr: 0x778C, symBinAddr: 0x10000B28C, symSize: 0x70 }
  - { offsetInCU: 0x416EE, offset: 0x416EE, size: 0x8, addend: 0x0, symName: __ZNSt3__1neB7v160006IP5RouteS2_EEbRKNS_16reverse_iteratorIT_EERKNS3_IT0_EE, symObjAddr: 0x7830, symBinAddr: 0x10000B330, symSize: 0x48 }
  - { offsetInCU: 0x4173A, offset: 0x4173A, size: 0x8, addend: 0x0, symName: __ZNSt3__112__to_addressB7v160006INS_16reverse_iteratorIP5RouteEEvEENS_5decayIDTclsr19__to_address_helperIT_EE6__callclsr3stdE7declvalIRKS6_EEEEE4typeES8_, symObjAddr: 0x78A4, symBinAddr: 0x10000B3A4, symSize: 0x24 }
  - { offsetInCU: 0x4179A, offset: 0x4179A, size: 0x8, addend: 0x0, symName: __ZNSt3__118__debug_db_erase_cB7v160006INS_6vectorI5RouteNS_9allocatorIS2_EEEEEEvPT_, symObjAddr: 0x7C64, symBinAddr: 0x10000B764, symSize: 0x10 }
  - { offsetInCU: 0x417CB, offset: 0x417CB, size: 0x8, addend: 0x0, symName: __ZNSt3__122__make_exception_guardB7v160006INS_6vectorIcNS_9allocatorIcEEE16__destroy_vectorEEENS_28__exception_guard_exceptionsIT_EES7_, symObjAddr: 0x7F24, symBinAddr: 0x10000BA24, symSize: 0x40 }
  - { offsetInCU: 0x41801, offset: 0x41801, size: 0x8, addend: 0x0, symName: __ZNSt3__119__debug_db_insert_cB7v160006INS_6vectorIcNS_9allocatorIcEEEEEEvPT_, symObjAddr: 0x7F98, symBinAddr: 0x10000BA98, symSize: 0x10 }
  - { offsetInCU: 0x41833, offset: 0x41833, size: 0x8, addend: 0x0, symName: __ZNSt3__119__allocate_at_leastB7v160006INS_9allocatorIcEEEENS_19__allocation_resultINS_16allocator_traitsIT_E7pointerEEERS5_m, symObjAddr: 0x82EC, symBinAddr: 0x10000BDEC, symSize: 0x40 }
  - { offsetInCU: 0x4187C, offset: 0x4187C, size: 0x8, addend: 0x0, symName: __ZNSt3__112__to_addressB7v160006IcEEPT_S2_, symObjAddr: 0x85A8, symBinAddr: 0x10000C0A8, symSize: 0x14 }
  - { offsetInCU: 0x418B1, offset: 0x418B1, size: 0x8, addend: 0x0, symName: __ZNSt3__130__uninitialized_allocator_copyB7v160006INS_9allocatorIcEEPcS3_S3_EET2_RT_T0_T1_S4_, symObjAddr: 0x8658, symBinAddr: 0x10000C158, symSize: 0xF4 }
  - { offsetInCU: 0x4194F, offset: 0x4194F, size: 0x8, addend: 0x0, symName: __ZNSt3__122__make_exception_guardB7v160006INS_29_AllocatorDestroyRangeReverseINS_9allocatorIcEEPcEEEENS_28__exception_guard_exceptionsIT_EES7_, symObjAddr: 0x87BC, symBinAddr: 0x10000C2BC, symSize: 0x4C }
  - { offsetInCU: 0x41985, offset: 0x41985, size: 0x8, addend: 0x0, symName: __ZNSt3__119__allocator_destroyB7v160006INS_9allocatorIcEENS_16reverse_iteratorIPcEES5_EEvRT_T0_T1_, symObjAddr: 0x8A44, symBinAddr: 0x10000C544, symSize: 0x70 }
  - { offsetInCU: 0x419E8, offset: 0x419E8, size: 0x8, addend: 0x0, symName: __ZNSt3__1neB7v160006IPcS1_EEbRKNS_16reverse_iteratorIT_EERKNS2_IT0_EE, symObjAddr: 0x8AE8, symBinAddr: 0x10000C5E8, symSize: 0x48 }
  - { offsetInCU: 0x41A34, offset: 0x41A34, size: 0x8, addend: 0x0, symName: __ZNSt3__112__to_addressB7v160006INS_16reverse_iteratorIPcEEvEENS_5decayIDTclsr19__to_address_helperIT_EE6__callclsr3stdE7declvalIRKS5_EEEEE4typeES7_, symObjAddr: 0x8B5C, symBinAddr: 0x10000C65C, symSize: 0x24 }
  - { offsetInCU: 0x41A94, offset: 0x41A94, size: 0x8, addend: 0x0, symName: __ZNSt3__118__debug_db_erase_cB7v160006INS_6vectorIcNS_9allocatorIcEEEEEEvPT_, symObjAddr: 0x8E3C, symBinAddr: 0x10000C93C, symSize: 0x10 }
  - { offsetInCU: 0x41AE5, offset: 0x41AE5, size: 0x8, addend: 0x0, symName: __ZNSt3__1miB7v160006IPK4StopPS1_EEDTmicldtfp_4baseEcldtfp0_4baseEERKNS_11__wrap_iterIT_EERKNS6_IT0_EE, symObjAddr: 0x9278, symBinAddr: 0x10000CD78, symSize: 0x48 }
  - { offsetInCU: 0x41B32, offset: 0x41B32, size: 0x8, addend: 0x0, symName: __ZNSt3__113move_backwardB7v160006IP4StopS2_EET0_T_S4_S3_, symObjAddr: 0x9A2C, symBinAddr: 0x10000D52C, symSize: 0x40 }
  - { offsetInCU: 0x41B94, offset: 0x41B94, size: 0x8, addend: 0x0, symName: __ZNSt3__115__move_backwardB7v160006INS_17_ClassicAlgPolicyEP4StopS3_S3_EENS_4pairIT0_T2_EES5_T1_S6_, symObjAddr: 0x9A6C, symBinAddr: 0x10000D56C, symSize: 0x44 }
  - { offsetInCU: 0x41C08, offset: 0x41C08, size: 0x8, addend: 0x0, symName: __ZNSt3__123__dispatch_copy_or_moveB7v160006INS_17_ClassicAlgPolicyENS_20__move_backward_loopIS1_EENS_23__move_backward_trivialEP4StopS6_S6_EENS_4pairIT2_T4_EES8_T3_S9_, symObjAddr: 0x9AB0, symBinAddr: 0x10000D5B0, symSize: 0x44 }
  - { offsetInCU: 0x41C8E, offset: 0x41C8E, size: 0x8, addend: 0x0, symName: __ZNSt3__121__unwrap_and_dispatchB7v160006INS_10__overloadINS_20__move_backward_loopINS_17_ClassicAlgPolicyEEENS_23__move_backward_trivialEEEP4StopS8_S8_Li0EEENS_4pairIT0_T2_EESA_T1_SB_, symObjAddr: 0x9AF4, symBinAddr: 0x10000D5F4, symSize: 0xB4 }
  - { offsetInCU: 0x41D28, offset: 0x41D28, size: 0x8, addend: 0x0, symName: __ZNSt3__114__unwrap_rangeB7v160006IP4StopS2_EENS_4pairIT0_S4_EET_S6_, symObjAddr: 0x9BA8, symBinAddr: 0x10000D6A8, symSize: 0x60 }
  - { offsetInCU: 0x41F34, offset: 0x41F34, size: 0x8, addend: 0x0, symName: __ZNSt3__113__unwrap_iterB7v160006IP4StopNS_18__unwrap_iter_implIS2_Lb1EEELi0EEEDTclsrT0_8__unwrapclsr3stdE7declvalIT_EEEES6_, symObjAddr: 0x9C50, symBinAddr: 0x10000D750, symSize: 0x24 }
  - { offsetInCU: 0x41F7B, offset: 0x41F7B, size: 0x8, addend: 0x0, symName: __ZNSt3__19make_pairB7v160006IP4StopS2_EENS_4pairINS_18__unwrap_ref_decayIT_E4typeENS4_IT0_E4typeEEEOS5_OS8_, symObjAddr: 0x9C74, symBinAddr: 0x10000D774, symSize: 0x38 }
  - { offsetInCU: 0x41FCB, offset: 0x41FCB, size: 0x8, addend: 0x0, symName: __ZNSt3__114__rewrap_rangeB7v160006IP4StopS2_EET_S3_T0_, symObjAddr: 0x9CAC, symBinAddr: 0x10000D7AC, symSize: 0x2C }
  - { offsetInCU: 0x4201D, offset: 0x4201D, size: 0x8, addend: 0x0, symName: __ZNSt3__113__rewrap_iterB7v160006IP4StopS2_NS_18__unwrap_iter_implIS2_Lb1EEEEET_S5_T0_, symObjAddr: 0x9CD8, symBinAddr: 0x10000D7D8, symSize: 0x3C }
  - { offsetInCU: 0x42078, offset: 0x42078, size: 0x8, addend: 0x0, symName: __ZNSt3__128__copy_backward_trivial_implB7v160006I4StopS1_EENS_4pairIPT_PT0_EES4_S4_S6_, symObjAddr: 0x9D14, symBinAddr: 0x10000D814, symSize: 0x94 }
  - { offsetInCU: 0x420E9, offset: 0x420E9, size: 0x8, addend: 0x0, symName: __ZNSt3__19make_pairB7v160006IRP4StopS3_EENS_4pairINS_18__unwrap_ref_decayIT_E4typeENS5_IT0_E4typeEEEOS6_OS9_, symObjAddr: 0x9DA8, symBinAddr: 0x10000D8A8, symSize: 0x38 }
  - { offsetInCU: 0x42194, offset: 0x42194, size: 0x8, addend: 0x0, symName: __ZNSt3__14moveB7v160006IP4StopS2_EET0_T_S4_S3_, symObjAddr: 0xA174, symBinAddr: 0x10000DC74, symSize: 0x40 }
  - { offsetInCU: 0x421F6, offset: 0x421F6, size: 0x8, addend: 0x0, symName: __ZNSt3__14swapB7v160006IP4StopEENS_9enable_ifIXaasr21is_move_constructibleIT_EE5valuesr18is_move_assignableIS4_EE5valueEvE4typeERS4_S7_, symObjAddr: 0xA2E4, symBinAddr: 0x10000DDE4, symSize: 0x3C }
  - { offsetInCU: 0x4224F, offset: 0x4224F, size: 0x8, addend: 0x0, symName: __ZNSt3__16__moveB7v160006INS_17_ClassicAlgPolicyEP4StopS3_S3_EENS_4pairIT0_T2_EES5_T1_S6_, symObjAddr: 0xA320, symBinAddr: 0x10000DE20, symSize: 0x44 }
  - { offsetInCU: 0x422C3, offset: 0x422C3, size: 0x8, addend: 0x0, symName: __ZNSt3__123__dispatch_copy_or_moveB7v160006INS_17_ClassicAlgPolicyENS_11__move_loopIS1_EENS_14__move_trivialEP4StopS6_S6_EENS_4pairIT2_T4_EES8_T3_S9_, symObjAddr: 0xA364, symBinAddr: 0x10000DE64, symSize: 0x44 }
  - { offsetInCU: 0x42349, offset: 0x42349, size: 0x8, addend: 0x0, symName: __ZNSt3__121__unwrap_and_dispatchB7v160006INS_10__overloadINS_11__move_loopINS_17_ClassicAlgPolicyEEENS_14__move_trivialEEEP4StopS8_S8_Li0EEENS_4pairIT0_T2_EESA_T1_SB_, symObjAddr: 0xA3A8, symBinAddr: 0x10000DEA8, symSize: 0xB4 }
  - { offsetInCU: 0x424E7, offset: 0x424E7, size: 0x8, addend: 0x0, symName: __ZNSt3__119__copy_trivial_implB7v160006I4StopS1_EENS_4pairIPT_PT0_EES4_S4_S6_, symObjAddr: 0xA4A4, symBinAddr: 0x10000DFA4, symSize: 0x8C }
  - { offsetInCU: 0x42558, offset: 0x42558, size: 0x8, addend: 0x0, symName: __ZNSt3__19make_pairB7v160006IRP4StopS2_EENS_4pairINS_18__unwrap_ref_decayIT_E4typeENS5_IT0_E4typeEEEOS6_OS9_, symObjAddr: 0xA530, symBinAddr: 0x10000E030, symSize: 0x38 }
  - { offsetInCU: 0x425A7, offset: 0x425A7, size: 0x8, addend: 0x0, symName: __ZNSt3__18distanceB7v160006INS_13move_iteratorIP4StopEEEENS_15iterator_traitsIT_E15difference_typeES6_S6_, symObjAddr: 0xA5D8, symBinAddr: 0x10000E0D8, symSize: 0x3C }
  - { offsetInCU: 0x425EA, offset: 0x425EA, size: 0x8, addend: 0x0, symName: __ZNSt3__110__distanceB7v160006INS_13move_iteratorIP4StopEEEENS_15iterator_traitsIT_E15difference_typeES6_S6_NS_26random_access_iterator_tagE, symObjAddr: 0xA6B4, symBinAddr: 0x10000E1B4, symSize: 0x30 }
  - { offsetInCU: 0x42638, offset: 0x42638, size: 0x8, addend: 0x0, symName: __ZNSt3__1miB7v160006IP4StopS2_EEDTmicldtfp_4baseEcldtfp0_4baseEERKNS_13move_iteratorIT_EERKNS4_IT0_EE, symObjAddr: 0xA6E4, symBinAddr: 0x10000E1E4, symSize: 0x48 }
  - { offsetInCU: 0x42687, offset: 0x42687, size: 0x8, addend: 0x0, symName: __ZNSt3__142__uninitialized_allocator_move_if_noexceptB7v160006INS_9allocatorI4StopEENS_16reverse_iteratorIPS2_EES6_S2_vEET1_RT_T0_SA_S7_, symObjAddr: 0xA7D0, symBinAddr: 0x10000E2D0, symSize: 0x78 }
  - { offsetInCU: 0x42705, offset: 0x42705, size: 0x8, addend: 0x0, symName: __ZNSt3__142__uninitialized_allocator_move_if_noexceptB7v160006INS_9allocatorI4StopEEPS2_S4_S2_vEET1_RT_T0_S8_S5_, symObjAddr: 0xA848, symBinAddr: 0x10000E348, symSize: 0x38 }
  - { offsetInCU: 0x42783, offset: 0x42783, size: 0x8, addend: 0x0, symName: __ZNSt3__125__debug_db_invalidate_allB7v160006INS_6vectorI4StopNS_9allocatorIS2_EEEEEEvPT_, symObjAddr: 0xA880, symBinAddr: 0x10000E380, symSize: 0x10 }
  - { offsetInCU: 0x427B5, offset: 0x427B5, size: 0x8, addend: 0x0, symName: __ZNSt3__14moveB7v160006INS_16reverse_iteratorIP4StopEES4_EET0_T_S6_S5_, symObjAddr: 0xA890, symBinAddr: 0x10000E390, symSize: 0x78 }
  - { offsetInCU: 0x42817, offset: 0x42817, size: 0x8, addend: 0x0, symName: __ZNSt3__16__moveB7v160006INS_17_ClassicAlgPolicyENS_16reverse_iteratorIP4StopEES5_S5_EENS_4pairIT0_T2_EES7_T1_S8_, symObjAddr: 0xA908, symBinAddr: 0x10000E408, symSize: 0x64 }
  - { offsetInCU: 0x4288B, offset: 0x4288B, size: 0x8, addend: 0x0, symName: __ZNSt3__123__dispatch_copy_or_moveB7v160006INS_17_ClassicAlgPolicyENS_11__move_loopIS1_EENS_14__move_trivialENS_16reverse_iteratorIP4StopEES8_S8_EENS_4pairIT2_T4_EESA_T3_SB_, symObjAddr: 0xA96C, symBinAddr: 0x10000E46C, symSize: 0x64 }
  - { offsetInCU: 0x42911, offset: 0x42911, size: 0x8, addend: 0x0, symName: __ZNSt3__121__unwrap_and_dispatchB7v160006INS_10__overloadINS_11__move_loopINS_17_ClassicAlgPolicyEEENS_14__move_trivialEEENS_16reverse_iteratorIP4StopEESA_SA_Li0EEENS_4pairIT0_T2_EESC_T1_SD_, symObjAddr: 0xA9D0, symBinAddr: 0x10000E4D0, symSize: 0x12C }
  - { offsetInCU: 0x429AD, offset: 0x429AD, size: 0x8, addend: 0x0, symName: __ZNSt3__114__unwrap_rangeB7v160006INS_16reverse_iteratorIP4StopEES4_EENS_4pairIT0_S6_EET_S8_, symObjAddr: 0xAAFC, symBinAddr: 0x10000E5FC, symSize: 0x84 }
  - { offsetInCU: 0x42DFF, offset: 0x42DFF, size: 0x8, addend: 0x0, symName: __ZNSt3__113__unwrap_iterB7v160006INS_16reverse_iteratorIP4StopEENS_18__unwrap_iter_implIS4_Lb0EEELi0EEEDTclsrT0_8__unwrapclsr3stdE7declvalIT_EEEES8_, symObjAddr: 0xAC28, symBinAddr: 0x10000E728, symSize: 0x44 }
  - { offsetInCU: 0x42E46, offset: 0x42E46, size: 0x8, addend: 0x0, symName: __ZNSt3__19make_pairB7v160006INS_16reverse_iteratorIP4StopEES4_EENS_4pairINS_18__unwrap_ref_decayIT_E4typeENS6_IT0_E4typeEEEOS7_OSA_, symObjAddr: 0xAC6C, symBinAddr: 0x10000E76C, symSize: 0x38 }
  - { offsetInCU: 0x42E96, offset: 0x42E96, size: 0x8, addend: 0x0, symName: __ZNSt3__114__rewrap_rangeB7v160006INS_16reverse_iteratorIP4StopEES4_EET_S5_T0_, symObjAddr: 0xACA4, symBinAddr: 0x10000E7A4, symSize: 0x5C }
  - { offsetInCU: 0x42EE8, offset: 0x42EE8, size: 0x8, addend: 0x0, symName: __ZNSt3__113__rewrap_iterB7v160006INS_16reverse_iteratorIP4StopEES4_NS_18__unwrap_iter_implIS4_Lb0EEEEET_S7_T0_, symObjAddr: 0xAD00, symBinAddr: 0x10000E800, symSize: 0x74 }
  - { offsetInCU: 0x434C8, offset: 0x434C8, size: 0x8, addend: 0x0, symName: __ZNSt3__18distanceB7v160006IP5RouteEENS_15iterator_traitsIT_E15difference_typeES4_S4_, symObjAddr: 0xB3EC, symBinAddr: 0x10000EEEC, symSize: 0x2C }
  - { offsetInCU: 0x4350B, offset: 0x4350B, size: 0x8, addend: 0x0, symName: __ZNSt3__14copyB7v160006IP5RouteS2_EET0_T_S4_S3_, symObjAddr: 0xB468, symBinAddr: 0x10000EF68, symSize: 0x40 }
  - { offsetInCU: 0x43566, offset: 0x43566, size: 0x8, addend: 0x0, symName: __ZNSt3__125__debug_db_invalidate_allB7v160006INS_6vectorI5RouteNS_9allocatorIS2_EEEEEEvPT_, symObjAddr: 0xB648, symBinAddr: 0x10000F148, symSize: 0x10 }
  - { offsetInCU: 0x43598, offset: 0x43598, size: 0x8, addend: 0x0, symName: __ZNSt3__110__distanceB7v160006IP5RouteEENS_15iterator_traitsIT_E15difference_typeES4_S4_NS_26random_access_iterator_tagE, symObjAddr: 0xB658, symBinAddr: 0x10000F158, symSize: 0x28 }
  - { offsetInCU: 0x435E7, offset: 0x435E7, size: 0x8, addend: 0x0, symName: __ZNSt3__19__advanceB7v160006IP5RouteEEvRT_NS_15iterator_traitsIS3_E15difference_typeENS_26random_access_iterator_tagE, symObjAddr: 0xB680, symBinAddr: 0x10000F180, symSize: 0x28 }
  - { offsetInCU: 0x43631, offset: 0x43631, size: 0x8, addend: 0x0, symName: __ZNSt3__16__copyB7v160006INS_17_ClassicAlgPolicyEP5RouteS3_S3_EENS_4pairIT0_T2_EES5_T1_S6_, symObjAddr: 0xB6A8, symBinAddr: 0x10000F1A8, symSize: 0x44 }
  - { offsetInCU: 0x4369E, offset: 0x4369E, size: 0x8, addend: 0x0, symName: __ZNSt3__123__dispatch_copy_or_moveB7v160006INS_17_ClassicAlgPolicyENS_11__copy_loopIS1_EENS_14__copy_trivialEP5RouteS6_S6_EENS_4pairIT2_T4_EES8_T3_S9_, symObjAddr: 0xB6EC, symBinAddr: 0x10000F1EC, symSize: 0x44 }
  - { offsetInCU: 0x43724, offset: 0x43724, size: 0x8, addend: 0x0, symName: __ZNSt3__121__unwrap_and_dispatchB7v160006INS_10__overloadINS_11__copy_loopINS_17_ClassicAlgPolicyEEENS_14__copy_trivialEEEP5RouteS8_S8_Li0EEENS_4pairIT0_T2_EESA_T1_SB_, symObjAddr: 0xB730, symBinAddr: 0x10000F230, symSize: 0xB4 }
  - { offsetInCU: 0x437BE, offset: 0x437BE, size: 0x8, addend: 0x0, symName: __ZNSt3__114__unwrap_rangeB7v160006IP5RouteS2_EENS_4pairIT0_S4_EET_S6_, symObjAddr: 0xB7E4, symBinAddr: 0x10000F2E4, symSize: 0x60 }
  - { offsetInCU: 0x43936, offset: 0x43936, size: 0x8, addend: 0x0, symName: __ZNSt3__113__unwrap_iterB7v160006IP5RouteNS_18__unwrap_iter_implIS2_Lb1EEELi0EEEDTclsrT0_8__unwrapclsr3stdE7declvalIT_EEEES6_, symObjAddr: 0xB8CC, symBinAddr: 0x10000F3CC, symSize: 0x24 }
  - { offsetInCU: 0x4397D, offset: 0x4397D, size: 0x8, addend: 0x0, symName: __ZNSt3__19make_pairB7v160006IP5RouteS2_EENS_4pairINS_18__unwrap_ref_decayIT_E4typeENS4_IT0_E4typeEEEOS5_OS8_, symObjAddr: 0xB8F0, symBinAddr: 0x10000F3F0, symSize: 0x38 }
  - { offsetInCU: 0x439CD, offset: 0x439CD, size: 0x8, addend: 0x0, symName: __ZNSt3__114__rewrap_rangeB7v160006IP5RouteS2_EET_S3_T0_, symObjAddr: 0xB928, symBinAddr: 0x10000F428, symSize: 0x2C }
  - { offsetInCU: 0x43A1F, offset: 0x43A1F, size: 0x8, addend: 0x0, symName: __ZNSt3__113__rewrap_iterB7v160006IP5RouteS2_NS_18__unwrap_iter_implIS2_Lb1EEEEET_S5_T0_, symObjAddr: 0xB954, symBinAddr: 0x10000F454, symSize: 0x3C }
  - { offsetInCU: 0x43A79, offset: 0x43A79, size: 0x8, addend: 0x0, symName: __ZNSt3__18distanceB7v160006IP4StopEENS_15iterator_traitsIT_E15difference_typeES4_S4_, symObjAddr: 0xBBFC, symBinAddr: 0x10000F6FC, symSize: 0x2C }
  - { offsetInCU: 0x43ABC, offset: 0x43ABC, size: 0x8, addend: 0x0, symName: __ZNSt3__14copyB7v160006IP4StopS2_EET0_T_S4_S3_, symObjAddr: 0xBC78, symBinAddr: 0x10000F778, symSize: 0x40 }
  - { offsetInCU: 0x43B17, offset: 0x43B17, size: 0x8, addend: 0x0, symName: __ZNSt3__110__distanceB7v160006IP4StopEENS_15iterator_traitsIT_E15difference_typeES4_S4_NS_26random_access_iterator_tagE, symObjAddr: 0xBDA4, symBinAddr: 0x10000F8A4, symSize: 0x28 }
  - { offsetInCU: 0x43B66, offset: 0x43B66, size: 0x8, addend: 0x0, symName: __ZNSt3__19__advanceB7v160006IP4StopEEvRT_NS_15iterator_traitsIS3_E15difference_typeENS_26random_access_iterator_tagE, symObjAddr: 0xBDCC, symBinAddr: 0x10000F8CC, symSize: 0x30 }
  - { offsetInCU: 0x43BB0, offset: 0x43BB0, size: 0x8, addend: 0x0, symName: __ZNSt3__16__copyB7v160006INS_17_ClassicAlgPolicyEP4StopS3_S3_EENS_4pairIT0_T2_EES5_T1_S6_, symObjAddr: 0xBDFC, symBinAddr: 0x10000F8FC, symSize: 0x44 }
  - { offsetInCU: 0x43C1D, offset: 0x43C1D, size: 0x8, addend: 0x0, symName: __ZNSt3__123__dispatch_copy_or_moveB7v160006INS_17_ClassicAlgPolicyENS_11__copy_loopIS1_EENS_14__copy_trivialEP4StopS6_S6_EENS_4pairIT2_T4_EES8_T3_S9_, symObjAddr: 0xBE40, symBinAddr: 0x10000F940, symSize: 0x44 }
  - { offsetInCU: 0x43CA3, offset: 0x43CA3, size: 0x8, addend: 0x0, symName: __ZNSt3__121__unwrap_and_dispatchB7v160006INS_10__overloadINS_11__copy_loopINS_17_ClassicAlgPolicyEEENS_14__copy_trivialEEEP4StopS8_S8_Li0EEENS_4pairIT0_T2_EESA_T1_SB_, symObjAddr: 0xBE84, symBinAddr: 0x10000F984, symSize: 0xB4 }
  - { offsetInCU: 0x43D97, offset: 0x43D97, size: 0x8, addend: 0x0, symName: __ZNSt3__18distanceB7v160006IPcEENS_15iterator_traitsIT_E15difference_typeES3_S3_, symObjAddr: 0xC46C, symBinAddr: 0x10000FF6C, symSize: 0x2C }
  - { offsetInCU: 0x43DDA, offset: 0x43DDA, size: 0x8, addend: 0x0, symName: __ZNSt3__14copyB7v160006IPcS1_EET0_T_S3_S2_, symObjAddr: 0xC4E8, symBinAddr: 0x10000FFE8, symSize: 0x40 }
  - { offsetInCU: 0x43E35, offset: 0x43E35, size: 0x8, addend: 0x0, symName: __ZNSt3__125__debug_db_invalidate_allB7v160006INS_6vectorIcNS_9allocatorIcEEEEEEvPT_, symObjAddr: 0xC6C8, symBinAddr: 0x1000101C8, symSize: 0x10 }
  - { offsetInCU: 0x43E67, offset: 0x43E67, size: 0x8, addend: 0x0, symName: __ZNSt3__110__distanceB7v160006IPcEENS_15iterator_traitsIT_E15difference_typeES3_S3_NS_26random_access_iterator_tagE, symObjAddr: 0xC6D8, symBinAddr: 0x1000101D8, symSize: 0x20 }
  - { offsetInCU: 0x43EB6, offset: 0x43EB6, size: 0x8, addend: 0x0, symName: __ZNSt3__19__advanceB7v160006IPcEEvRT_NS_15iterator_traitsIS2_E15difference_typeENS_26random_access_iterator_tagE, symObjAddr: 0xC6F8, symBinAddr: 0x1000101F8, symSize: 0x28 }
  - { offsetInCU: 0x43F00, offset: 0x43F00, size: 0x8, addend: 0x0, symName: __ZNSt3__16__copyB7v160006INS_17_ClassicAlgPolicyEPcS2_S2_EENS_4pairIT0_T2_EES4_T1_S5_, symObjAddr: 0xC720, symBinAddr: 0x100010220, symSize: 0x44 }
  - { offsetInCU: 0x43F6D, offset: 0x43F6D, size: 0x8, addend: 0x0, symName: __ZNSt3__123__dispatch_copy_or_moveB7v160006INS_17_ClassicAlgPolicyENS_11__copy_loopIS1_EENS_14__copy_trivialEPcS5_S5_EENS_4pairIT2_T4_EES7_T3_S8_, symObjAddr: 0xC764, symBinAddr: 0x100010264, symSize: 0x44 }
  - { offsetInCU: 0x43FF3, offset: 0x43FF3, size: 0x8, addend: 0x0, symName: __ZNSt3__121__unwrap_and_dispatchB7v160006INS_10__overloadINS_11__copy_loopINS_17_ClassicAlgPolicyEEENS_14__copy_trivialEEEPcS7_S7_Li0EEENS_4pairIT0_T2_EES9_T1_SA_, symObjAddr: 0xC7A8, symBinAddr: 0x1000102A8, symSize: 0xB4 }
  - { offsetInCU: 0x4408D, offset: 0x4408D, size: 0x8, addend: 0x0, symName: __ZNSt3__114__unwrap_rangeB7v160006IPcS1_EENS_4pairIT0_S3_EET_S5_, symObjAddr: 0xC85C, symBinAddr: 0x10001035C, symSize: 0x60 }
  - { offsetInCU: 0x441E2, offset: 0x441E2, size: 0x8, addend: 0x0, symName: __ZNSt3__113__unwrap_iterB7v160006IPcNS_18__unwrap_iter_implIS1_Lb1EEELi0EEEDTclsrT0_8__unwrapclsr3stdE7declvalIT_EEEES5_, symObjAddr: 0xC904, symBinAddr: 0x100010404, symSize: 0x24 }
  - { offsetInCU: 0x44229, offset: 0x44229, size: 0x8, addend: 0x0, symName: __ZNSt3__19make_pairB7v160006IPcS1_EENS_4pairINS_18__unwrap_ref_decayIT_E4typeENS3_IT0_E4typeEEEOS4_OS7_, symObjAddr: 0xC928, symBinAddr: 0x100010428, symSize: 0x38 }
  - { offsetInCU: 0x44279, offset: 0x44279, size: 0x8, addend: 0x0, symName: __ZNSt3__114__rewrap_rangeB7v160006IPcS1_EET_S2_T0_, symObjAddr: 0xC960, symBinAddr: 0x100010460, symSize: 0x2C }
  - { offsetInCU: 0x442CB, offset: 0x442CB, size: 0x8, addend: 0x0, symName: __ZNSt3__113__rewrap_iterB7v160006IPcS1_NS_18__unwrap_iter_implIS1_Lb1EEEEET_S4_T0_, symObjAddr: 0xC98C, symBinAddr: 0x10001048C, symSize: 0x3C }
  - { offsetInCU: 0x44326, offset: 0x44326, size: 0x8, addend: 0x0, symName: __ZNSt3__119__copy_trivial_implB7v160006IccEENS_4pairIPT_PT0_EES3_S3_S5_, symObjAddr: 0xC9C8, symBinAddr: 0x1000104C8, symSize: 0x7C }
  - { offsetInCU: 0x44397, offset: 0x44397, size: 0x8, addend: 0x0, symName: __ZNSt3__19make_pairB7v160006IRPcS1_EENS_4pairINS_18__unwrap_ref_decayIT_E4typeENS4_IT0_E4typeEEEOS5_OS8_, symObjAddr: 0xCA44, symBinAddr: 0x100010544, symSize: 0x38 }
  - { offsetInCU: 0x44441, offset: 0x44441, size: 0x8, addend: 0x0, symName: __ZNSt3__1miB7v160006IPK4StopS3_EEDTmicldtfp_4baseEcldtfp0_4baseEERKNS_11__wrap_iterIT_EERKNS5_IT0_EE, symObjAddr: 0xDC74, symBinAddr: 0x100011774, symSize: 0x48 }
  - { offsetInCU: 0x4448E, offset: 0x4448E, size: 0x8, addend: 0x0, symName: __ZNSt3__119__debug_db_insert_cB7v160006INS_6vectorIPK7RequestNS_9allocatorIS4_EEEEEEvPT_, symObjAddr: 0xE118, symBinAddr: 0x100011C18, symSize: 0x10 }
  - { offsetInCU: 0x444BF, offset: 0x444BF, size: 0x8, addend: 0x0, symName: __ZNSt3__142__uninitialized_allocator_move_if_noexceptB7v160006INS_9allocatorI5RouteEENS_16reverse_iteratorIPS2_EES6_S6_EET2_RT_T0_T1_S7_, symObjAddr: 0xF250, symBinAddr: 0x100012D50, symSize: 0x11C }
  - { offsetInCU: 0x44560, offset: 0x44560, size: 0x8, addend: 0x0, symName: __ZNSt3__14swapB7v160006IP5RouteEENS_9enable_ifIXaasr21is_move_constructibleIT_EE5valuesr18is_move_assignableIS4_EE5valueEvE4typeERS4_S7_, symObjAddr: 0xF36C, symBinAddr: 0x100012E6C, symSize: 0x3C }
  - { offsetInCU: 0x445B8, offset: 0x445B8, size: 0x8, addend: 0x0, symName: __ZNSt3__122__make_exception_guardB7v160006INS_29_AllocatorDestroyRangeReverseINS_9allocatorI5RouteEENS_16reverse_iteratorIPS3_EEEEEENS_28__exception_guard_exceptionsIT_EESA_, symObjAddr: 0xF3A8, symBinAddr: 0x100012EA8, symSize: 0x4C }
  - { offsetInCU: 0x445EF, offset: 0x445EF, size: 0x8, addend: 0x0, symName: __ZNSt3__115__debug_db_swapB7v160006INS_6vectorI4StopNS_9allocatorIS2_EEEEEEvPT_S7_, symObjAddr: 0xF70C, symBinAddr: 0x10001320C, symSize: 0x14 }
  - { offsetInCU: 0x4462E, offset: 0x4462E, size: 0x8, addend: 0x0, symName: __ZNSt3__119__allocator_destroyB7v160006INS_9allocatorI5RouteEENS_16reverse_iteratorINS4_IPS2_EEEES7_EEvRT_T0_T1_, symObjAddr: 0xF824, symBinAddr: 0x100013324, symSize: 0x70 }
  - { offsetInCU: 0x44693, offset: 0x44693, size: 0x8, addend: 0x0, symName: __ZNSt3__1neB7v160006INS_16reverse_iteratorIP5RouteEES4_EEbRKNS1_IT_EERKNS1_IT0_EE, symObjAddr: 0xF8D0, symBinAddr: 0x1000133D0, symSize: 0x60 }
  - { offsetInCU: 0x446DF, offset: 0x446DF, size: 0x8, addend: 0x0, symName: __ZNSt3__112__to_addressB7v160006INS_16reverse_iteratorINS1_IP5RouteEEEEvEENS_5decayIDTclsr19__to_address_helperIT_EE6__callclsr3stdE7declvalIRKS7_EEEEE4typeES9_, symObjAddr: 0xF930, symBinAddr: 0x100013430, symSize: 0x24 }
  - { offsetInCU: 0x4473E, offset: 0x4473E, size: 0x8, addend: 0x0, symName: __ZNSt3__142__uninitialized_allocator_move_if_noexceptB7v160006INS_9allocatorIcEENS_16reverse_iteratorIPcEES5_cvEET1_RT_T0_S9_S6_, symObjAddr: 0x101E8, symBinAddr: 0x100013CE8, symSize: 0x78 }
  - { offsetInCU: 0x447BD, offset: 0x447BD, size: 0x8, addend: 0x0, symName: __ZNSt3__14swapB7v160006IPcEENS_9enable_ifIXaasr21is_move_constructibleIT_EE5valuesr18is_move_assignableIS3_EE5valueEvE4typeERS3_S6_, symObjAddr: 0x10260, symBinAddr: 0x100013D60, symSize: 0x3C }
  - { offsetInCU: 0x44816, offset: 0x44816, size: 0x8, addend: 0x0, symName: __ZNSt3__14moveB7v160006INS_16reverse_iteratorIPcEES3_EET0_T_S5_S4_, symObjAddr: 0x1029C, symBinAddr: 0x100013D9C, symSize: 0x78 }
  - { offsetInCU: 0x44878, offset: 0x44878, size: 0x8, addend: 0x0, symName: __ZNSt3__16__moveB7v160006INS_17_ClassicAlgPolicyENS_16reverse_iteratorIPcEES4_S4_EENS_4pairIT0_T2_EES6_T1_S7_, symObjAddr: 0x10314, symBinAddr: 0x100013E14, symSize: 0x64 }
  - { offsetInCU: 0x448EC, offset: 0x448EC, size: 0x8, addend: 0x0, symName: __ZNSt3__123__dispatch_copy_or_moveB7v160006INS_17_ClassicAlgPolicyENS_11__move_loopIS1_EENS_14__move_trivialENS_16reverse_iteratorIPcEES7_S7_EENS_4pairIT2_T4_EES9_T3_SA_, symObjAddr: 0x10378, symBinAddr: 0x100013E78, symSize: 0x64 }
  - { offsetInCU: 0x44972, offset: 0x44972, size: 0x8, addend: 0x0, symName: __ZNSt3__121__unwrap_and_dispatchB7v160006INS_10__overloadINS_11__move_loopINS_17_ClassicAlgPolicyEEENS_14__move_trivialEEENS_16reverse_iteratorIPcEES9_S9_Li0EEENS_4pairIT0_T2_EESB_T1_SC_, symObjAddr: 0x103DC, symBinAddr: 0x100013EDC, symSize: 0x12C }
  - { offsetInCU: 0x44A0E, offset: 0x44A0E, size: 0x8, addend: 0x0, symName: __ZNSt3__114__unwrap_rangeB7v160006INS_16reverse_iteratorIPcEES3_EENS_4pairIT0_S5_EET_S7_, symObjAddr: 0x10508, symBinAddr: 0x100014008, symSize: 0x84 }
  - { offsetInCU: 0x44B34, offset: 0x44B34, size: 0x8, addend: 0x0, symName: __ZNSt3__113__unwrap_iterB7v160006INS_16reverse_iteratorIPcEENS_18__unwrap_iter_implIS3_Lb0EEELi0EEEDTclsrT0_8__unwrapclsr3stdE7declvalIT_EEEES7_, symObjAddr: 0x1062C, symBinAddr: 0x10001412C, symSize: 0x44 }
  - { offsetInCU: 0x44B7B, offset: 0x44B7B, size: 0x8, addend: 0x0, symName: __ZNSt3__19make_pairB7v160006INS_16reverse_iteratorIPcEES3_EENS_4pairINS_18__unwrap_ref_decayIT_E4typeENS5_IT0_E4typeEEEOS6_OS9_, symObjAddr: 0x10670, symBinAddr: 0x100014170, symSize: 0x38 }
  - { offsetInCU: 0x44BCB, offset: 0x44BCB, size: 0x8, addend: 0x0, symName: __ZNSt3__114__rewrap_rangeB7v160006INS_16reverse_iteratorIPcEES3_EET_S4_T0_, symObjAddr: 0x106A8, symBinAddr: 0x1000141A8, symSize: 0x5C }
  - { offsetInCU: 0x44C1D, offset: 0x44C1D, size: 0x8, addend: 0x0, symName: __ZNSt3__113__rewrap_iterB7v160006INS_16reverse_iteratorIPcEES3_NS_18__unwrap_iter_implIS3_Lb0EEEEET_S6_T0_, symObjAddr: 0x10704, symBinAddr: 0x100014204, symSize: 0x74 }
  - { offsetInCU: 0x44CEE, offset: 0x44CEE, size: 0x8, addend: 0x0, symName: __ZNSt3__112__to_addressB7v160006IPK7RequestEEPT_S5_, symObjAddr: 0x10CA8, symBinAddr: 0x1000147A8, symSize: 0x14 }
  - { offsetInCU: 0x44D24, offset: 0x44D24, size: 0x8, addend: 0x0, symName: __ZNSt3__119__allocate_at_leastB7v160006INS_9allocatorIPK7RequestEEEENS_19__allocation_resultINS_16allocator_traitsIT_E7pointerEEERS8_m, symObjAddr: 0x112AC, symBinAddr: 0x100014DAC, symSize: 0x40 }
  - { offsetInCU: 0x44D6C, offset: 0x44D6C, size: 0x8, addend: 0x0, symName: __ZNSt3__142__uninitialized_allocator_move_if_noexceptB7v160006INS_9allocatorIPK7RequestEENS_16reverse_iteratorIPS4_EES8_S4_vEET1_RT_T0_SC_S9_, symObjAddr: 0x11518, symBinAddr: 0x100015018, symSize: 0x78 }
  - { offsetInCU: 0x44DEB, offset: 0x44DEB, size: 0x8, addend: 0x0, symName: __ZNSt3__14swapB7v160006IPPK7RequestEENS_9enable_ifIXaasr21is_move_constructibleIT_EE5valuesr18is_move_assignableIS6_EE5valueEvE4typeERS6_S9_, symObjAddr: 0x115DC, symBinAddr: 0x1000150DC, symSize: 0x3C }
  - { offsetInCU: 0x44E44, offset: 0x44E44, size: 0x8, addend: 0x0, symName: __ZNSt3__125__debug_db_invalidate_allB7v160006INS_6vectorIPK7RequestNS_9allocatorIS4_EEEEEEvPT_, symObjAddr: 0x116C4, symBinAddr: 0x1000151C4, symSize: 0x10 }
  - { offsetInCU: 0x44E76, offset: 0x44E76, size: 0x8, addend: 0x0, symName: __ZNSt3__14moveB7v160006INS_16reverse_iteratorIPPK7RequestEES6_EET0_T_S8_S7_, symObjAddr: 0x1171C, symBinAddr: 0x10001521C, symSize: 0x78 }
  - { offsetInCU: 0x44ED8, offset: 0x44ED8, size: 0x8, addend: 0x0, symName: __ZNSt3__16__moveB7v160006INS_17_ClassicAlgPolicyENS_16reverse_iteratorIPPK7RequestEES7_S7_EENS_4pairIT0_T2_EES9_T1_SA_, symObjAddr: 0x11794, symBinAddr: 0x100015294, symSize: 0x64 }
  - { offsetInCU: 0x44F4C, offset: 0x44F4C, size: 0x8, addend: 0x0, symName: __ZNSt3__123__dispatch_copy_or_moveB7v160006INS_17_ClassicAlgPolicyENS_11__move_loopIS1_EENS_14__move_trivialENS_16reverse_iteratorIPPK7RequestEESA_SA_EENS_4pairIT2_T4_EESC_T3_SD_, symObjAddr: 0x117F8, symBinAddr: 0x1000152F8, symSize: 0x64 }
  - { offsetInCU: 0x44FD2, offset: 0x44FD2, size: 0x8, addend: 0x0, symName: __ZNSt3__121__unwrap_and_dispatchB7v160006INS_10__overloadINS_11__move_loopINS_17_ClassicAlgPolicyEEENS_14__move_trivialEEENS_16reverse_iteratorIPPK7RequestEESC_SC_Li0EEENS_4pairIT0_T2_EESE_T1_SF_, symObjAddr: 0x1185C, symBinAddr: 0x10001535C, symSize: 0x12C }
  - { offsetInCU: 0x4506E, offset: 0x4506E, size: 0x8, addend: 0x0, symName: __ZNSt3__114__unwrap_rangeB7v160006INS_16reverse_iteratorIPPK7RequestEES6_EENS_4pairIT0_S8_EET_SA_, symObjAddr: 0x11988, symBinAddr: 0x100015488, symSize: 0x84 }
  - { offsetInCU: 0x45194, offset: 0x45194, size: 0x8, addend: 0x0, symName: __ZNSt3__113__unwrap_iterB7v160006INS_16reverse_iteratorIPPK7RequestEENS_18__unwrap_iter_implIS6_Lb0EEELi0EEEDTclsrT0_8__unwrapclsr3stdE7declvalIT_EEEESA_, symObjAddr: 0x11AAC, symBinAddr: 0x1000155AC, symSize: 0x44 }
  - { offsetInCU: 0x451DB, offset: 0x451DB, size: 0x8, addend: 0x0, symName: __ZNSt3__19make_pairB7v160006INS_16reverse_iteratorIPPK7RequestEES6_EENS_4pairINS_18__unwrap_ref_decayIT_E4typeENS8_IT0_E4typeEEEOS9_OSC_, symObjAddr: 0x11AF0, symBinAddr: 0x1000155F0, symSize: 0x38 }
  - { offsetInCU: 0x4522B, offset: 0x4522B, size: 0x8, addend: 0x0, symName: __ZNSt3__114__rewrap_rangeB7v160006INS_16reverse_iteratorIPPK7RequestEES6_EET_S7_T0_, symObjAddr: 0x11B28, symBinAddr: 0x100015628, symSize: 0x5C }
  - { offsetInCU: 0x4527D, offset: 0x4527D, size: 0x8, addend: 0x0, symName: __ZNSt3__113__rewrap_iterB7v160006INS_16reverse_iteratorIPPK7RequestEES6_NS_18__unwrap_iter_implIS6_Lb0EEEEET_S9_T0_, symObjAddr: 0x11B84, symBinAddr: 0x100015684, symSize: 0x74 }
  - { offsetInCU: 0x452D7, offset: 0x452D7, size: 0x8, addend: 0x0, symName: __ZNSt3__1neB7v160006IPPK7RequestS4_EEbRKNS_16reverse_iteratorIT_EERKNS5_IT0_EE, symObjAddr: 0x11BF8, symBinAddr: 0x1000156F8, symSize: 0x48 }
  - { offsetInCU: 0x4539A, offset: 0x4539A, size: 0x8, addend: 0x0, symName: __ZNSt3__115__debug_db_swapB7v160006INS_6vectorI5RouteNS_9allocatorIS2_EEEEEEvPT_S7_, symObjAddr: 0x1217C, symBinAddr: 0x100015C7C, symSize: 0x14 }
  - { offsetInCU: 0x453DA, offset: 0x453DA, size: 0x8, addend: 0x0, symName: __ZNSt3__115__debug_db_swapB7v160006INS_6vectorIcNS_9allocatorIcEEEEEEvPT_S6_, symObjAddr: 0x122A0, symBinAddr: 0x100015DA0, symSize: 0x14 }
  - { offsetInCU: 0x4541A, offset: 0x4541A, size: 0x8, addend: 0x0, symName: __ZNSt3__118__debug_db_erase_cB7v160006INS_6vectorIPK7RequestNS_9allocatorIS4_EEEEEEvPT_, symObjAddr: 0x12420, symBinAddr: 0x100015F20, symSize: 0x10 }
  - { offsetInCU: 0x454B5, offset: 0x454B5, size: 0x8, addend: 0x0, symName: __ZNSt3__116forward_as_tupleB7v160006IJRKNS_12basic_stringIcNS_11char_traitsIcEENS_9allocatorIcEEEEEEENS_5tupleIJDpOT_EEESC_, symObjAddr: 0x12F9C, symBinAddr: 0x100016A9C, symSize: 0x2C }
  - { offsetInCU: 0x454EF, offset: 0x454EF, size: 0x8, addend: 0x0, symName: __ZNSt3__116forward_as_tupleB7v160006IJEEENS_5tupleIJDpOT_EEES4_, symObjAddr: 0x12FC8, symBinAddr: 0x100016AC8, symSize: 0x4 }
  - { offsetInCU: 0x45513, offset: 0x45513, size: 0x8, addend: 0x0, symName: __ZNSt3__1ltB7v160006IcNS_11char_traitsIcEENS_9allocatorIcEEEEbRKNS_12basic_stringIT_T0_T1_EESB_, symObjAddr: 0x13694, symBinAddr: 0x100017194, symSize: 0x38 }
  - { offsetInCU: 0x45593, offset: 0x45593, size: 0x8, addend: 0x0, symName: __ZNSt3__118__constexpr_memcmpB7v160006IcEEiPKT_S3_m, symObjAddr: 0x13A78, symBinAddr: 0x100017578, symSize: 0x34 }
  - { offsetInCU: 0x455E5, offset: 0x455E5, size: 0x8, addend: 0x0, symName: __ZNSt3__112__to_addressB7v160006IKcEEPT_S3_, symObjAddr: 0x13AAC, symBinAddr: 0x1000175AC, symSize: 0x14 }
  - { offsetInCU: 0x4564D, offset: 0x4564D, size: 0x8, addend: 0x0, symName: __ZNSt3__17launderB7v160006IKNS_4pairIKNS_12basic_stringIcNS_11char_traitsIcEENS_9allocatorIcEEEE9ParameterEEEEPT_SD_, symObjAddr: 0x13C04, symBinAddr: 0x100017704, symSize: 0x24 }
  - { offsetInCU: 0x45685, offset: 0x45685, size: 0x8, addend: 0x0, symName: __ZNSt3__19__launderB7v160006IKNS_4pairIKNS_12basic_stringIcNS_11char_traitsIcEENS_9allocatorIcEEEE9ParameterEEEEPT_SD_, symObjAddr: 0x13C28, symBinAddr: 0x100017728, symSize: 0x14 }
  - { offsetInCU: 0x456E6, offset: 0x456E6, size: 0x8, addend: 0x0, symName: __ZNSt3__13getB7v160006ILm0EJRKNS_12basic_stringIcNS_11char_traitsIcEENS_9allocatorIcEEEEEEERNS_13tuple_elementIXT_ENS_5tupleIJDpT0_EEEE4typeERSD_, symObjAddr: 0x1410C, symBinAddr: 0x100017C0C, symSize: 0x24 }
  - { offsetInCU: 0x45729, offset: 0x45729, size: 0x8, addend: 0x0, symName: __ZNSt3__127__tree_balance_after_insertB7v160006IPNS_16__tree_node_baseIPvEEEEvT_S5_, symObjAddr: 0x14214, symBinAddr: 0x100017D14, symSize: 0x32C }
  - { offsetInCU: 0x457A6, offset: 0x457A6, size: 0x8, addend: 0x0, symName: __ZNSt3__120__tree_is_left_childB7v160006IPNS_16__tree_node_baseIPvEEEEbT_, symObjAddr: 0x14580, symBinAddr: 0x100018080, symSize: 0x2C }
  - { offsetInCU: 0x457DB, offset: 0x457DB, size: 0x8, addend: 0x0, symName: __ZNSt3__118__tree_left_rotateB7v160006IPNS_16__tree_node_baseIPvEEEEvT_, symObjAddr: 0x145AC, symBinAddr: 0x1000180AC, symSize: 0xD8 }
  - { offsetInCU: 0x4581D, offset: 0x4581D, size: 0x8, addend: 0x0, symName: __ZNSt3__119__tree_right_rotateB7v160006IPNS_16__tree_node_baseIPvEEEEvT_, symObjAddr: 0x14684, symBinAddr: 0x100018184, symSize: 0xCC }
  - { offsetInCU: 0x458BA, offset: 0x458BA, size: 0x8, addend: 0x0, symName: __ZNSt3__17launderB7v160006INS_4pairIKNS_12basic_stringIcNS_11char_traitsIcEENS_9allocatorIcEEEE9ParameterEEEEPT_SC_, symObjAddr: 0x14B98, symBinAddr: 0x100018698, symSize: 0x24 }
  - { offsetInCU: 0x458F2, offset: 0x458F2, size: 0x8, addend: 0x0, symName: __ZNSt3__19__launderB7v160006INS_4pairIKNS_12basic_stringIcNS_11char_traitsIcEENS_9allocatorIcEEEE9ParameterEEEEPT_SC_, symObjAddr: 0x14BBC, symBinAddr: 0x1000186BC, symSize: 0x14 }
  - { offsetInCU: 0x4595C, offset: 0x4595C, size: 0x8, addend: 0x0, symName: __ZNSt3__111make_uniqueB7v160006I13RandomRemovalJRKS1_EEENS_11__unique_ifIT_E15__unique_singleEDpOT0_, symObjAddr: 0x15434, symBinAddr: 0x100018F34, symSize: 0x6C }
  - { offsetInCU: 0x4599E, offset: 0x4599E, size: 0x8, addend: 0x0, symName: __ZNSt3__1neB7v160006ERKNS_20__map_const_iteratorINS_21__tree_const_iteratorINS_12__value_typeINS_12basic_stringIcNS_11char_traitsIcEENS_9allocatorIcEEEE9ParameterEEPNS_11__tree_nodeISA_PvEElEEEESI_, symObjAddr: 0x15A58, symBinAddr: 0x100019558, symSize: 0x30 }
  - { offsetInCU: 0x459DB, offset: 0x459DB, size: 0x8, addend: 0x0, symName: __ZNSt3__1neB7v160006ERKNS_21__tree_const_iteratorINS_12__value_typeINS_12basic_stringIcNS_11char_traitsIcEENS_9allocatorIcEEEE9ParameterEEPNS_11__tree_nodeIS9_PvEElEESG_, symObjAddr: 0x15B60, symBinAddr: 0x100019660, symSize: 0x34 }
  - { offsetInCU: 0x45A19, offset: 0x45A19, size: 0x8, addend: 0x0, symName: __ZNSt3__1eqB7v160006ERKNS_21__tree_const_iteratorINS_12__value_typeINS_12basic_stringIcNS_11char_traitsIcEENS_9allocatorIcEEEE9ParameterEEPNS_11__tree_nodeIS9_PvEElEESG_, symObjAddr: 0x15B94, symBinAddr: 0x100019694, symSize: 0x30 }
  - { offsetInCU: 0x45A7F, offset: 0x45A7F, size: 0x8, addend: 0x0, symName: __ZNSt3__14nextB7v160006INS_21__tree_const_iteratorINS_12__value_typeINS_12basic_stringIcNS_11char_traitsIcEENS_9allocatorIcEEEE9ParameterEEPNS_11__tree_nodeISA_PvEElEEEENS_9enable_ifIXsr25__is_cpp17_input_iteratorIT_EE5valueESH_E4typeESH_NS_15iterator_traitsISH_E15difference_typeE, symObjAddr: 0x16284, symBinAddr: 0x100019D84, symSize: 0x50 }
  - { offsetInCU: 0x45AC7, offset: 0x45AC7, size: 0x8, addend: 0x0, symName: __ZNSt3__116__tree_prev_iterB7v160006IPNS_16__tree_node_baseIPvEEPNS_15__tree_end_nodeIS4_EEEET_T0_, symObjAddr: 0x16360, symBinAddr: 0x100019E60, symSize: 0x88 }
  - { offsetInCU: 0x45B14, offset: 0x45B14, size: 0x8, addend: 0x0, symName: __ZNSt3__110__tree_maxB7v160006IPNS_16__tree_node_baseIPvEEEET_S5_, symObjAddr: 0x163E8, symBinAddr: 0x100019EE8, symSize: 0x40 }
  - { offsetInCU: 0x45B4A, offset: 0x45B4A, size: 0x8, addend: 0x0, symName: __ZNSt3__121__convert_to_integralB7v160006El, symObjAddr: 0x16478, symBinAddr: 0x100019F78, symSize: 0x14 }
  - { offsetInCU: 0x45B76, offset: 0x45B76, size: 0x8, addend: 0x0, symName: __ZNSt3__19__advanceB7v160006INS_21__tree_const_iteratorINS_12__value_typeINS_12basic_stringIcNS_11char_traitsIcEENS_9allocatorIcEEEE9ParameterEEPNS_11__tree_nodeISA_PvEElEEEEvRT_NS_15iterator_traitsISG_E15difference_typeENS_26bidirectional_iterator_tagE, symObjAddr: 0x1648C, symBinAddr: 0x100019F8C, symSize: 0xA4 }
  - { offsetInCU: 0x45BC0, offset: 0x45BC0, size: 0x8, addend: 0x0, symName: __ZNSt3__116__tree_next_iterB7v160006IPNS_15__tree_end_nodeIPNS_16__tree_node_baseIPvEEEES5_EET_T0_, symObjAddr: 0x16568, symBinAddr: 0x10001A068, symSize: 0x80 }
  - { offsetInCU: 0x45BFF, offset: 0x45BFF, size: 0x8, addend: 0x0, symName: __ZNSt3__110__tree_minB7v160006IPNS_16__tree_node_baseIPvEEEET_S5_, symObjAddr: 0x165E8, symBinAddr: 0x10001A0E8, symSize: 0x40 }
  - { offsetInCU: 0x45C67, offset: 0x45C67, size: 0x8, addend: 0x0, symName: __ZNSt3__111make_uniqueB7v160006I17insert_w_transferJRKS1_EEENS_11__unique_ifIT_E15__unique_singleEDpOT0_, symObjAddr: 0x17C28, symBinAddr: 0x10001B728, symSize: 0x44 }
  - { offsetInCU: 0x45CA9, offset: 0x45CA9, size: 0x8, addend: 0x0, symName: __ZNSt3__14sortB7v160006INS_11__wrap_iterIPNS_4pairIPK7RequestdEEEEZN11ShawRemoval16destroy_solutionER15PDPTWT_solutionRNS_23mersenne_twister_engineIjLm32ELm624ELm397ELm31ELj2567483615ELm11ELj4294967295ELm7ELj2636928640ELm15ELj4022730752ELm18ELj1812433253EEEEUlRT_RT0_E_EEvSF_SF_SH_, symObjAddr: 0x18E04, symBinAddr: 0x10001C904, symSize: 0x40 }
  - { offsetInCU: 0x45D04, offset: 0x45D04, size: 0x8, addend: 0x0, symName: __ZNSt3__13maxB7v160006IiEERKT_S3_S3_, symObjAddr: 0x18EA4, symBinAddr: 0x10001C9A4, symSize: 0x2C }
  - { offsetInCU: 0x45D4C, offset: 0x45D4C, size: 0x8, addend: 0x0, symName: __ZNSt3__13getB7v160006ILm0EPK7RequestdEERNS_13tuple_elementIXT_ENS_4pairIT0_T1_EEE4typeERS8_, symObjAddr: 0x18EF8, symBinAddr: 0x10001C9F8, symSize: 0x24 }
  - { offsetInCU: 0x45D97, offset: 0x45D97, size: 0x8, addend: 0x0, symName: __ZNSt3__119__debug_db_insert_cB7v160006INS_6vectorINS_4pairIPK7RequestdEENS_9allocatorIS6_EEEEEEvPT_, symObjAddr: 0x1903C, symBinAddr: 0x10001CB3C, symSize: 0x10 }
  - { offsetInCU: 0x45DC9, offset: 0x45DC9, size: 0x8, addend: 0x0, symName: __ZNSt3__119__allocate_at_leastB7v160006INS_9allocatorINS_4pairIPK7RequestdEEEEEENS_19__allocation_resultINS_16allocator_traitsIT_E7pointerEEERSA_m, symObjAddr: 0x195C0, symBinAddr: 0x10001D0C0, symSize: 0x40 }
  - { offsetInCU: 0x45E11, offset: 0x45E11, size: 0x8, addend: 0x0, symName: __ZNSt3__142__uninitialized_allocator_move_if_noexceptB7v160006INS_9allocatorINS_4pairIPK7RequestdEEEENS_16reverse_iteratorIPS6_EESA_SA_EET2_RT_T0_T1_SB_, symObjAddr: 0x19840, symBinAddr: 0x10001D340, symSize: 0x12C }
  - { offsetInCU: 0x45EB2, offset: 0x45EB2, size: 0x8, addend: 0x0, symName: __ZNSt3__14swapB7v160006IPNS_4pairIPK7RequestdEEEENS_9enable_ifIXaasr21is_move_constructibleIT_EE5valuesr18is_move_assignableIS8_EE5valueEvE4typeERS8_SB_, symObjAddr: 0x199B8, symBinAddr: 0x10001D4B8, symSize: 0x3C }
  - { offsetInCU: 0x45F0B, offset: 0x45F0B, size: 0x8, addend: 0x0, symName: __ZNSt3__125__debug_db_invalidate_allB7v160006INS_6vectorINS_4pairIPK7RequestdEENS_9allocatorIS6_EEEEEEvPT_, symObjAddr: 0x19AC8, symBinAddr: 0x10001D5C8, symSize: 0x10 }
  - { offsetInCU: 0x45F3D, offset: 0x45F3D, size: 0x8, addend: 0x0, symName: __ZNSt3__112__to_addressB7v160006INS_4pairIPK7RequestdEEEEPT_S7_, symObjAddr: 0x19B20, symBinAddr: 0x10001D620, symSize: 0x14 }
  - { offsetInCU: 0x45F72, offset: 0x45F72, size: 0x8, addend: 0x0, symName: __ZNSt3__122__make_exception_guardB7v160006INS_29_AllocatorDestroyRangeReverseINS_9allocatorINS_4pairIPK7RequestdEEEENS_16reverse_iteratorIPS7_EEEEEENS_28__exception_guard_exceptionsIT_EESE_, symObjAddr: 0x19B34, symBinAddr: 0x10001D634, symSize: 0x4C }
  - { offsetInCU: 0x45FA8, offset: 0x45FA8, size: 0x8, addend: 0x0, symName: __ZNSt3__1neB7v160006IPNS_4pairIPK7RequestdEES6_EEbRKNS_16reverse_iteratorIT_EERKNS7_IT0_EE, symObjAddr: 0x19BC4, symBinAddr: 0x10001D6C4, symSize: 0x48 }
  - { offsetInCU: 0x45FF4, offset: 0x45FF4, size: 0x8, addend: 0x0, symName: __ZNSt3__112__to_addressB7v160006INS_16reverse_iteratorIPNS_4pairIPK7RequestdEEEEvEENS_5decayIDTclsr19__to_address_helperIT_EE6__callclsr3stdE7declvalIRKSA_EEEEE4typeESC_, symObjAddr: 0x19C40, symBinAddr: 0x10001D740, symSize: 0x24 }
  - { offsetInCU: 0x46053, offset: 0x46053, size: 0x8, addend: 0x0, symName: __ZNSt3__119__allocator_destroyB7v160006INS_9allocatorINS_4pairIPK7RequestdEEEENS_16reverse_iteratorINS8_IPS6_EEEESB_EEvRT_T0_T1_, symObjAddr: 0x19F18, symBinAddr: 0x10001DA18, symSize: 0x70 }
  - { offsetInCU: 0x460B8, offset: 0x460B8, size: 0x8, addend: 0x0, symName: __ZNSt3__1neB7v160006INS_16reverse_iteratorIPNS_4pairIPK7RequestdEEEES8_EEbRKNS1_IT_EERKNS1_IT0_EE, symObjAddr: 0x19FC4, symBinAddr: 0x10001DAC4, symSize: 0x60 }
  - { offsetInCU: 0x46104, offset: 0x46104, size: 0x8, addend: 0x0, symName: __ZNSt3__112__to_addressB7v160006INS_16reverse_iteratorINS1_IPNS_4pairIPK7RequestdEEEEEEvEENS_5decayIDTclsr19__to_address_helperIT_EE6__callclsr3stdE7declvalIRKSB_EEEEE4typeESD_, symObjAddr: 0x1A050, symBinAddr: 0x10001DB50, symSize: 0x24 }
  - { offsetInCU: 0x46163, offset: 0x46163, size: 0x8, addend: 0x0, symName: __ZNSt3__111__sort_implB7v160006INS_17_ClassicAlgPolicyENS_11__wrap_iterIPNS_4pairIPK7RequestdEEEEZN11ShawRemoval16destroy_solutionER15PDPTWT_solutionRNS_23mersenne_twister_engineIjLm32ELm624ELm397ELm31ELj2567483615ELm11ELj4294967295ELm7ELj2636928640ELm15ELj4022730752ELm18ELj1812433253EEEEUlRT_RT0_E_EEvSI_SI_RT1_, symObjAddr: 0x1A780, symBinAddr: 0x10001E280, symSize: 0x84 }
  - { offsetInCU: 0x4620B, offset: 0x4620B, size: 0x8, addend: 0x0, symName: __ZNSt3__123__debug_randomize_rangeB7v160006INS_17_ClassicAlgPolicyENS_11__wrap_iterIPNS_4pairIPK7RequestdEEEES9_EEvT0_T1_, symObjAddr: 0x1A804, symBinAddr: 0x10001E304, symSize: 0x14 }
  - { offsetInCU: 0x46261, offset: 0x46261, size: 0x8, addend: 0x0, symName: __ZNSt3__16__sortIRZN11ShawRemoval16destroy_solutionER15PDPTWT_solutionRNS_23mersenne_twister_engineIjLm32ELm624ELm397ELm31ELj2567483615ELm11ELj4294967295ELm7ELj2636928640ELm15ELj4022730752ELm18ELj1812433253EEEEUlRT_RT0_E_PNS_4pairIPK7RequestdEEEEvS9_S9_S7_, symObjAddr: 0x1A818, symBinAddr: 0x10001E318, symSize: 0x68 }
  - { offsetInCU: 0x462F2, offset: 0x462F2, size: 0x8, addend: 0x0, symName: __ZNSt3__113__unwrap_iterB7v160006INS_11__wrap_iterIPNS_4pairIPK7RequestdEEEENS_18__unwrap_iter_implIS8_Lb1EEELi0EEEDTclsrT0_8__unwrapclsr3stdE7declvalIT_EEEESC_, symObjAddr: 0x1A880, symBinAddr: 0x10001E380, symSize: 0x2C }
  - { offsetInCU: 0x46339, offset: 0x46339, size: 0x8, addend: 0x0, symName: __ZNSt3__17__log2iB7v160006IlEET_S1_, symObjAddr: 0x1A8AC, symBinAddr: 0x10001E3AC, symSize: 0x54 }
  - { offsetInCU: 0x463A4, offset: 0x463A4, size: 0x8, addend: 0x0, symName: __ZNSt3__112__libcpp_clzB7v160006Em, symObjAddr: 0x1AFE4, symBinAddr: 0x10001EAE4, symSize: 0x1C }
  - { offsetInCU: 0x463D3, offset: 0x463D3, size: 0x8, addend: 0x0, symName: __ZNSt3__124__sort3_maybe_branchlessB7v160006INS_17_ClassicAlgPolicyERZN11ShawRemoval16destroy_solutionER15PDPTWT_solutionRNS_23mersenne_twister_engineIjLm32ELm624ELm397ELm31ELj2567483615ELm11ELj4294967295ELm7ELj2636928640ELm15ELj4022730752ELm18ELj1812433253EEEEUlRT_RT0_E_PNS_4pairIPK7RequestdEEEENS_9enable_ifIXntsr21__use_branchless_sortISA_T1_EE5valueEvE4typeESL_SL_SL_SA_, symObjAddr: 0x1B068, symBinAddr: 0x10001EB68, symSize: 0x3C }
  - { offsetInCU: 0x46444, offset: 0x46444, size: 0x8, addend: 0x0, symName: __ZNSt3__124__sort4_maybe_branchlessB7v160006INS_17_ClassicAlgPolicyERZN11ShawRemoval16destroy_solutionER15PDPTWT_solutionRNS_23mersenne_twister_engineIjLm32ELm624ELm397ELm31ELj2567483615ELm11ELj4294967295ELm7ELj2636928640ELm15ELj4022730752ELm18ELj1812433253EEEEUlRT_RT0_E_PNS_4pairIPK7RequestdEEEENS_9enable_ifIXntsr21__use_branchless_sortISA_T1_EE5valueEvE4typeESL_SL_SL_SL_SA_, symObjAddr: 0x1B0A4, symBinAddr: 0x10001EBA4, symSize: 0x44 }
  - { offsetInCU: 0x464C9, offset: 0x464C9, size: 0x8, addend: 0x0, symName: __ZNSt3__124__sort5_maybe_branchlessB7v160006INS_17_ClassicAlgPolicyERZN11ShawRemoval16destroy_solutionER15PDPTWT_solutionRNS_23mersenne_twister_engineIjLm32ELm624ELm397ELm31ELj2567483615ELm11ELj4294967295ELm7ELj2636928640ELm15ELj4022730752ELm18ELj1812433253EEEEUlRT_RT0_E_PNS_4pairIPK7RequestdEEEENS_9enable_ifIXntsr21__use_branchless_sortISA_T1_EE5valueEvE4typeESL_SL_SL_SL_SL_SA_, symObjAddr: 0x1B0E8, symBinAddr: 0x10001EBE8, symSize: 0x4C }
  - { offsetInCU: 0x4655E, offset: 0x4655E, size: 0x8, addend: 0x0, symName: __ZNSt3__114__partial_sortB7v160006INS_17_ClassicAlgPolicyERZN11ShawRemoval16destroy_solutionER15PDPTWT_solutionRNS_23mersenne_twister_engineIjLm32ELm624ELm397ELm31ELj2567483615ELm11ELj4294967295ELm7ELj2636928640ELm15ELj4022730752ELm18ELj1812433253EEEEUlRT_RT0_E_PNS_4pairIPK7RequestdEESJ_EET1_SK_SK_T2_SB_, symObjAddr: 0x1B278, symBinAddr: 0x10001ED78, symSize: 0x94 }
  - { offsetInCU: 0x465F1, offset: 0x465F1, size: 0x8, addend: 0x0, symName: __ZNSt3__119__sort5_wrap_policyB7v160006INS_17_ClassicAlgPolicyERZN11ShawRemoval16destroy_solutionER15PDPTWT_solutionRNS_23mersenne_twister_engineIjLm32ELm624ELm397ELm31ELj2567483615ELm11ELj4294967295ELm7ELj2636928640ELm15ELj4022730752ELm18ELj1812433253EEEEUlRT_RT0_E_PNS_4pairIPK7RequestdEEEEjT1_SK_SK_SK_SK_SA_, symObjAddr: 0x1B30C, symBinAddr: 0x10001EE0C, symSize: 0x54 }
  - { offsetInCU: 0x46697, offset: 0x46697, size: 0x8, addend: 0x0, symName: __ZNSt3__17__sort3B7v160006INS_17_ClassicAlgPolicyERZN11ShawRemoval16destroy_solutionER15PDPTWT_solutionRNS_23mersenne_twister_engineIjLm32ELm624ELm397ELm31ELj2567483615ELm11ELj4294967295ELm7ELj2636928640ELm15ELj4022730752ELm18ELj1812433253EEEEUlRT_RT0_E_PNS_4pairIPK7RequestdEEEEjT1_SK_SK_SA_, symObjAddr: 0x1B360, symBinAddr: 0x10001EE60, symSize: 0x144 }
  - { offsetInCU: 0x46717, offset: 0x46717, size: 0x8, addend: 0x0, symName: __ZNSt3__19iter_swapB7v160006IPNS_4pairIPK7RequestdEES6_EEvT_T0_, symObjAddr: 0x1B7CC, symBinAddr: 0x10001F2CC, symSize: 0x2C }
  - { offsetInCU: 0x46764, offset: 0x46764, size: 0x8, addend: 0x0, symName: __ZNSt3__14swapB7v160006IPK7RequestdEENS_9enable_ifIXaasr14__is_swappableIT_EE5valuesr14__is_swappableIT0_EE5valueEvE4typeERNS_4pairIS5_S6_EESB_, symObjAddr: 0x1B7F8, symBinAddr: 0x10001F2F8, symSize: 0x2C }
  - { offsetInCU: 0x467B4, offset: 0x467B4, size: 0x8, addend: 0x0, symName: __ZNSt3__14swapB7v160006IPK7RequestEENS_9enable_ifIXaasr21is_move_constructibleIT_EE5valuesr18is_move_assignableIS5_EE5valueEvE4typeERS5_S8_, symObjAddr: 0x1B868, symBinAddr: 0x10001F368, symSize: 0x3C }
  - { offsetInCU: 0x4680D, offset: 0x4680D, size: 0x8, addend: 0x0, symName: __ZNSt3__14swapB7v160006IdEENS_9enable_ifIXaasr21is_move_constructibleIT_EE5valuesr18is_move_assignableIS2_EE5valueEvE4typeERS2_S5_, symObjAddr: 0x1B8A4, symBinAddr: 0x10001F3A4, symSize: 0x3C }
  - { offsetInCU: 0x46865, offset: 0x46865, size: 0x8, addend: 0x0, symName: __ZNSt3__17__sort4B7v160006INS_17_ClassicAlgPolicyERZN11ShawRemoval16destroy_solutionER15PDPTWT_solutionRNS_23mersenne_twister_engineIjLm32ELm624ELm397ELm31ELj2567483615ELm11ELj4294967295ELm7ELj2636928640ELm15ELj4022730752ELm18ELj1812433253EEEEUlRT_RT0_E_PNS_4pairIPK7RequestdEEEEjT1_SK_SK_SK_SA_, symObjAddr: 0x1B8E0, symBinAddr: 0x10001F3E0, symSize: 0xE4 }
  - { offsetInCU: 0x4691B, offset: 0x4691B, size: 0x8, addend: 0x0, symName: __ZNSt3__123__debug_randomize_rangeB7v160006INS_17_ClassicAlgPolicyEPNS_4pairIPK7RequestdEES7_EEvT0_T1_, symObjAddr: 0x1BA38, symBinAddr: 0x10001F538, symSize: 0x14 }
  - { offsetInCU: 0x46972, offset: 0x46972, size: 0x8, addend: 0x0, symName: __ZNSt3__119__partial_sort_implB7v160006INS_17_ClassicAlgPolicyERZN11ShawRemoval16destroy_solutionER15PDPTWT_solutionRNS_23mersenne_twister_engineIjLm32ELm624ELm397ELm31ELj2567483615ELm11ELj4294967295ELm7ELj2636928640ELm15ELj4022730752ELm18ELj1812433253EEEEUlRT_RT0_E_PNS_4pairIPK7RequestdEESJ_EET1_SK_SK_T2_OSA_, symObjAddr: 0x1BA4C, symBinAddr: 0x10001F54C, symSize: 0x110 }
  - { offsetInCU: 0x46A16, offset: 0x46A16, size: 0x8, addend: 0x0, symName: __ZNSt3__111__make_heapB7v160006INS_17_ClassicAlgPolicyERZN11ShawRemoval16destroy_solutionER15PDPTWT_solutionRNS_23mersenne_twister_engineIjLm32ELm624ELm397ELm31ELj2567483615ELm11ELj4294967295ELm7ELj2636928640ELm15ELj4022730752ELm18ELj1812433253EEEEUlRT_RT0_E_PNS_4pairIPK7RequestdEEEEvT1_SK_OSA_, symObjAddr: 0x1BB5C, symBinAddr: 0x10001F65C, symSize: 0xB8 }
  - { offsetInCU: 0x46AC8, offset: 0x46AC8, size: 0x8, addend: 0x0, symName: __ZNSt3__111__sort_heapB7v160006INS_17_ClassicAlgPolicyERZN11ShawRemoval16destroy_solutionER15PDPTWT_solutionRNS_23mersenne_twister_engineIjLm32ELm624ELm397ELm31ELj2567483615ELm11ELj4294967295ELm7ELj2636928640ELm15ELj4022730752ELm18ELj1812433253EEEEUlRT_RT0_E_PNS_4pairIPK7RequestdEEEEvT1_SK_OSA_, symObjAddr: 0x1BE20, symBinAddr: 0x10001F920, symSize: 0x90 }
  - { offsetInCU: 0x46B6A, offset: 0x46B6A, size: 0x8, addend: 0x0, symName: __ZNSt3__110__pop_heapB7v160006INS_17_ClassicAlgPolicyEZN11ShawRemoval16destroy_solutionER15PDPTWT_solutionRNS_23mersenne_twister_engineIjLm32ELm624ELm397ELm31ELj2567483615ELm11ELj4294967295ELm7ELj2636928640ELm15ELj4022730752ELm18ELj1812433253EEEEUlRT_RT0_E_PNS_4pairIPK7RequestdEEEEvT1_SJ_SB_NS_15iterator_traitsISJ_E15difference_typeE, symObjAddr: 0x1BEB0, symBinAddr: 0x10001F9B0, symSize: 0xF4 }
  - { offsetInCU: 0x46C2C, offset: 0x46C2C, size: 0x8, addend: 0x0, symName: __ZNSt3__19__sift_upB7v160006INS_17_ClassicAlgPolicyERZN11ShawRemoval16destroy_solutionER15PDPTWT_solutionRNS_23mersenne_twister_engineIjLm32ELm624ELm397ELm31ELj2567483615ELm11ELj4294967295ELm7ELj2636928640ELm15ELj4022730752ELm18ELj1812433253EEEEUlRT_RT0_E_PNS_4pairIPK7RequestdEEEEvT1_SK_OSA_NS_15iterator_traitsISK_E15difference_typeE, symObjAddr: 0x1C0A4, symBinAddr: 0x10001FBA4, symSize: 0x11C }
  - { offsetInCU: 0x46CEB, offset: 0x46CEB, size: 0x8, addend: 0x0, symName: __ZNSt3__17__sort5IRZN11ShawRemoval16destroy_solutionER15PDPTWT_solutionRNS_23mersenne_twister_engineIjLm32ELm624ELm397ELm31ELj2567483615ELm11ELj4294967295ELm7ELj2636928640ELm15ELj4022730752ELm18ELj1812433253EEEEUlRT_RT0_E_PNS_4pairIPK7RequestdEEEEjS9_S9_S9_S9_S9_S7_, symObjAddr: 0x1C1C0, symBinAddr: 0x10001FCC0, symSize: 0x12C }
  - { offsetInCU: 0x46DF1, offset: 0x46DF1, size: 0x8, addend: 0x0, symName: __ZNSt3__112__to_addressB7v160006INS_11__wrap_iterIPNS_4pairIPK7RequestdEEEEvEENS_5decayIDTclsr19__to_address_helperIT_EE6__callclsr3stdE7declvalIRKSA_EEEEE4typeESC_, symObjAddr: 0x1C314, symBinAddr: 0x10001FE14, symSize: 0x24 }
  - { offsetInCU: 0x46ED1, offset: 0x46ED1, size: 0x8, addend: 0x0, symName: __ZNSt3__13maxB7v160006IiNS_6__lessIiiEEEERKT_S5_S5_T0_, symObjAddr: 0x1C440, symBinAddr: 0x10001FF40, symSize: 0x54 }
  - { offsetInCU: 0x46FAF, offset: 0x46FAF, size: 0x8, addend: 0x0, symName: __ZNSt3__120__throw_out_of_rangeB7v160006EPKc, symObjAddr: 0x1C4F8, symBinAddr: 0x10001FFF8, symSize: 0x64 }
  - { offsetInCU: 0x46FDA, offset: 0x46FDA, size: 0x8, addend: 0x0, symName: __ZNSt3__118__debug_db_erase_cB7v160006INS_6vectorINS_4pairIPK7RequestdEENS_9allocatorIS6_EEEEEEvPT_, symObjAddr: 0x1C710, symBinAddr: 0x100020210, symSize: 0x10 }
  - { offsetInCU: 0x4700B, offset: 0x4700B, size: 0x8, addend: 0x0, symName: __ZNSt3__111make_uniqueB7v160006I11ShawRemovalJRKS1_EEENS_11__unique_ifIT_E15__unique_singleEDpOT0_, symObjAddr: 0x1C7D4, symBinAddr: 0x1000202D4, symSize: 0x6C }
  - { offsetInCU: 0x4704D, offset: 0x4704D, size: 0x8, addend: 0x0, symName: __ZNSt3__14sortB7v160006INS_11__wrap_iterIPZN12WorstRemoval16destroy_solutionER15PDPTWT_solutionRNS_23mersenne_twister_engineIjLm32ELm624ELm397ELm31ELj2567483615ELm11ELj4294967295ELm7ELj2636928640ELm15ELj4022730752ELm18ELj1812433253EEEE11RequestCostEEZNS2_16destroy_solutionES4_S7_EUlRKS8_SC_E_EEvT_SE_T0_, symObjAddr: 0x1D27C, symBinAddr: 0x100020D7C, symSize: 0x40 }
  - { offsetInCU: 0x47281, offset: 0x47281, size: 0x8, addend: 0x0, symName: __ZNSt3__119__debug_db_insert_cB7v160006INS_6vectorIZN12WorstRemoval16destroy_solutionER15PDPTWT_solutionRNS_23mersenne_twister_engineIjLm32ELm624ELm397ELm31ELj2567483615ELm11ELj4294967295ELm7ELj2636928640ELm15ELj4022730752ELm18ELj1812433253EEEE11RequestCostNS_9allocatorIS8_EEEEEEvPT_, symObjAddr: 0x1D5B0, symBinAddr: 0x1000210B0, symSize: 0x10 }
  - { offsetInCU: 0x472B3, offset: 0x472B3, size: 0x8, addend: 0x0, symName: __ZNSt3__112__to_addressB7v160006IZN12WorstRemoval16destroy_solutionER15PDPTWT_solutionRNS_23mersenne_twister_engineIjLm32ELm624ELm397ELm31ELj2567483615ELm11ELj4294967295ELm7ELj2636928640ELm15ELj4022730752ELm18ELj1812433253EEEE11RequestCostEEPT_S9_, symObjAddr: 0x1D8E8, symBinAddr: 0x1000213E8, symSize: 0x14 }
  - { offsetInCU: 0x472E9, offset: 0x472E9, size: 0x8, addend: 0x0, symName: __ZNSt3__119__allocate_at_leastB7v160006INS_9allocatorIZN12WorstRemoval16destroy_solutionER15PDPTWT_solutionRNS_23mersenne_twister_engineIjLm32ELm624ELm397ELm31ELj2567483615ELm11ELj4294967295ELm7ELj2636928640ELm15ELj4022730752ELm18ELj1812433253EEEE11RequestCostEEEENS_19__allocation_resultINS_16allocator_traitsIT_E7pointerEEERSC_m, symObjAddr: 0x1DEEC, symBinAddr: 0x1000219EC, symSize: 0x40 }
  - { offsetInCU: 0x47331, offset: 0x47331, size: 0x8, addend: 0x0, symName: __ZNSt3__142__uninitialized_allocator_move_if_noexceptB7v160006INS_9allocatorIZN12WorstRemoval16destroy_solutionER15PDPTWT_solutionRNS_23mersenne_twister_engineIjLm32ELm624ELm397ELm31ELj2567483615ELm11ELj4294967295ELm7ELj2636928640ELm15ELj4022730752ELm18ELj1812433253EEEE11RequestCostEENS_16reverse_iteratorIPS8_EESC_S8_vEET1_RT_T0_SG_SD_, symObjAddr: 0x1E158, symBinAddr: 0x100021C58, symSize: 0x78 }
  - { offsetInCU: 0x473B0, offset: 0x473B0, size: 0x8, addend: 0x0, symName: __ZNSt3__14swapB7v160006IPZN12WorstRemoval16destroy_solutionER15PDPTWT_solutionRNS_23mersenne_twister_engineIjLm32ELm624ELm397ELm31ELj2567483615ELm11ELj4294967295ELm7ELj2636928640ELm15ELj4022730752ELm18ELj1812433253EEEE11RequestCostEENS_9enable_ifIXaasr21is_move_constructibleIT_EE5valuesr18is_move_assignableISA_EE5valueEvE4typeERSA_SD_, symObjAddr: 0x1E21C, symBinAddr: 0x100021D1C, symSize: 0x3C }
  - { offsetInCU: 0x47409, offset: 0x47409, size: 0x8, addend: 0x0, symName: __ZNSt3__125__debug_db_invalidate_allB7v160006INS_6vectorIZN12WorstRemoval16destroy_solutionER15PDPTWT_solutionRNS_23mersenne_twister_engineIjLm32ELm624ELm397ELm31ELj2567483615ELm11ELj4294967295ELm7ELj2636928640ELm15ELj4022730752ELm18ELj1812433253EEEE11RequestCostNS_9allocatorIS8_EEEEEEvPT_, symObjAddr: 0x1E304, symBinAddr: 0x100021E04, symSize: 0x10 }
  - { offsetInCU: 0x4743B, offset: 0x4743B, size: 0x8, addend: 0x0, symName: __ZNSt3__14moveB7v160006INS_16reverse_iteratorIPZN12WorstRemoval16destroy_solutionER15PDPTWT_solutionRNS_23mersenne_twister_engineIjLm32ELm624ELm397ELm31ELj2567483615ELm11ELj4294967295ELm7ELj2636928640ELm15ELj4022730752ELm18ELj1812433253EEEE11RequestCostEESA_EET0_T_SC_SB_, symObjAddr: 0x1E35C, symBinAddr: 0x100021E5C, symSize: 0x78 }
  - { offsetInCU: 0x4749D, offset: 0x4749D, size: 0x8, addend: 0x0, symName: __ZNSt3__16__moveB7v160006INS_17_ClassicAlgPolicyENS_16reverse_iteratorIPZN12WorstRemoval16destroy_solutionER15PDPTWT_solutionRNS_23mersenne_twister_engineIjLm32ELm624ELm397ELm31ELj2567483615ELm11ELj4294967295ELm7ELj2636928640ELm15ELj4022730752ELm18ELj1812433253EEEE11RequestCostEESB_SB_EENS_4pairIT0_T2_EESD_T1_SE_, symObjAddr: 0x1E3D4, symBinAddr: 0x100021ED4, symSize: 0x64 }
  - { offsetInCU: 0x47511, offset: 0x47511, size: 0x8, addend: 0x0, symName: __ZNSt3__123__dispatch_copy_or_moveB7v160006INS_17_ClassicAlgPolicyENS_11__move_loopIS1_EENS_14__move_trivialENS_16reverse_iteratorIPZN12WorstRemoval16destroy_solutionER15PDPTWT_solutionRNS_23mersenne_twister_engineIjLm32ELm624ELm397ELm31ELj2567483615ELm11ELj4294967295ELm7ELj2636928640ELm15ELj4022730752ELm18ELj1812433253EEEE11RequestCostEESE_SE_EENS_4pairIT2_T4_EESG_T3_SH_, symObjAddr: 0x1E438, symBinAddr: 0x100021F38, symSize: 0x64 }
  - { offsetInCU: 0x47597, offset: 0x47597, size: 0x8, addend: 0x0, symName: __ZNSt3__121__unwrap_and_dispatchB7v160006INS_10__overloadINS_11__move_loopINS_17_ClassicAlgPolicyEEENS_14__move_trivialEEENS_16reverse_iteratorIPZN12WorstRemoval16destroy_solutionER15PDPTWT_solutionRNS_23mersenne_twister_engineIjLm32ELm624ELm397ELm31ELj2567483615ELm11ELj4294967295ELm7ELj2636928640ELm15ELj4022730752ELm18ELj1812433253EEEE11RequestCostEESG_SG_Li0EEENS_4pairIT0_T2_EESI_T1_SJ_, symObjAddr: 0x1E49C, symBinAddr: 0x100021F9C, symSize: 0x12C }
  - { offsetInCU: 0x47633, offset: 0x47633, size: 0x8, addend: 0x0, symName: __ZNSt3__114__unwrap_rangeB7v160006INS_16reverse_iteratorIPZN12WorstRemoval16destroy_solutionER15PDPTWT_solutionRNS_23mersenne_twister_engineIjLm32ELm624ELm397ELm31ELj2567483615ELm11ELj4294967295ELm7ELj2636928640ELm15ELj4022730752ELm18ELj1812433253EEEE11RequestCostEESA_EENS_4pairIT0_SC_EET_SE_, symObjAddr: 0x1E5C8, symBinAddr: 0x1000220C8, symSize: 0x84 }
  - { offsetInCU: 0x47759, offset: 0x47759, size: 0x8, addend: 0x0, symName: __ZNSt3__113__unwrap_iterB7v160006INS_16reverse_iteratorIPZN12WorstRemoval16destroy_solutionER15PDPTWT_solutionRNS_23mersenne_twister_engineIjLm32ELm624ELm397ELm31ELj2567483615ELm11ELj4294967295ELm7ELj2636928640ELm15ELj4022730752ELm18ELj1812433253EEEE11RequestCostEENS_18__unwrap_iter_implISA_Lb0EEELi0EEEDTclsrT0_8__unwrapclsr3stdE7declvalIT_EEEESE_, symObjAddr: 0x1E6EC, symBinAddr: 0x1000221EC, symSize: 0x44 }
  - { offsetInCU: 0x477A0, offset: 0x477A0, size: 0x8, addend: 0x0, symName: __ZNSt3__19make_pairB7v160006INS_16reverse_iteratorIPZN12WorstRemoval16destroy_solutionER15PDPTWT_solutionRNS_23mersenne_twister_engineIjLm32ELm624ELm397ELm31ELj2567483615ELm11ELj4294967295ELm7ELj2636928640ELm15ELj4022730752ELm18ELj1812433253EEEE11RequestCostEESA_EENS_4pairINS_18__unwrap_ref_decayIT_E4typeENSC_IT0_E4typeEEEOSD_OSG_, symObjAddr: 0x1E730, symBinAddr: 0x100022230, symSize: 0x38 }
  - { offsetInCU: 0x477F0, offset: 0x477F0, size: 0x8, addend: 0x0, symName: __ZNSt3__114__rewrap_rangeB7v160006INS_16reverse_iteratorIPZN12WorstRemoval16destroy_solutionER15PDPTWT_solutionRNS_23mersenne_twister_engineIjLm32ELm624ELm397ELm31ELj2567483615ELm11ELj4294967295ELm7ELj2636928640ELm15ELj4022730752ELm18ELj1812433253EEEE11RequestCostEESA_EET_SB_T0_, symObjAddr: 0x1E768, symBinAddr: 0x100022268, symSize: 0x5C }
  - { offsetInCU: 0x47842, offset: 0x47842, size: 0x8, addend: 0x0, symName: __ZNSt3__113__rewrap_iterB7v160006INS_16reverse_iteratorIPZN12WorstRemoval16destroy_solutionER15PDPTWT_solutionRNS_23mersenne_twister_engineIjLm32ELm624ELm397ELm31ELj2567483615ELm11ELj4294967295ELm7ELj2636928640ELm15ELj4022730752ELm18ELj1812433253EEEE11RequestCostEESA_NS_18__unwrap_iter_implISA_Lb0EEEEET_SD_T0_, symObjAddr: 0x1E7C4, symBinAddr: 0x1000222C4, symSize: 0x74 }
  - { offsetInCU: 0x4789C, offset: 0x4789C, size: 0x8, addend: 0x0, symName: __ZNSt3__1neB7v160006IPZN12WorstRemoval16destroy_solutionER15PDPTWT_solutionRNS_23mersenne_twister_engineIjLm32ELm624ELm397ELm31ELj2567483615ELm11ELj4294967295ELm7ELj2636928640ELm15ELj4022730752ELm18ELj1812433253EEEE11RequestCostS8_EEbRKNS_16reverse_iteratorIT_EERKNS9_IT0_EE, symObjAddr: 0x1E838, symBinAddr: 0x100022338, symSize: 0x48 }
  - { offsetInCU: 0x4795E, offset: 0x4795E, size: 0x8, addend: 0x0, symName: __ZNSt3__111__sort_implB7v160006INS_17_ClassicAlgPolicyENS_11__wrap_iterIPZN12WorstRemoval16destroy_solutionER15PDPTWT_solutionRNS_23mersenne_twister_engineIjLm32ELm624ELm397ELm31ELj2567483615ELm11ELj4294967295ELm7ELj2636928640ELm15ELj4022730752ELm18ELj1812433253EEEE11RequestCostEEZNS3_16destroy_solutionES5_S8_EUlRKS9_SD_E_EEvT0_SF_RT1_, symObjAddr: 0x1EC7C, symBinAddr: 0x10002277C, symSize: 0x84 }
  - { offsetInCU: 0x47A06, offset: 0x47A06, size: 0x8, addend: 0x0, symName: __ZNSt3__123__debug_randomize_rangeB7v160006INS_17_ClassicAlgPolicyENS_11__wrap_iterIPZN12WorstRemoval16destroy_solutionER15PDPTWT_solutionRNS_23mersenne_twister_engineIjLm32ELm624ELm397ELm31ELj2567483615ELm11ELj4294967295ELm7ELj2636928640ELm15ELj4022730752ELm18ELj1812433253EEEE11RequestCostEESB_EEvT0_T1_, symObjAddr: 0x1ED00, symBinAddr: 0x100022800, symSize: 0x14 }
  - { offsetInCU: 0x47A5C, offset: 0x47A5C, size: 0x8, addend: 0x0, symName: __ZNSt3__16__sortIRZN12WorstRemoval16destroy_solutionER15PDPTWT_solutionRNS_23mersenne_twister_engineIjLm32ELm624ELm397ELm31ELj2567483615ELm11ELj4294967295ELm7ELj2636928640ELm15ELj4022730752ELm18ELj1812433253EEEEUlRKZNS1_16destroy_solutionES3_S6_E11RequestCostS9_E_PS7_EEvT0_SD_T_, symObjAddr: 0x1ED14, symBinAddr: 0x100022814, symSize: 0x68 }
  - { offsetInCU: 0x47AED, offset: 0x47AED, size: 0x8, addend: 0x0, symName: __ZNSt3__113__unwrap_iterB7v160006INS_11__wrap_iterIPZN12WorstRemoval16destroy_solutionER15PDPTWT_solutionRNS_23mersenne_twister_engineIjLm32ELm624ELm397ELm31ELj2567483615ELm11ELj4294967295ELm7ELj2636928640ELm15ELj4022730752ELm18ELj1812433253EEEE11RequestCostEENS_18__unwrap_iter_implISA_Lb1EEELi0EEEDTclsrT0_8__unwrapclsr3stdE7declvalIT_EEEESE_, symObjAddr: 0x1ED7C, symBinAddr: 0x10002287C, symSize: 0x2C }
  - { offsetInCU: 0x47B67, offset: 0x47B67, size: 0x8, addend: 0x0, symName: __ZNSt3__124__sort3_maybe_branchlessB7v160006INS_17_ClassicAlgPolicyERZN12WorstRemoval16destroy_solutionER15PDPTWT_solutionRNS_23mersenne_twister_engineIjLm32ELm624ELm397ELm31ELj2567483615ELm11ELj4294967295ELm7ELj2636928640ELm15ELj4022730752ELm18ELj1812433253EEEEUlRKZNS2_16destroy_solutionES4_S7_E11RequestCostSA_E_PS8_EENS_9enable_ifIXntsr21__use_branchless_sortIT0_T1_EE5valueEvE4typeESG_SG_SG_SF_, symObjAddr: 0x1F4F4, symBinAddr: 0x100022FF4, symSize: 0x3C }
  - { offsetInCU: 0x47BD8, offset: 0x47BD8, size: 0x8, addend: 0x0, symName: __ZNSt3__124__sort4_maybe_branchlessB7v160006INS_17_ClassicAlgPolicyERZN12WorstRemoval16destroy_solutionER15PDPTWT_solutionRNS_23mersenne_twister_engineIjLm32ELm624ELm397ELm31ELj2567483615ELm11ELj4294967295ELm7ELj2636928640ELm15ELj4022730752ELm18ELj1812433253EEEEUlRKZNS2_16destroy_solutionES4_S7_E11RequestCostSA_E_PS8_EENS_9enable_ifIXntsr21__use_branchless_sortIT0_T1_EE5valueEvE4typeESG_SG_SG_SG_SF_, symObjAddr: 0x1F530, symBinAddr: 0x100023030, symSize: 0x44 }
  - { offsetInCU: 0x47C5D, offset: 0x47C5D, size: 0x8, addend: 0x0, symName: __ZNSt3__124__sort5_maybe_branchlessB7v160006INS_17_ClassicAlgPolicyERZN12WorstRemoval16destroy_solutionER15PDPTWT_solutionRNS_23mersenne_twister_engineIjLm32ELm624ELm397ELm31ELj2567483615ELm11ELj4294967295ELm7ELj2636928640ELm15ELj4022730752ELm18ELj1812433253EEEEUlRKZNS2_16destroy_solutionES4_S7_E11RequestCostSA_E_PS8_EENS_9enable_ifIXntsr21__use_branchless_sortIT0_T1_EE5valueEvE4typeESG_SG_SG_SG_SG_SF_, symObjAddr: 0x1F574, symBinAddr: 0x100023074, symSize: 0x4C }
  - { offsetInCU: 0x47CF2, offset: 0x47CF2, size: 0x8, addend: 0x0, symName: __ZNSt3__114__partial_sortB7v160006INS_17_ClassicAlgPolicyERZN12WorstRemoval16destroy_solutionER15PDPTWT_solutionRNS_23mersenne_twister_engineIjLm32ELm624ELm397ELm31ELj2567483615ELm11ELj4294967295ELm7ELj2636928640ELm15ELj4022730752ELm18ELj1812433253EEEEUlRKZNS2_16destroy_solutionES4_S7_E11RequestCostSA_E_PS8_SD_EET1_SE_SE_T2_RT0_, symObjAddr: 0x1F704, symBinAddr: 0x100023204, symSize: 0x94 }
  - { offsetInCU: 0x47D85, offset: 0x47D85, size: 0x8, addend: 0x0, symName: __ZNSt3__119__sort5_wrap_policyB7v160006INS_17_ClassicAlgPolicyERZN12WorstRemoval16destroy_solutionER15PDPTWT_solutionRNS_23mersenne_twister_engineIjLm32ELm624ELm397ELm31ELj2567483615ELm11ELj4294967295ELm7ELj2636928640ELm15ELj4022730752ELm18ELj1812433253EEEEUlRKZNS2_16destroy_solutionES4_S7_E11RequestCostSA_E_PS8_EEjT1_SE_SE_SE_SE_T0_, symObjAddr: 0x1F798, symBinAddr: 0x100023298, symSize: 0x54 }
  - { offsetInCU: 0x47E2B, offset: 0x47E2B, size: 0x8, addend: 0x0, symName: __ZNSt3__17__sort3B7v160006INS_17_ClassicAlgPolicyERZN12WorstRemoval16destroy_solutionER15PDPTWT_solutionRNS_23mersenne_twister_engineIjLm32ELm624ELm397ELm31ELj2567483615ELm11ELj4294967295ELm7ELj2636928640ELm15ELj4022730752ELm18ELj1812433253EEEEUlRKZNS2_16destroy_solutionES4_S7_E11RequestCostSA_E_PS8_EEjT1_SE_SE_T0_, symObjAddr: 0x1F7EC, symBinAddr: 0x1000232EC, symSize: 0x144 }
  - { offsetInCU: 0x47EAB, offset: 0x47EAB, size: 0x8, addend: 0x0, symName: __ZNSt3__19iter_swapB7v160006IPZN12WorstRemoval16destroy_solutionER15PDPTWT_solutionRNS_23mersenne_twister_engineIjLm32ELm624ELm397ELm31ELj2567483615ELm11ELj4294967295ELm7ELj2636928640ELm15ELj4022730752ELm18ELj1812433253EEEE11RequestCostS8_EEvT_T0_, symObjAddr: 0x1FC58, symBinAddr: 0x100023758, symSize: 0x2C }
  - { offsetInCU: 0x47EF9, offset: 0x47EF9, size: 0x8, addend: 0x0, symName: __ZNSt3__14swapB7v160006IZN12WorstRemoval16destroy_solutionER15PDPTWT_solutionRNS_23mersenne_twister_engineIjLm32ELm624ELm397ELm31ELj2567483615ELm11ELj4294967295ELm7ELj2636928640ELm15ELj4022730752ELm18ELj1812433253EEEE11RequestCostEENS_9enable_ifIXaasr21is_move_constructibleIT_EE5valuesr18is_move_assignableIS9_EE5valueEvE4typeERS9_SC_, symObjAddr: 0x1FC84, symBinAddr: 0x100023784, symSize: 0x3C }
  - { offsetInCU: 0x47F51, offset: 0x47F51, size: 0x8, addend: 0x0, symName: __ZNSt3__17__sort4B7v160006INS_17_ClassicAlgPolicyERZN12WorstRemoval16destroy_solutionER15PDPTWT_solutionRNS_23mersenne_twister_engineIjLm32ELm624ELm397ELm31ELj2567483615ELm11ELj4294967295ELm7ELj2636928640ELm15ELj4022730752ELm18ELj1812433253EEEEUlRKZNS2_16destroy_solutionES4_S7_E11RequestCostSA_E_PS8_EEjT1_SE_SE_SE_T0_, symObjAddr: 0x1FCC0, symBinAddr: 0x1000237C0, symSize: 0xE4 }
  - { offsetInCU: 0x47FDF, offset: 0x47FDF, size: 0x8, addend: 0x0, symName: __ZNSt3__123__debug_randomize_rangeB7v160006INS_17_ClassicAlgPolicyEPZN12WorstRemoval16destroy_solutionER15PDPTWT_solutionRNS_23mersenne_twister_engineIjLm32ELm624ELm397ELm31ELj2567483615ELm11ELj4294967295ELm7ELj2636928640ELm15ELj4022730752ELm18ELj1812433253EEEE11RequestCostS9_EEvT0_T1_, symObjAddr: 0x1FDE8, symBinAddr: 0x1000238E8, symSize: 0x14 }
  - { offsetInCU: 0x48036, offset: 0x48036, size: 0x8, addend: 0x0, symName: __ZNSt3__119__partial_sort_implB7v160006INS_17_ClassicAlgPolicyERZN12WorstRemoval16destroy_solutionER15PDPTWT_solutionRNS_23mersenne_twister_engineIjLm32ELm624ELm397ELm31ELj2567483615ELm11ELj4294967295ELm7ELj2636928640ELm15ELj4022730752ELm18ELj1812433253EEEEUlRKZNS2_16destroy_solutionES4_S7_E11RequestCostSA_E_PS8_SD_EET1_SE_SE_T2_OT0_, symObjAddr: 0x1FDFC, symBinAddr: 0x1000238FC, symSize: 0x110 }
  - { offsetInCU: 0x480DA, offset: 0x480DA, size: 0x8, addend: 0x0, symName: __ZNSt3__111__make_heapB7v160006INS_17_ClassicAlgPolicyERZN12WorstRemoval16destroy_solutionER15PDPTWT_solutionRNS_23mersenne_twister_engineIjLm32ELm624ELm397ELm31ELj2567483615ELm11ELj4294967295ELm7ELj2636928640ELm15ELj4022730752ELm18ELj1812433253EEEEUlRKZNS2_16destroy_solutionES4_S7_E11RequestCostSA_E_PS8_EEvT1_SE_OT0_, symObjAddr: 0x1FF0C, symBinAddr: 0x100023A0C, symSize: 0xB8 }
  - { offsetInCU: 0x4818C, offset: 0x4818C, size: 0x8, addend: 0x0, symName: __ZNSt3__111__sort_heapB7v160006INS_17_ClassicAlgPolicyERZN12WorstRemoval16destroy_solutionER15PDPTWT_solutionRNS_23mersenne_twister_engineIjLm32ELm624ELm397ELm31ELj2567483615ELm11ELj4294967295ELm7ELj2636928640ELm15ELj4022730752ELm18ELj1812433253EEEEUlRKZNS2_16destroy_solutionES4_S7_E11RequestCostSA_E_PS8_EEvT1_SE_OT0_, symObjAddr: 0x201D0, symBinAddr: 0x100023CD0, symSize: 0x90 }
  - { offsetInCU: 0x4822E, offset: 0x4822E, size: 0x8, addend: 0x0, symName: __ZNSt3__110__pop_heapB7v160006INS_17_ClassicAlgPolicyEZN12WorstRemoval16destroy_solutionER15PDPTWT_solutionRNS_23mersenne_twister_engineIjLm32ELm624ELm397ELm31ELj2567483615ELm11ELj4294967295ELm7ELj2636928640ELm15ELj4022730752ELm18ELj1812433253EEEEUlRKZNS2_16destroy_solutionES4_S7_E11RequestCostSA_E_PS8_EEvT1_SD_RT0_NS_15iterator_traitsISD_E15difference_typeE, symObjAddr: 0x20260, symBinAddr: 0x100023D60, symSize: 0xF4 }
  - { offsetInCU: 0x482F0, offset: 0x482F0, size: 0x8, addend: 0x0, symName: __ZNSt3__19__sift_upB7v160006INS_17_ClassicAlgPolicyERZN12WorstRemoval16destroy_solutionER15PDPTWT_solutionRNS_23mersenne_twister_engineIjLm32ELm624ELm397ELm31ELj2567483615ELm11ELj4294967295ELm7ELj2636928640ELm15ELj4022730752ELm18ELj1812433253EEEEUlRKZNS2_16destroy_solutionES4_S7_E11RequestCostSA_E_PS8_EEvT1_SE_OT0_NS_15iterator_traitsISE_E15difference_typeE, symObjAddr: 0x20454, symBinAddr: 0x100023F54, symSize: 0x11C }
  - { offsetInCU: 0x483AF, offset: 0x483AF, size: 0x8, addend: 0x0, symName: __ZNSt3__17__sort5IRZN12WorstRemoval16destroy_solutionER15PDPTWT_solutionRNS_23mersenne_twister_engineIjLm32ELm624ELm397ELm31ELj2567483615ELm11ELj4294967295ELm7ELj2636928640ELm15ELj4022730752ELm18ELj1812433253EEEEUlRKZNS1_16destroy_solutionES3_S6_E11RequestCostS9_E_PS7_EEjT0_SD_SD_SD_SD_T_, symObjAddr: 0x20570, symBinAddr: 0x100024070, symSize: 0x12C }
  - { offsetInCU: 0x484B5, offset: 0x484B5, size: 0x8, addend: 0x0, symName: __ZNSt3__112__to_addressB7v160006INS_11__wrap_iterIPZN12WorstRemoval16destroy_solutionER15PDPTWT_solutionRNS_23mersenne_twister_engineIjLm32ELm624ELm397ELm31ELj2567483615ELm11ELj4294967295ELm7ELj2636928640ELm15ELj4022730752ELm18ELj1812433253EEEE11RequestCostEEvEENS_5decayIDTclsr19__to_address_helperIT_EE6__callclsr3stdE7declvalIRKSC_EEEEE4typeESE_, symObjAddr: 0x206C4, symBinAddr: 0x1000241C4, symSize: 0x24 }
  - { offsetInCU: 0x48595, offset: 0x48595, size: 0x8, addend: 0x0, symName: __ZNSt3__118generate_canonicalB7v160006IdLm53ENS_23mersenne_twister_engineIjLm32ELm624ELm397ELm31ELj2567483615ELm11ELj4294967295ELm7ELj2636928640ELm15ELj4022730752ELm18ELj1812433253EEEEET_RT1_, symObjAddr: 0x20930, symBinAddr: 0x100024430, symSize: 0x114 }
  - { offsetInCU: 0x48696, offset: 0x48696, size: 0x8, addend: 0x0, symName: __ZNSt3__1miB7v160006IPKZN12WorstRemoval16destroy_solutionER15PDPTWT_solutionRNS_23mersenne_twister_engineIjLm32ELm624ELm397ELm31ELj2567483615ELm11ELj4294967295ELm7ELj2636928640ELm15ELj4022730752ELm18ELj1812433253EEEE11RequestCostS9_EEDTmicldtfp_4baseEcldtfp0_4baseEERKNS_11__wrap_iterIT_EERKNSB_IT0_EE, symObjAddr: 0x20C20, symBinAddr: 0x100024720, symSize: 0x48 }
  - { offsetInCU: 0x486E3, offset: 0x486E3, size: 0x8, addend: 0x0, symName: __ZNSt3__14moveB7v160006IPZN12WorstRemoval16destroy_solutionER15PDPTWT_solutionRNS_23mersenne_twister_engineIjLm32ELm624ELm397ELm31ELj2567483615ELm11ELj4294967295ELm7ELj2636928640ELm15ELj4022730752ELm18ELj1812433253EEEE11RequestCostS8_EET0_T_SA_S9_, symObjAddr: 0x20CF4, symBinAddr: 0x1000247F4, symSize: 0x40 }
  - { offsetInCU: 0x48745, offset: 0x48745, size: 0x8, addend: 0x0, symName: __ZNSt3__16__moveB7v160006INS_17_ClassicAlgPolicyEPZN12WorstRemoval16destroy_solutionER15PDPTWT_solutionRNS_23mersenne_twister_engineIjLm32ELm624ELm397ELm31ELj2567483615ELm11ELj4294967295ELm7ELj2636928640ELm15ELj4022730752ELm18ELj1812433253EEEE11RequestCostS9_S9_EENS_4pairIT0_T2_EESB_T1_SC_, symObjAddr: 0x20F64, symBinAddr: 0x100024A64, symSize: 0x44 }
  - { offsetInCU: 0x487B9, offset: 0x487B9, size: 0x8, addend: 0x0, symName: __ZNSt3__123__dispatch_copy_or_moveB7v160006INS_17_ClassicAlgPolicyENS_11__move_loopIS1_EENS_14__move_trivialEPZN12WorstRemoval16destroy_solutionER15PDPTWT_solutionRNS_23mersenne_twister_engineIjLm32ELm624ELm397ELm31ELj2567483615ELm11ELj4294967295ELm7ELj2636928640ELm15ELj4022730752ELm18ELj1812433253EEEE11RequestCostSC_SC_EENS_4pairIT2_T4_EESE_T3_SF_, symObjAddr: 0x20FA8, symBinAddr: 0x100024AA8, symSize: 0x44 }
  - { offsetInCU: 0x4883F, offset: 0x4883F, size: 0x8, addend: 0x0, symName: __ZNSt3__121__unwrap_and_dispatchB7v160006INS_10__overloadINS_11__move_loopINS_17_ClassicAlgPolicyEEENS_14__move_trivialEEEPZN12WorstRemoval16destroy_solutionER15PDPTWT_solutionRNS_23mersenne_twister_engineIjLm32ELm624ELm397ELm31ELj2567483615ELm11ELj4294967295ELm7ELj2636928640ELm15ELj4022730752ELm18ELj1812433253EEEE11RequestCostSE_SE_Li0EEENS_4pairIT0_T2_EESG_T1_SH_, symObjAddr: 0x20FEC, symBinAddr: 0x100024AEC, symSize: 0xB4 }
  - { offsetInCU: 0x488D9, offset: 0x488D9, size: 0x8, addend: 0x0, symName: __ZNSt3__114__unwrap_rangeB7v160006IPZN12WorstRemoval16destroy_solutionER15PDPTWT_solutionRNS_23mersenne_twister_engineIjLm32ELm624ELm397ELm31ELj2567483615ELm11ELj4294967295ELm7ELj2636928640ELm15ELj4022730752ELm18ELj1812433253EEEE11RequestCostS8_EENS_4pairIT0_SA_EET_SC_, symObjAddr: 0x210A0, symBinAddr: 0x100024BA0, symSize: 0x60 }
  - { offsetInCU: 0x48A2E, offset: 0x48A2E, size: 0x8, addend: 0x0, symName: __ZNSt3__113__unwrap_iterB7v160006IPZN12WorstRemoval16destroy_solutionER15PDPTWT_solutionRNS_23mersenne_twister_engineIjLm32ELm624ELm397ELm31ELj2567483615ELm11ELj4294967295ELm7ELj2636928640ELm15ELj4022730752ELm18ELj1812433253EEEE11RequestCostNS_18__unwrap_iter_implIS8_Lb1EEELi0EEEDTclsrT0_8__unwrapclsr3stdE7declvalIT_EEEESC_, symObjAddr: 0x21148, symBinAddr: 0x100024C48, symSize: 0x24 }
  - { offsetInCU: 0x48A75, offset: 0x48A75, size: 0x8, addend: 0x0, symName: __ZNSt3__19make_pairB7v160006IPZN12WorstRemoval16destroy_solutionER15PDPTWT_solutionRNS_23mersenne_twister_engineIjLm32ELm624ELm397ELm31ELj2567483615ELm11ELj4294967295ELm7ELj2636928640ELm15ELj4022730752ELm18ELj1812433253EEEE11RequestCostS8_EENS_4pairINS_18__unwrap_ref_decayIT_E4typeENSA_IT0_E4typeEEEOSB_OSE_, symObjAddr: 0x2116C, symBinAddr: 0x100024C6C, symSize: 0x38 }
  - { offsetInCU: 0x48AC5, offset: 0x48AC5, size: 0x8, addend: 0x0, symName: __ZNSt3__114__rewrap_rangeB7v160006IPZN12WorstRemoval16destroy_solutionER15PDPTWT_solutionRNS_23mersenne_twister_engineIjLm32ELm624ELm397ELm31ELj2567483615ELm11ELj4294967295ELm7ELj2636928640ELm15ELj4022730752ELm18ELj1812433253EEEE11RequestCostS8_EET_S9_T0_, symObjAddr: 0x211A4, symBinAddr: 0x100024CA4, symSize: 0x2C }
  - { offsetInCU: 0x48B17, offset: 0x48B17, size: 0x8, addend: 0x0, symName: __ZNSt3__113__rewrap_iterB7v160006IPZN12WorstRemoval16destroy_solutionER15PDPTWT_solutionRNS_23mersenne_twister_engineIjLm32ELm624ELm397ELm31ELj2567483615ELm11ELj4294967295ELm7ELj2636928640ELm15ELj4022730752ELm18ELj1812433253EEEE11RequestCostS8_NS_18__unwrap_iter_implIS8_Lb1EEEEET_SB_T0_, symObjAddr: 0x211D0, symBinAddr: 0x100024CD0, symSize: 0x3C }
  - { offsetInCU: 0x48B72, offset: 0x48B72, size: 0x8, addend: 0x0, symName: __ZNSt3__119__copy_trivial_implB7v160006IZN12WorstRemoval16destroy_solutionER15PDPTWT_solutionRNS_23mersenne_twister_engineIjLm32ELm624ELm397ELm31ELj2567483615ELm11ELj4294967295ELm7ELj2636928640ELm15ELj4022730752ELm18ELj1812433253EEEE11RequestCostS7_EENS_4pairIPT_PT0_EESA_SA_SC_, symObjAddr: 0x2120C, symBinAddr: 0x100024D0C, symSize: 0x84 }
  - { offsetInCU: 0x48BE3, offset: 0x48BE3, size: 0x8, addend: 0x0, symName: __ZNSt3__19make_pairB7v160006IRPZN12WorstRemoval16destroy_solutionER15PDPTWT_solutionRNS_23mersenne_twister_engineIjLm32ELm624ELm397ELm31ELj2567483615ELm11ELj4294967295ELm7ELj2636928640ELm15ELj4022730752ELm18ELj1812433253EEEE11RequestCostS8_EENS_4pairINS_18__unwrap_ref_decayIT_E4typeENSB_IT0_E4typeEEEOSC_OSF_, symObjAddr: 0x21290, symBinAddr: 0x100024D90, symSize: 0x38 }
  - { offsetInCU: 0x48C8E, offset: 0x48C8E, size: 0x8, addend: 0x0, symName: __ZNSt3__118__debug_db_erase_cB7v160006INS_6vectorIZN12WorstRemoval16destroy_solutionER15PDPTWT_solutionRNS_23mersenne_twister_engineIjLm32ELm624ELm397ELm31ELj2567483615ELm11ELj4294967295ELm7ELj2636928640ELm15ELj4022730752ELm18ELj1812433253EEEE11RequestCostNS_9allocatorIS8_EEEEEEvPT_, symObjAddr: 0x215B8, symBinAddr: 0x1000250B8, symSize: 0x10 }
  - { offsetInCU: 0x48CBF, offset: 0x48CBF, size: 0x8, addend: 0x0, symName: __ZNSt3__111make_uniqueB7v160006I12WorstRemovalJRKS1_EEENS_11__unique_ifIT_E15__unique_singleEDpOT0_, symObjAddr: 0x215F0, symBinAddr: 0x1000250F0, symSize: 0x44 }
  - { offsetInCU: 0x48D01, offset: 0x48D01, size: 0x8, addend: 0x0, symName: __ZNSt3__14sortB7v160006INS_11__wrap_iterIPNS_4pairINS_5tupleIJiiiEEEdEEEEZN18regret_k_insertion15repair_solutionER15PDPTWT_solutionRNS_23mersenne_twister_engineIjLm32ELm624ELm397ELm31ELj2567483615ELm11ELj4294967295ELm7ELj2636928640ELm15ELj4022730752ELm18ELj1812433253EEEEUlRKT_RKT0_E_EEvSE_SE_SH_, symObjAddr: 0x22624, symBinAddr: 0x100026124, symSize: 0x40 }
  - { offsetInCU: 0x48D5B, offset: 0x48D5B, size: 0x8, addend: 0x0, symName: __ZNSt3__13getB7v160006ILm2EJiiiEEERNS_13tuple_elementIXT_ENS_5tupleIJDpT0_EEEE4typeERS5_, symObjAddr: 0x228AC, symBinAddr: 0x1000263AC, symSize: 0x28 }
  - { offsetInCU: 0x48DA8, offset: 0x48DA8, size: 0x8, addend: 0x0, symName: __ZNSt3__13getB7v160006ILm0EJiiiEEERNS_13tuple_elementIXT_ENS_5tupleIJDpT0_EEEE4typeERS5_, symObjAddr: 0x228D4, symBinAddr: 0x1000263D4, symSize: 0x24 }
  - { offsetInCU: 0x48DF5, offset: 0x48DF5, size: 0x8, addend: 0x0, symName: __ZNSt3__13getB7v160006ILm1EJiiiEEERNS_13tuple_elementIXT_ENS_5tupleIJDpT0_EEEE4typeERS5_, symObjAddr: 0x228F8, symBinAddr: 0x1000263F8, symSize: 0x28 }
  - { offsetInCU: 0x48E43, offset: 0x48E43, size: 0x8, addend: 0x0, symName: __ZNSt3__16removeB7v160006INS_11__wrap_iterIPPK7RequestEES4_EET_S7_S7_RKT0_, symObjAddr: 0x22A00, symBinAddr: 0x100026500, symSize: 0x108 }
  - { offsetInCU: 0x48EC3, offset: 0x48EC3, size: 0x8, addend: 0x0, symName: __ZNSt3__119__debug_db_insert_cB7v160006INS_6vectorINS1_INS_4pairINS_5tupleIJiiiEEEdEENS_9allocatorIS5_EEEENS6_IS8_EEEEEEvPT_, symObjAddr: 0x22E28, symBinAddr: 0x100026928, symSize: 0x10 }
  - { offsetInCU: 0x48EF5, offset: 0x48EF5, size: 0x8, addend: 0x0, symName: __ZNSt3__119__debug_db_insert_cB7v160006INS_6vectorINS_4pairINS_5tupleIJiiiEEEdEENS_9allocatorIS5_EEEEEEvPT_, symObjAddr: 0x22F94, symBinAddr: 0x100026A94, symSize: 0x10 }
  - { offsetInCU: 0x48F48, offset: 0x48F48, size: 0x8, addend: 0x0, symName: __ZNSt3__112__to_addressB7v160006INS_4pairINS_5tupleIJiiiEEEdEEEEPT_S6_, symObjAddr: 0x23458, symBinAddr: 0x100026F58, symSize: 0x14 }
  - { offsetInCU: 0x48F7E, offset: 0x48F7E, size: 0x8, addend: 0x0, symName: __ZNSt3__119__allocate_at_leastB7v160006INS_9allocatorINS_4pairINS_5tupleIJiiiEEEdEEEEEENS_19__allocation_resultINS_16allocator_traitsIT_E7pointerEEERS9_m, symObjAddr: 0x23A7C, symBinAddr: 0x10002757C, symSize: 0x40 }
  - { offsetInCU: 0x48FC6, offset: 0x48FC6, size: 0x8, addend: 0x0, symName: __ZNSt3__142__uninitialized_allocator_move_if_noexceptB7v160006INS_9allocatorINS_4pairINS_5tupleIJiiiEEEdEEEENS_16reverse_iteratorIPS5_EES9_S9_EET2_RT_T0_T1_SA_, symObjAddr: 0x23D08, symBinAddr: 0x100027808, symSize: 0x12C }
  - { offsetInCU: 0x49067, offset: 0x49067, size: 0x8, addend: 0x0, symName: __ZNSt3__14swapB7v160006IPNS_4pairINS_5tupleIJiiiEEEdEEEENS_9enable_ifIXaasr21is_move_constructibleIT_EE5valuesr18is_move_assignableIS7_EE5valueEvE4typeERS7_SA_, symObjAddr: 0x23E80, symBinAddr: 0x100027980, symSize: 0x3C }
  - { offsetInCU: 0x490C0, offset: 0x490C0, size: 0x8, addend: 0x0, symName: __ZNSt3__125__debug_db_invalidate_allB7v160006INS_6vectorINS_4pairINS_5tupleIJiiiEEEdEENS_9allocatorIS5_EEEEEEvPT_, symObjAddr: 0x23F84, symBinAddr: 0x100027A84, symSize: 0x10 }
  - { offsetInCU: 0x490F1, offset: 0x490F1, size: 0x8, addend: 0x0, symName: __ZNSt3__122__make_exception_guardB7v160006INS_29_AllocatorDestroyRangeReverseINS_9allocatorINS_4pairINS_5tupleIJiiiEEEdEEEENS_16reverse_iteratorIPS6_EEEEEENS_28__exception_guard_exceptionsIT_EESD_, symObjAddr: 0x23FDC, symBinAddr: 0x100027ADC, symSize: 0x4C }
  - { offsetInCU: 0x49127, offset: 0x49127, size: 0x8, addend: 0x0, symName: __ZNSt3__1neB7v160006IPNS_4pairINS_5tupleIJiiiEEEdEES5_EEbRKNS_16reverse_iteratorIT_EERKNS6_IT0_EE, symObjAddr: 0x2406C, symBinAddr: 0x100027B6C, symSize: 0x48 }
  - { offsetInCU: 0x49173, offset: 0x49173, size: 0x8, addend: 0x0, symName: __ZNSt3__112__to_addressB7v160006INS_16reverse_iteratorIPNS_4pairINS_5tupleIJiiiEEEdEEEEvEENS_5decayIDTclsr19__to_address_helperIT_EE6__callclsr3stdE7declvalIRKS9_EEEEE4typeESB_, symObjAddr: 0x240E8, symBinAddr: 0x100027BE8, symSize: 0x24 }
  - { offsetInCU: 0x491D2, offset: 0x491D2, size: 0x8, addend: 0x0, symName: __ZNSt3__119__allocator_destroyB7v160006INS_9allocatorINS_4pairINS_5tupleIJiiiEEEdEEEENS_16reverse_iteratorINS7_IPS5_EEEESA_EEvRT_T0_T1_, symObjAddr: 0x243C8, symBinAddr: 0x100027EC8, symSize: 0x70 }
  - { offsetInCU: 0x49237, offset: 0x49237, size: 0x8, addend: 0x0, symName: __ZNSt3__1neB7v160006INS_16reverse_iteratorIPNS_4pairINS_5tupleIJiiiEEEdEEEES7_EEbRKNS1_IT_EERKNS1_IT0_EE, symObjAddr: 0x24474, symBinAddr: 0x100027F74, symSize: 0x60 }
  - { offsetInCU: 0x49283, offset: 0x49283, size: 0x8, addend: 0x0, symName: __ZNSt3__112__to_addressB7v160006INS_16reverse_iteratorINS1_IPNS_4pairINS_5tupleIJiiiEEEdEEEEEEvEENS_5decayIDTclsr19__to_address_helperIT_EE6__callclsr3stdE7declvalIRKSA_EEEEE4typeESC_, symObjAddr: 0x24500, symBinAddr: 0x100028000, symSize: 0x24 }
  - { offsetInCU: 0x492E2, offset: 0x492E2, size: 0x8, addend: 0x0, symName: __ZNSt3__111__sort_implB7v160006INS_17_ClassicAlgPolicyENS_11__wrap_iterIPNS_4pairINS_5tupleIJiiiEEEdEEEEZN18regret_k_insertion15repair_solutionER15PDPTWT_solutionRNS_23mersenne_twister_engineIjLm32ELm624ELm397ELm31ELj2567483615ELm11ELj4294967295ELm7ELj2636928640ELm15ELj4022730752ELm18ELj1812433253EEEEUlRKT_RKT0_E_EEvSI_SI_RT1_, symObjAddr: 0x248F4, symBinAddr: 0x1000283F4, symSize: 0x84 }
  - { offsetInCU: 0x4938A, offset: 0x4938A, size: 0x8, addend: 0x0, symName: __ZNSt3__123__debug_randomize_rangeB7v160006INS_17_ClassicAlgPolicyENS_11__wrap_iterIPNS_4pairINS_5tupleIJiiiEEEdEEEES8_EEvT0_T1_, symObjAddr: 0x24978, symBinAddr: 0x100028478, symSize: 0x14 }
  - { offsetInCU: 0x493E0, offset: 0x493E0, size: 0x8, addend: 0x0, symName: __ZNSt3__16__sortIRZN18regret_k_insertion15repair_solutionER15PDPTWT_solutionRNS_23mersenne_twister_engineIjLm32ELm624ELm397ELm31ELj2567483615ELm11ELj4294967295ELm7ELj2636928640ELm15ELj4022730752ELm18ELj1812433253EEEEUlRKT_RKT0_E_PNS_4pairINS_5tupleIJiiiEEEdEEEEvSA_SA_S7_, symObjAddr: 0x2498C, symBinAddr: 0x10002848C, symSize: 0x68 }
  - { offsetInCU: 0x49471, offset: 0x49471, size: 0x8, addend: 0x0, symName: __ZNSt3__113__unwrap_iterB7v160006INS_11__wrap_iterIPNS_4pairINS_5tupleIJiiiEEEdEEEENS_18__unwrap_iter_implIS7_Lb1EEELi0EEEDTclsrT0_8__unwrapclsr3stdE7declvalIT_EEEESB_, symObjAddr: 0x249F4, symBinAddr: 0x1000284F4, symSize: 0x2C }
  - { offsetInCU: 0x494EB, offset: 0x494EB, size: 0x8, addend: 0x0, symName: __ZNSt3__124__sort3_maybe_branchlessB7v160006INS_17_ClassicAlgPolicyERZN18regret_k_insertion15repair_solutionER15PDPTWT_solutionRNS_23mersenne_twister_engineIjLm32ELm624ELm397ELm31ELj2567483615ELm11ELj4294967295ELm7ELj2636928640ELm15ELj4022730752ELm18ELj1812433253EEEEUlRKT_RKT0_E_PNS_4pairINS_5tupleIJiiiEEEdEEEENS_9enable_ifIXntsr21__use_branchless_sortISB_T1_EE5valueEvE4typeESM_SM_SM_SB_, symObjAddr: 0x25184, symBinAddr: 0x100028C84, symSize: 0x3C }
  - { offsetInCU: 0x4955C, offset: 0x4955C, size: 0x8, addend: 0x0, symName: __ZNSt3__124__sort4_maybe_branchlessB7v160006INS_17_ClassicAlgPolicyERZN18regret_k_insertion15repair_solutionER15PDPTWT_solutionRNS_23mersenne_twister_engineIjLm32ELm624ELm397ELm31ELj2567483615ELm11ELj4294967295ELm7ELj2636928640ELm15ELj4022730752ELm18ELj1812433253EEEEUlRKT_RKT0_E_PNS_4pairINS_5tupleIJiiiEEEdEEEENS_9enable_ifIXntsr21__use_branchless_sortISB_T1_EE5valueEvE4typeESM_SM_SM_SM_SB_, symObjAddr: 0x251C0, symBinAddr: 0x100028CC0, symSize: 0x44 }
  - { offsetInCU: 0x495E1, offset: 0x495E1, size: 0x8, addend: 0x0, symName: __ZNSt3__124__sort5_maybe_branchlessB7v160006INS_17_ClassicAlgPolicyERZN18regret_k_insertion15repair_solutionER15PDPTWT_solutionRNS_23mersenne_twister_engineIjLm32ELm624ELm397ELm31ELj2567483615ELm11ELj4294967295ELm7ELj2636928640ELm15ELj4022730752ELm18ELj1812433253EEEEUlRKT_RKT0_E_PNS_4pairINS_5tupleIJiiiEEEdEEEENS_9enable_ifIXntsr21__use_branchless_sortISB_T1_EE5valueEvE4typeESM_SM_SM_SM_SM_SB_, symObjAddr: 0x25204, symBinAddr: 0x100028D04, symSize: 0x4C }
  - { offsetInCU: 0x49676, offset: 0x49676, size: 0x8, addend: 0x0, symName: __ZNSt3__114__partial_sortB7v160006INS_17_ClassicAlgPolicyERZN18regret_k_insertion15repair_solutionER15PDPTWT_solutionRNS_23mersenne_twister_engineIjLm32ELm624ELm397ELm31ELj2567483615ELm11ELj4294967295ELm7ELj2636928640ELm15ELj4022730752ELm18ELj1812433253EEEEUlRKT_RKT0_E_PNS_4pairINS_5tupleIJiiiEEEdEESK_EET1_SL_SL_T2_RSB_, symObjAddr: 0x2539C, symBinAddr: 0x100028E9C, symSize: 0x94 }
  - { offsetInCU: 0x49709, offset: 0x49709, size: 0x8, addend: 0x0, symName: __ZNSt3__119__sort5_wrap_policyB7v160006INS_17_ClassicAlgPolicyERZN18regret_k_insertion15repair_solutionER15PDPTWT_solutionRNS_23mersenne_twister_engineIjLm32ELm624ELm397ELm31ELj2567483615ELm11ELj4294967295ELm7ELj2636928640ELm15ELj4022730752ELm18ELj1812433253EEEEUlRKT_RKT0_E_PNS_4pairINS_5tupleIJiiiEEEdEEEEjT1_SL_SL_SL_SL_SB_, symObjAddr: 0x25430, symBinAddr: 0x100028F30, symSize: 0x54 }
  - { offsetInCU: 0x497AF, offset: 0x497AF, size: 0x8, addend: 0x0, symName: __ZNSt3__17__sort3B7v160006INS_17_ClassicAlgPolicyERZN18regret_k_insertion15repair_solutionER15PDPTWT_solutionRNS_23mersenne_twister_engineIjLm32ELm624ELm397ELm31ELj2567483615ELm11ELj4294967295ELm7ELj2636928640ELm15ELj4022730752ELm18ELj1812433253EEEEUlRKT_RKT0_E_PNS_4pairINS_5tupleIJiiiEEEdEEEEjT1_SL_SL_SB_, symObjAddr: 0x25484, symBinAddr: 0x100028F84, symSize: 0x144 }
  - { offsetInCU: 0x4982F, offset: 0x4982F, size: 0x8, addend: 0x0, symName: __ZNSt3__19iter_swapB7v160006IPNS_4pairINS_5tupleIJiiiEEEdEES5_EEvT_T0_, symObjAddr: 0x258F8, symBinAddr: 0x1000293F8, symSize: 0x2C }
  - { offsetInCU: 0x4987C, offset: 0x4987C, size: 0x8, addend: 0x0, symName: __ZNSt3__14swapB7v160006INS_5tupleIJiiiEEEdEENS_9enable_ifIXaasr14__is_swappableIT_EE5valuesr14__is_swappableIT0_EE5valueEvE4typeERNS_4pairIS4_S5_EESA_, symObjAddr: 0x25924, symBinAddr: 0x100029424, symSize: 0x2C }
  - { offsetInCU: 0x498CB, offset: 0x498CB, size: 0x8, addend: 0x0, symName: __ZNSt3__14swapB7v160006IJiiiEEENS_9enable_ifIXsr5__allIXspsr14__is_swappableIT_EE5valueEEE5valueEvE4typeERNS_5tupleIJDpS2_EEES8_, symObjAddr: 0x25994, symBinAddr: 0x100029494, symSize: 0x2C }
  - { offsetInCU: 0x4991E, offset: 0x4991E, size: 0x8, addend: 0x0, symName: __ZNSt3__19__swallowB7v160006IJiiiEEEvDpOT_, symObjAddr: 0x25A74, symBinAddr: 0x100029574, symSize: 0x18 }
  - { offsetInCU: 0x49972, offset: 0x49972, size: 0x8, addend: 0x0, symName: __ZNSt3__14swapB7v160006ILm0EiLb0EEEvRNS_12__tuple_leafIXT_ET0_XT1_EEES4_, symObjAddr: 0x25B1C, symBinAddr: 0x10002961C, symSize: 0x40 }
  - { offsetInCU: 0x499C9, offset: 0x499C9, size: 0x8, addend: 0x0, symName: __ZNSt3__14swapB7v160006IiEENS_9enable_ifIXaasr21is_move_constructibleIT_EE5valuesr18is_move_assignableIS2_EE5valueEvE4typeERS2_S5_, symObjAddr: 0x25B5C, symBinAddr: 0x10002965C, symSize: 0x3C }
  - { offsetInCU: 0x49A21, offset: 0x49A21, size: 0x8, addend: 0x0, symName: __ZNSt3__14swapB7v160006ILm1EiLb0EEEvRNS_12__tuple_leafIXT_ET0_XT1_EEES4_, symObjAddr: 0x25BAC, symBinAddr: 0x1000296AC, symSize: 0x40 }
  - { offsetInCU: 0x49A77, offset: 0x49A77, size: 0x8, addend: 0x0, symName: __ZNSt3__14swapB7v160006ILm2EiLb0EEEvRNS_12__tuple_leafIXT_ET0_XT1_EEES4_, symObjAddr: 0x25C00, symBinAddr: 0x100029700, symSize: 0x40 }
  - { offsetInCU: 0x49ACD, offset: 0x49ACD, size: 0x8, addend: 0x0, symName: __ZNSt3__17__sort4B7v160006INS_17_ClassicAlgPolicyERZN18regret_k_insertion15repair_solutionER15PDPTWT_solutionRNS_23mersenne_twister_engineIjLm32ELm624ELm397ELm31ELj2567483615ELm11ELj4294967295ELm7ELj2636928640ELm15ELj4022730752ELm18ELj1812433253EEEEUlRKT_RKT0_E_PNS_4pairINS_5tupleIJiiiEEEdEEEEjT1_SL_SL_SL_SB_, symObjAddr: 0x25C54, symBinAddr: 0x100029754, symSize: 0xE4 }
  - { offsetInCU: 0x49B82, offset: 0x49B82, size: 0x8, addend: 0x0, symName: __ZNSt3__127__memberwise_forward_assignB7v160006INS_5tupleIJiiiEEES2_JiiiEJLm0ELm1ELm2EEEEvRT_OT0_NS_13__tuple_typesIJDpT1_EEENS_15__tuple_indicesIJXspT2_EEEE, symObjAddr: 0x25DE0, symBinAddr: 0x1000298E0, symSize: 0xB0 }
  - { offsetInCU: 0x49C13, offset: 0x49C13, size: 0x8, addend: 0x0, symName: __ZNSt3__123__debug_randomize_rangeB7v160006INS_17_ClassicAlgPolicyEPNS_4pairINS_5tupleIJiiiEEEdEES6_EEvT0_T1_, symObjAddr: 0x25EA8, symBinAddr: 0x1000299A8, symSize: 0x14 }
  - { offsetInCU: 0x49C6A, offset: 0x49C6A, size: 0x8, addend: 0x0, symName: __ZNSt3__119__partial_sort_implB7v160006INS_17_ClassicAlgPolicyERZN18regret_k_insertion15repair_solutionER15PDPTWT_solutionRNS_23mersenne_twister_engineIjLm32ELm624ELm397ELm31ELj2567483615ELm11ELj4294967295ELm7ELj2636928640ELm15ELj4022730752ELm18ELj1812433253EEEEUlRKT_RKT0_E_PNS_4pairINS_5tupleIJiiiEEEdEESK_EET1_SL_SL_T2_OSB_, symObjAddr: 0x25EBC, symBinAddr: 0x1000299BC, symSize: 0x110 }
  - { offsetInCU: 0x49D0E, offset: 0x49D0E, size: 0x8, addend: 0x0, symName: __ZNSt3__111__make_heapB7v160006INS_17_ClassicAlgPolicyERZN18regret_k_insertion15repair_solutionER15PDPTWT_solutionRNS_23mersenne_twister_engineIjLm32ELm624ELm397ELm31ELj2567483615ELm11ELj4294967295ELm7ELj2636928640ELm15ELj4022730752ELm18ELj1812433253EEEEUlRKT_RKT0_E_PNS_4pairINS_5tupleIJiiiEEEdEEEEvT1_SL_OSB_, symObjAddr: 0x25FCC, symBinAddr: 0x100029ACC, symSize: 0xC0 }
  - { offsetInCU: 0x49DC0, offset: 0x49DC0, size: 0x8, addend: 0x0, symName: __ZNSt3__111__sort_heapB7v160006INS_17_ClassicAlgPolicyERZN18regret_k_insertion15repair_solutionER15PDPTWT_solutionRNS_23mersenne_twister_engineIjLm32ELm624ELm397ELm31ELj2567483615ELm11ELj4294967295ELm7ELj2636928640ELm15ELj4022730752ELm18ELj1812433253EEEEUlRKT_RKT0_E_PNS_4pairINS_5tupleIJiiiEEEdEEEEvT1_SL_OSB_, symObjAddr: 0x262B0, symBinAddr: 0x100029DB0, symSize: 0x90 }
  - { offsetInCU: 0x49E62, offset: 0x49E62, size: 0x8, addend: 0x0, symName: __ZNSt3__110__pop_heapB7v160006INS_17_ClassicAlgPolicyEZN18regret_k_insertion15repair_solutionER15PDPTWT_solutionRNS_23mersenne_twister_engineIjLm32ELm624ELm397ELm31ELj2567483615ELm11ELj4294967295ELm7ELj2636928640ELm15ELj4022730752ELm18ELj1812433253EEEEUlRKT_RKT0_E_PNS_4pairINS_5tupleIJiiiEEEdEEEEvT1_SK_RSB_NS_15iterator_traitsISK_E15difference_typeE, symObjAddr: 0x26340, symBinAddr: 0x100029E40, symSize: 0xFC }
  - { offsetInCU: 0x49F24, offset: 0x49F24, size: 0x8, addend: 0x0, symName: __ZNSt3__19__sift_upB7v160006INS_17_ClassicAlgPolicyERZN18regret_k_insertion15repair_solutionER15PDPTWT_solutionRNS_23mersenne_twister_engineIjLm32ELm624ELm397ELm31ELj2567483615ELm11ELj4294967295ELm7ELj2636928640ELm15ELj4022730752ELm18ELj1812433253EEEEUlRKT_RKT0_E_PNS_4pairINS_5tupleIJiiiEEEdEEEEvT1_SL_OSB_NS_15iterator_traitsISL_E15difference_typeE, symObjAddr: 0x26544, symBinAddr: 0x10002A044, symSize: 0x134 }
  - { offsetInCU: 0x49FE3, offset: 0x49FE3, size: 0x8, addend: 0x0, symName: __ZNSt3__17__sort5IRZN18regret_k_insertion15repair_solutionER15PDPTWT_solutionRNS_23mersenne_twister_engineIjLm32ELm624ELm397ELm31ELj2567483615ELm11ELj4294967295ELm7ELj2636928640ELm15ELj4022730752ELm18ELj1812433253EEEEUlRKT_RKT0_E_PNS_4pairINS_5tupleIJiiiEEEdEEEEjSA_SA_SA_SA_SA_S7_, symObjAddr: 0x26678, symBinAddr: 0x10002A178, symSize: 0x12C }
  - { offsetInCU: 0x4A0E9, offset: 0x4A0E9, size: 0x8, addend: 0x0, symName: __ZNSt3__112__to_addressB7v160006INS_11__wrap_iterIPNS_4pairINS_5tupleIJiiiEEEdEEEEvEENS_5decayIDTclsr19__to_address_helperIT_EE6__callclsr3stdE7declvalIRKS9_EEEEE4typeESB_, symObjAddr: 0x267CC, symBinAddr: 0x10002A2CC, symSize: 0x24 }
  - { offsetInCU: 0x4A1C9, offset: 0x4A1C9, size: 0x8, addend: 0x0, symName: __ZNSt3__112__to_addressB7v160006INS_6vectorINS_4pairINS_5tupleIJiiiEEEdEENS_9allocatorIS5_EEEEEEPT_SA_, symObjAddr: 0x26B58, symBinAddr: 0x10002A658, symSize: 0x14 }
  - { offsetInCU: 0x4A1FE, offset: 0x4A1FE, size: 0x8, addend: 0x0, symName: __ZNSt3__122__make_exception_guardB7v160006INS_6vectorINS_4pairINS_5tupleIJiiiEEEdEENS_9allocatorIS5_EEE16__destroy_vectorEEENS_28__exception_guard_exceptionsIT_EESB_, symObjAddr: 0x26DA4, symBinAddr: 0x10002A8A4, symSize: 0x40 }
  - { offsetInCU: 0x4A233, offset: 0x4A233, size: 0x8, addend: 0x0, symName: __ZNSt3__130__uninitialized_allocator_copyB7v160006INS_9allocatorINS_4pairINS_5tupleIJiiiEEEdEEEEPS5_S7_S7_EET2_RT_T0_T1_S8_, symObjAddr: 0x27074, symBinAddr: 0x10002AB74, symSize: 0xF4 }
  - { offsetInCU: 0x4A2D1, offset: 0x4A2D1, size: 0x8, addend: 0x0, symName: __ZNSt3__122__make_exception_guardB7v160006INS_29_AllocatorDestroyRangeReverseINS_9allocatorINS_4pairINS_5tupleIJiiiEEEdEEEEPS6_EEEENS_28__exception_guard_exceptionsIT_EESB_, symObjAddr: 0x27168, symBinAddr: 0x10002AC68, symSize: 0x4C }
  - { offsetInCU: 0x4A307, offset: 0x4A307, size: 0x8, addend: 0x0, symName: __ZNSt3__119__allocator_destroyB7v160006INS_9allocatorINS_4pairINS_5tupleIJiiiEEEdEEEENS_16reverse_iteratorIPS5_EES9_EEvRT_T0_T1_, symObjAddr: 0x273F8, symBinAddr: 0x10002AEF8, symSize: 0x70 }
  - { offsetInCU: 0x4A36B, offset: 0x4A36B, size: 0x8, addend: 0x0, symName: __ZNSt3__118__debug_db_erase_cB7v160006INS_6vectorINS_4pairINS_5tupleIJiiiEEEdEENS_9allocatorIS5_EEEEEEvPT_, symObjAddr: 0x27554, symBinAddr: 0x10002B054, symSize: 0x10 }
  - { offsetInCU: 0x4A39D, offset: 0x4A39D, size: 0x8, addend: 0x0, symName: __ZNSt3__119__allocate_at_leastB7v160006INS_9allocatorINS_6vectorINS_4pairINS_5tupleIJiiiEEEdEENS1_IS6_EEEEEEEENS_19__allocation_resultINS_16allocator_traitsIT_E7pointerEEERSC_m, symObjAddr: 0x27B80, symBinAddr: 0x10002B680, symSize: 0x40 }
  - { offsetInCU: 0x4A3E5, offset: 0x4A3E5, size: 0x8, addend: 0x0, symName: __ZNSt3__142__uninitialized_allocator_move_if_noexceptB7v160006INS_9allocatorINS_6vectorINS_4pairINS_5tupleIJiiiEEEdEENS1_IS6_EEEEEENS_16reverse_iteratorIPS8_EESC_SC_EET2_RT_T0_T1_SD_, symObjAddr: 0x27E0C, symBinAddr: 0x10002B90C, symSize: 0x12C }
  - { offsetInCU: 0x4A486, offset: 0x4A486, size: 0x8, addend: 0x0, symName: __ZNSt3__14swapB7v160006IPNS_6vectorINS_4pairINS_5tupleIJiiiEEEdEENS_9allocatorIS5_EEEEEENS_9enable_ifIXaasr21is_move_constructibleIT_EE5valuesr18is_move_assignableISB_EE5valueEvE4typeERSB_SE_, symObjAddr: 0x27F84, symBinAddr: 0x10002BA84, symSize: 0x3C }
  - { offsetInCU: 0x4A4DF, offset: 0x4A4DF, size: 0x8, addend: 0x0, symName: __ZNSt3__125__debug_db_invalidate_allB7v160006INS_6vectorINS1_INS_4pairINS_5tupleIJiiiEEEdEENS_9allocatorIS5_EEEENS6_IS8_EEEEEEvPT_, symObjAddr: 0x28088, symBinAddr: 0x10002BB88, symSize: 0x10 }
  - { offsetInCU: 0x4A510, offset: 0x4A510, size: 0x8, addend: 0x0, symName: __ZNSt3__122__make_exception_guardB7v160006INS_29_AllocatorDestroyRangeReverseINS_9allocatorINS_6vectorINS_4pairINS_5tupleIJiiiEEEdEENS2_IS7_EEEEEENS_16reverse_iteratorIPS9_EEEEEENS_28__exception_guard_exceptionsIT_EESG_, symObjAddr: 0x280E0, symBinAddr: 0x10002BBE0, symSize: 0x4C }
  - { offsetInCU: 0x4A546, offset: 0x4A546, size: 0x8, addend: 0x0, symName: __ZNSt3__1neB7v160006IPNS_6vectorINS_4pairINS_5tupleIJiiiEEEdEENS_9allocatorIS5_EEEES9_EEbRKNS_16reverse_iteratorIT_EERKNSA_IT0_EE, symObjAddr: 0x28170, symBinAddr: 0x10002BC70, symSize: 0x48 }
  - { offsetInCU: 0x4A592, offset: 0x4A592, size: 0x8, addend: 0x0, symName: __ZNSt3__112__to_addressB7v160006INS_16reverse_iteratorIPNS_6vectorINS_4pairINS_5tupleIJiiiEEEdEENS_9allocatorIS6_EEEEEEvEENS_5decayIDTclsr19__to_address_helperIT_EE6__callclsr3stdE7declvalIRKSD_EEEEE4typeESF_, symObjAddr: 0x281EC, symBinAddr: 0x10002BCEC, symSize: 0x24 }
  - { offsetInCU: 0x4A5C9, offset: 0x4A5C9, size: 0x8, addend: 0x0, symName: __ZNSt3__115__debug_db_swapB7v160006INS_6vectorINS_4pairINS_5tupleIJiiiEEEdEENS_9allocatorIS5_EEEEEEvPT_SA_, symObjAddr: 0x2847C, symBinAddr: 0x10002BF7C, symSize: 0x14 }
  - { offsetInCU: 0x4A631, offset: 0x4A631, size: 0x8, addend: 0x0, symName: __ZNSt3__119__allocator_destroyB7v160006INS_9allocatorINS_6vectorINS_4pairINS_5tupleIJiiiEEEdEENS1_IS6_EEEEEENS_16reverse_iteratorINSA_IPS8_EEEESD_EEvRT_T0_T1_, symObjAddr: 0x285F0, symBinAddr: 0x10002C0F0, symSize: 0x70 }
  - { offsetInCU: 0x4A696, offset: 0x4A696, size: 0x8, addend: 0x0, symName: __ZNSt3__1neB7v160006INS_16reverse_iteratorIPNS_6vectorINS_4pairINS_5tupleIJiiiEEEdEENS_9allocatorIS6_EEEEEESB_EEbRKNS1_IT_EERKNS1_IT0_EE, symObjAddr: 0x2869C, symBinAddr: 0x10002C19C, symSize: 0x60 }
  - { offsetInCU: 0x4A6E2, offset: 0x4A6E2, size: 0x8, addend: 0x0, symName: __ZNSt3__112__to_addressB7v160006INS_16reverse_iteratorINS1_IPNS_6vectorINS_4pairINS_5tupleIJiiiEEEdEENS_9allocatorIS6_EEEEEEEEvEENS_5decayIDTclsr19__to_address_helperIT_EE6__callclsr3stdE7declvalIRKSE_EEEEE4typeESG_, symObjAddr: 0x28728, symBinAddr: 0x10002C228, symSize: 0x24 }
  - { offsetInCU: 0x4A741, offset: 0x4A741, size: 0x8, addend: 0x0, symName: __ZNSt3__124__memberwise_copy_assignB7v160006INS_5tupleIJiiiEEES2_JLm0ELm1ELm2EEEEvRT_RKT0_NS_15__tuple_indicesIJXspT1_EEEE, symObjAddr: 0x28C58, symBinAddr: 0x10002C758, symSize: 0xB0 }
  - { offsetInCU: 0x4A7B0, offset: 0x4A7B0, size: 0x8, addend: 0x0, symName: __ZNSt3__13getB7v160006ILm0EJiiiEEERKNS_13tuple_elementIXT_ENS_5tupleIJDpT0_EEEE4typeERKS5_, symObjAddr: 0x28D08, symBinAddr: 0x10002C808, symSize: 0x24 }
  - { offsetInCU: 0x4A7FD, offset: 0x4A7FD, size: 0x8, addend: 0x0, symName: __ZNSt3__13getB7v160006ILm1EJiiiEEERKNS_13tuple_elementIXT_ENS_5tupleIJDpT0_EEEE4typeERKS5_, symObjAddr: 0x28D2C, symBinAddr: 0x10002C82C, symSize: 0x28 }
  - { offsetInCU: 0x4A84A, offset: 0x4A84A, size: 0x8, addend: 0x0, symName: __ZNSt3__13getB7v160006ILm2EJiiiEEERKNS_13tuple_elementIXT_ENS_5tupleIJDpT0_EEEE4typeERKS5_, symObjAddr: 0x28D54, symBinAddr: 0x10002C854, symSize: 0x28 }
  - { offsetInCU: 0x4A897, offset: 0x4A897, size: 0x8, addend: 0x0, symName: __ZNSt3__1miB7v160006IPKPK7RequestPS3_EEDTmicldtfp_4baseEcldtfp0_4baseEERKNS_11__wrap_iterIT_EERKNS8_IT0_EE, symObjAddr: 0x28DB8, symBinAddr: 0x10002C8B8, symSize: 0x48 }
  - { offsetInCU: 0x4A8E3, offset: 0x4A8E3, size: 0x8, addend: 0x0, symName: __ZNSt3__1neB7v160006IPKPK7RequestEEbRKNS_11__wrap_iterIT_EESA_, symObjAddr: 0x28E00, symBinAddr: 0x10002C900, symSize: 0x34 }
  - { offsetInCU: 0x4A927, offset: 0x4A927, size: 0x8, addend: 0x0, symName: __ZNSt3__14moveB7v160006IPPK7RequestS4_EET0_T_S6_S5_, symObjAddr: 0x28E94, symBinAddr: 0x10002C994, symSize: 0x40 }
  - { offsetInCU: 0x4A988, offset: 0x4A988, size: 0x8, addend: 0x0, symName: __ZNSt3__1miB7v160006IPKPK7RequestS5_EEDTmicldtfp_4baseEcldtfp0_4baseEERKNS_11__wrap_iterIT_EERKNS7_IT0_EE, symObjAddr: 0x28ED4, symBinAddr: 0x10002C9D4, symSize: 0x48 }
  - { offsetInCU: 0x4A9D4, offset: 0x4A9D4, size: 0x8, addend: 0x0, symName: __ZNSt3__1eqB7v160006IPKPK7RequestEEbRKNS_11__wrap_iterIT_EESA_, symObjAddr: 0x28F94, symBinAddr: 0x10002CA94, symSize: 0x48 }
  - { offsetInCU: 0x4AA18, offset: 0x4AA18, size: 0x8, addend: 0x0, symName: __ZNSt3__16__moveB7v160006INS_17_ClassicAlgPolicyEPPK7RequestS5_S5_EENS_4pairIT0_T2_EES7_T1_S8_, symObjAddr: 0x29090, symBinAddr: 0x10002CB90, symSize: 0x44 }
  - { offsetInCU: 0x4AA8C, offset: 0x4AA8C, size: 0x8, addend: 0x0, symName: __ZNSt3__123__dispatch_copy_or_moveB7v160006INS_17_ClassicAlgPolicyENS_11__move_loopIS1_EENS_14__move_trivialEPPK7RequestS8_S8_EENS_4pairIT2_T4_EESA_T3_SB_, symObjAddr: 0x290D4, symBinAddr: 0x10002CBD4, symSize: 0x44 }
  - { offsetInCU: 0x4AB12, offset: 0x4AB12, size: 0x8, addend: 0x0, symName: __ZNSt3__121__unwrap_and_dispatchB7v160006INS_10__overloadINS_11__move_loopINS_17_ClassicAlgPolicyEEENS_14__move_trivialEEEPPK7RequestSA_SA_Li0EEENS_4pairIT0_T2_EESC_T1_SD_, symObjAddr: 0x29118, symBinAddr: 0x10002CC18, symSize: 0xB4 }
  - { offsetInCU: 0x4ABAC, offset: 0x4ABAC, size: 0x8, addend: 0x0, symName: __ZNSt3__114__unwrap_rangeB7v160006IPPK7RequestS4_EENS_4pairIT0_S6_EET_S8_, symObjAddr: 0x291CC, symBinAddr: 0x10002CCCC, symSize: 0x60 }
  - { offsetInCU: 0x4AD01, offset: 0x4AD01, size: 0x8, addend: 0x0, symName: __ZNSt3__113__unwrap_iterB7v160006IPPK7RequestNS_18__unwrap_iter_implIS4_Lb1EEELi0EEEDTclsrT0_8__unwrapclsr3stdE7declvalIT_EEEES8_, symObjAddr: 0x29274, symBinAddr: 0x10002CD74, symSize: 0x24 }
  - { offsetInCU: 0x4AD48, offset: 0x4AD48, size: 0x8, addend: 0x0, symName: __ZNSt3__19make_pairB7v160006IPPK7RequestS4_EENS_4pairINS_18__unwrap_ref_decayIT_E4typeENS6_IT0_E4typeEEEOS7_OSA_, symObjAddr: 0x29298, symBinAddr: 0x10002CD98, symSize: 0x38 }
  - { offsetInCU: 0x4AD98, offset: 0x4AD98, size: 0x8, addend: 0x0, symName: __ZNSt3__114__rewrap_rangeB7v160006IPPK7RequestS4_EET_S5_T0_, symObjAddr: 0x292D0, symBinAddr: 0x10002CDD0, symSize: 0x2C }
  - { offsetInCU: 0x4ADEA, offset: 0x4ADEA, size: 0x8, addend: 0x0, symName: __ZNSt3__113__rewrap_iterB7v160006IPPK7RequestS4_NS_18__unwrap_iter_implIS4_Lb1EEEEET_S7_T0_, symObjAddr: 0x292FC, symBinAddr: 0x10002CDFC, symSize: 0x3C }
  - { offsetInCU: 0x4AE45, offset: 0x4AE45, size: 0x8, addend: 0x0, symName: __ZNSt3__119__copy_trivial_implB7v160006IPK7RequestS3_EENS_4pairIPT_PT0_EES6_S6_S8_, symObjAddr: 0x29338, symBinAddr: 0x10002CE38, symSize: 0x84 }
  - { offsetInCU: 0x4AEB6, offset: 0x4AEB6, size: 0x8, addend: 0x0, symName: __ZNSt3__19make_pairB7v160006IRPPK7RequestS4_EENS_4pairINS_18__unwrap_ref_decayIT_E4typeENS7_IT0_E4typeEEEOS8_OSB_, symObjAddr: 0x293BC, symBinAddr: 0x10002CEBC, symSize: 0x38 }
  - { offsetInCU: 0x4AF61, offset: 0x4AF61, size: 0x8, addend: 0x0, symName: __ZNSt3__14findB7v160006INS_11__wrap_iterIPPK7RequestEES4_EET_S7_S7_RKT0_, symObjAddr: 0x295A8, symBinAddr: 0x10002D0A8, symSize: 0x80 }
  - { offsetInCU: 0x4AFC2, offset: 0x4AFC2, size: 0x8, addend: 0x0, symName: __ZNSt3__1neB7v160006IPPK7RequestEEbRKNS_11__wrap_iterIT_EES9_, symObjAddr: 0x29628, symBinAddr: 0x10002D128, symSize: 0x34 }
  - { offsetInCU: 0x4B005, offset: 0x4B005, size: 0x8, addend: 0x0, symName: __ZNSt3__1eqB7v160006IPPK7RequestEEbRKNS_11__wrap_iterIT_EES9_, symObjAddr: 0x29694, symBinAddr: 0x10002D194, symSize: 0x48 }
  - { offsetInCU: 0x4B049, offset: 0x4B049, size: 0x8, addend: 0x0, symName: __ZNSt3__118__debug_db_erase_cB7v160006INS_6vectorINS1_INS_4pairINS_5tupleIJiiiEEEdEENS_9allocatorIS5_EEEENS6_IS8_EEEEEEvPT_, symObjAddr: 0x29850, symBinAddr: 0x10002D350, symSize: 0x10 }
  - { offsetInCU: 0x4B07A, offset: 0x4B07A, size: 0x8, addend: 0x0, symName: __ZNSt3__111make_uniqueB7v160006I18regret_k_insertionJRKS1_EEENS_11__unique_ifIT_E15__unique_singleEDpOT0_, symObjAddr: 0x29914, symBinAddr: 0x10002D414, symSize: 0x6C }
  - { offsetInCU: 0x4B0BC, offset: 0x4B0BC, size: 0x8, addend: 0x0, symName: __ZNSt3__1eqB7v160006IcNS_11char_traitsIcEENS_9allocatorIcEEEEbRKNS_12basic_stringIT_T0_T1_EEPKS6_, symObjAddr: 0x2B880, symBinAddr: 0x10002F380, symSize: 0xAC }
  - { offsetInCU: 0x4B563, offset: 0x4B563, size: 0x8, addend: 0x0, symName: __ZNSt3__119__debug_db_insert_cB7v160006INS_6vectorIN5boost13property_tree11json_parser6detail18standard_callbacksINS3_11basic_ptreeINS_12basic_stringIcNS_11char_traitsIcEENS_9allocatorIcEEEESD_NS_4lessISD_EEEEE5layerENSB_ISI_EEEEEEvPT_, symObjAddr: 0x2E920, symBinAddr: 0x100032420, symSize: 0x10 }
  - { offsetInCU: 0x4B5BA, offset: 0x4B5BA, size: 0x8, addend: 0x0, symName: __ZNSt3__1neB7v160006IcNS_11char_traitsIcEEEEbRKNS_19istreambuf_iteratorIT_T0_EES8_, symObjAddr: 0x2EE30, symBinAddr: 0x100032930, symSize: 0x34 }
  - { offsetInCU: 0x4B606, offset: 0x4B606, size: 0x8, addend: 0x0, symName: __ZNSt3__1eqB7v160006IcNS_11char_traitsIcEEEEbRKNS_19istreambuf_iteratorIT_T0_EES8_, symObjAddr: 0x2EE90, symBinAddr: 0x100032990, symSize: 0x30 }
  - { offsetInCU: 0x4B652, offset: 0x4B652, size: 0x8, addend: 0x0, symName: __ZNSt3__19make_pairB7v160006INS_12basic_stringIcNS_11char_traitsIcEENS_9allocatorIcEEEEN5boost13property_tree11basic_ptreeIS6_S6_NS_4lessIS6_EEEEEENS_4pairINS_18__unwrap_ref_decayIT_E4typeENSE_IT0_E4typeEEEOSF_OSI_, symObjAddr: 0x304A8, symBinAddr: 0x100033FA8, symSize: 0x40 }
  - { offsetInCU: 0x4B7AF, offset: 0x4B7AF, size: 0x8, addend: 0x0, symName: __ZNSt3__19make_pairB7v160006IRNS_12basic_stringIcNS_11char_traitsIcEENS_9allocatorIcEEEEN5boost13property_tree11basic_ptreeIS6_S6_NS_4lessIS6_EEEEEENS_4pairINS_18__unwrap_ref_decayIT_E4typeENSF_IT0_E4typeEEEOSG_OSJ_, symObjAddr: 0x305A0, symBinAddr: 0x1000340A0, symSize: 0x40 }
  - { offsetInCU: 0x4B7FF, offset: 0x4B7FF, size: 0x8, addend: 0x0, symName: __ZNSt3__112__to_addressB7v160006IN5boost13property_tree11json_parser6detail18standard_callbacksINS2_11basic_ptreeINS_12basic_stringIcNS_11char_traitsIcEENS_9allocatorIcEEEESC_NS_4lessISC_EEEEE5layerEEEPT_SJ_, symObjAddr: 0x3086C, symBinAddr: 0x10003436C, symSize: 0x14 }
  - { offsetInCU: 0x4B835, offset: 0x4B835, size: 0x8, addend: 0x0, symName: __ZNSt3__119__allocate_at_leastB7v160006INS_9allocatorIN5boost13property_tree11json_parser6detail18standard_callbacksINS3_11basic_ptreeINS_12basic_stringIcNS_11char_traitsIcEENS1_IcEEEESC_NS_4lessISC_EEEEE5layerEEEEENS_19__allocation_resultINS_16allocator_traitsIT_E7pointerEEERSL_m, symObjAddr: 0x30E98, symBinAddr: 0x100034998, symSize: 0x40 }
  - { offsetInCU: 0x4B87D, offset: 0x4B87D, size: 0x8, addend: 0x0, symName: __ZNSt3__142__uninitialized_allocator_move_if_noexceptB7v160006INS_9allocatorIN5boost13property_tree11json_parser6detail18standard_callbacksINS3_11basic_ptreeINS_12basic_stringIcNS_11char_traitsIcEENS1_IcEEEESC_NS_4lessISC_EEEEE5layerEEENS_16reverse_iteratorIPSH_EESL_SH_vEET1_RT_T0_SP_SM_, symObjAddr: 0x31104, symBinAddr: 0x100034C04, symSize: 0x78 }
  - { offsetInCU: 0x4B8FC, offset: 0x4B8FC, size: 0x8, addend: 0x0, symName: __ZNSt3__14swapB7v160006IPN5boost13property_tree11json_parser6detail18standard_callbacksINS2_11basic_ptreeINS_12basic_stringIcNS_11char_traitsIcEENS_9allocatorIcEEEESC_NS_4lessISC_EEEEE5layerEEENS_9enable_ifIXaasr21is_move_constructibleIT_EE5valuesr18is_move_assignableISK_EE5valueEvE4typeERSK_SN_, symObjAddr: 0x311C8, symBinAddr: 0x100034CC8, symSize: 0x3C }
  - { offsetInCU: 0x4B955, offset: 0x4B955, size: 0x8, addend: 0x0, symName: __ZNSt3__125__debug_db_invalidate_allB7v160006INS_6vectorIN5boost13property_tree11json_parser6detail18standard_callbacksINS3_11basic_ptreeINS_12basic_stringIcNS_11char_traitsIcEENS_9allocatorIcEEEESD_NS_4lessISD_EEEEE5layerENSB_ISI_EEEEEEvPT_, symObjAddr: 0x312B0, symBinAddr: 0x100034DB0, symSize: 0x10 }
  - { offsetInCU: 0x4B987, offset: 0x4B987, size: 0x8, addend: 0x0, symName: __ZNSt3__14moveB7v160006INS_16reverse_iteratorIPN5boost13property_tree11json_parser6detail18standard_callbacksINS3_11basic_ptreeINS_12basic_stringIcNS_11char_traitsIcEENS_9allocatorIcEEEESD_NS_4lessISD_EEEEE5layerEEESK_EET0_T_SM_SL_, symObjAddr: 0x31308, symBinAddr: 0x100034E08, symSize: 0x78 }
  - { offsetInCU: 0x4B9E9, offset: 0x4B9E9, size: 0x8, addend: 0x0, symName: __ZNSt3__16__moveB7v160006INS_17_ClassicAlgPolicyENS_16reverse_iteratorIPN5boost13property_tree11json_parser6detail18standard_callbacksINS4_11basic_ptreeINS_12basic_stringIcNS_11char_traitsIcEENS_9allocatorIcEEEESE_NS_4lessISE_EEEEE5layerEEESL_SL_EENS_4pairIT0_T2_EESN_T1_SO_, symObjAddr: 0x31380, symBinAddr: 0x100034E80, symSize: 0x64 }
  - { offsetInCU: 0x4BA5D, offset: 0x4BA5D, size: 0x8, addend: 0x0, symName: __ZNSt3__123__dispatch_copy_or_moveB7v160006INS_17_ClassicAlgPolicyENS_11__move_loopIS1_EENS_14__move_trivialENS_16reverse_iteratorIPN5boost13property_tree11json_parser6detail18standard_callbacksINS7_11basic_ptreeINS_12basic_stringIcNS_11char_traitsIcEENS_9allocatorIcEEEESH_NS_4lessISH_EEEEE5layerEEESO_SO_EENS_4pairIT2_T4_EESQ_T3_SR_, symObjAddr: 0x313E4, symBinAddr: 0x100034EE4, symSize: 0x64 }
  - { offsetInCU: 0x4BAE3, offset: 0x4BAE3, size: 0x8, addend: 0x0, symName: __ZNSt3__121__unwrap_and_dispatchB7v160006INS_10__overloadINS_11__move_loopINS_17_ClassicAlgPolicyEEENS_14__move_trivialEEENS_16reverse_iteratorIPN5boost13property_tree11json_parser6detail18standard_callbacksINS9_11basic_ptreeINS_12basic_stringIcNS_11char_traitsIcEENS_9allocatorIcEEEESJ_NS_4lessISJ_EEEEE5layerEEESQ_SQ_Li0EEENS_4pairIT0_T2_EESS_T1_ST_, symObjAddr: 0x31448, symBinAddr: 0x100034F48, symSize: 0x12C }
  - { offsetInCU: 0x4BB7F, offset: 0x4BB7F, size: 0x8, addend: 0x0, symName: __ZNSt3__114__unwrap_rangeB7v160006INS_16reverse_iteratorIPN5boost13property_tree11json_parser6detail18standard_callbacksINS3_11basic_ptreeINS_12basic_stringIcNS_11char_traitsIcEENS_9allocatorIcEEEESD_NS_4lessISD_EEEEE5layerEEESK_EENS_4pairIT0_SM_EET_SO_, symObjAddr: 0x31574, symBinAddr: 0x100035074, symSize: 0x84 }
  - { offsetInCU: 0x4BCA5, offset: 0x4BCA5, size: 0x8, addend: 0x0, symName: __ZNSt3__113__unwrap_iterB7v160006INS_16reverse_iteratorIPN5boost13property_tree11json_parser6detail18standard_callbacksINS3_11basic_ptreeINS_12basic_stringIcNS_11char_traitsIcEENS_9allocatorIcEEEESD_NS_4lessISD_EEEEE5layerEEENS_18__unwrap_iter_implISK_Lb0EEELi0EEEDTclsrT0_8__unwrapclsr3stdE7declvalIT_EEEESO_, symObjAddr: 0x31698, symBinAddr: 0x100035198, symSize: 0x44 }
  - { offsetInCU: 0x4BCEC, offset: 0x4BCEC, size: 0x8, addend: 0x0, symName: __ZNSt3__19make_pairB7v160006INS_16reverse_iteratorIPN5boost13property_tree11json_parser6detail18standard_callbacksINS3_11basic_ptreeINS_12basic_stringIcNS_11char_traitsIcEENS_9allocatorIcEEEESD_NS_4lessISD_EEEEE5layerEEESK_EENS_4pairINS_18__unwrap_ref_decayIT_E4typeENSM_IT0_E4typeEEEOSN_OSQ_, symObjAddr: 0x316DC, symBinAddr: 0x1000351DC, symSize: 0x38 }
  - { offsetInCU: 0x4BD3C, offset: 0x4BD3C, size: 0x8, addend: 0x0, symName: __ZNSt3__114__rewrap_rangeB7v160006INS_16reverse_iteratorIPN5boost13property_tree11json_parser6detail18standard_callbacksINS3_11basic_ptreeINS_12basic_stringIcNS_11char_traitsIcEENS_9allocatorIcEEEESD_NS_4lessISD_EEEEE5layerEEESK_EET_SL_T0_, symObjAddr: 0x31714, symBinAddr: 0x100035214, symSize: 0x5C }
  - { offsetInCU: 0x4BD8E, offset: 0x4BD8E, size: 0x8, addend: 0x0, symName: __ZNSt3__113__rewrap_iterB7v160006INS_16reverse_iteratorIPN5boost13property_tree11json_parser6detail18standard_callbacksINS3_11basic_ptreeINS_12basic_stringIcNS_11char_traitsIcEENS_9allocatorIcEEEESD_NS_4lessISD_EEEEE5layerEEESK_NS_18__unwrap_iter_implISK_Lb0EEEEET_SN_T0_, symObjAddr: 0x31770, symBinAddr: 0x100035270, symSize: 0x74 }
  - { offsetInCU: 0x4BDE8, offset: 0x4BDE8, size: 0x8, addend: 0x0, symName: __ZNSt3__1neB7v160006IPN5boost13property_tree11json_parser6detail18standard_callbacksINS2_11basic_ptreeINS_12basic_stringIcNS_11char_traitsIcEENS_9allocatorIcEEEESC_NS_4lessISC_EEEEE5layerESI_EEbRKNS_16reverse_iteratorIT_EERKNSJ_IT0_EE, symObjAddr: 0x317E4, symBinAddr: 0x1000352E4, symSize: 0x48 }
  - { offsetInCU: 0x4BEAA, offset: 0x4BEAA, size: 0x8, addend: 0x0, symName: __ZNSt3__14sortB7v160006IPN5boost11multi_index6detail14copy_map_entryINS3_20sequenced_index_nodeINS3_18ordered_index_nodeINS3_19null_augment_policyENS3_15index_node_baseINS_4pairIKNS_12basic_stringIcNS_11char_traitsIcEENS_9allocatorIcEEEENS1_13property_tree11basic_ptreeISF_SF_NS_4lessISF_EEEEEENSD_ISM_EEEEEEEEEEEEvT_ST_, symObjAddr: 0x33688, symBinAddr: 0x100037188, symSize: 0x2C }
  - { offsetInCU: 0x4BEEC, offset: 0x4BEEC, size: 0x8, addend: 0x0, symName: __ZNSt3__14sortB7v160006IPN5boost11multi_index6detail14copy_map_entryINS3_20sequenced_index_nodeINS3_18ordered_index_nodeINS3_19null_augment_policyENS3_15index_node_baseINS_4pairIKNS_12basic_stringIcNS_11char_traitsIcEENS_9allocatorIcEEEENS1_13property_tree11basic_ptreeISF_SF_NS_4lessISF_EEEEEENSD_ISM_EEEEEEEEEENS_6__lessISR_SR_EEEEvT_SV_T0_, symObjAddr: 0x33700, symBinAddr: 0x100037200, symSize: 0x30 }
  - { offsetInCU: 0x4BF46, offset: 0x4BF46, size: 0x8, addend: 0x0, symName: __ZNSt3__111__sort_implB7v160006INS_17_ClassicAlgPolicyEPN5boost11multi_index6detail14copy_map_entryINS4_20sequenced_index_nodeINS4_18ordered_index_nodeINS4_19null_augment_policyENS4_15index_node_baseINS_4pairIKNS_12basic_stringIcNS_11char_traitsIcEENS_9allocatorIcEEEENS2_13property_tree11basic_ptreeISG_SG_NS_4lessISG_EEEEEENSE_ISN_EEEEEEEEEENS_6__lessISS_SS_EEEEvT0_SW_RT1_, symObjAddr: 0x33730, symBinAddr: 0x100037230, symSize: 0x64 }
  - { offsetInCU: 0x4BFEE, offset: 0x4BFEE, size: 0x8, addend: 0x0, symName: __ZNSt3__123__debug_randomize_rangeB7v160006INS_17_ClassicAlgPolicyEPN5boost11multi_index6detail14copy_map_entryINS4_20sequenced_index_nodeINS4_18ordered_index_nodeINS4_19null_augment_policyENS4_15index_node_baseINS_4pairIKNS_12basic_stringIcNS_11char_traitsIcEENS_9allocatorIcEEEENS2_13property_tree11basic_ptreeISG_SG_NS_4lessISG_EEEEEENSE_ISN_EEEEEEEEEEST_EEvT0_T1_, symObjAddr: 0x33794, symBinAddr: 0x100037294, symSize: 0x14 }
  - { offsetInCU: 0x4C044, offset: 0x4C044, size: 0x8, addend: 0x0, symName: __ZNSt3__16__sortIRNS_6__lessIN5boost11multi_index6detail14copy_map_entryINS4_20sequenced_index_nodeINS4_18ordered_index_nodeINS4_19null_augment_policyENS4_15index_node_baseINS_4pairIKNS_12basic_stringIcNS_11char_traitsIcEENS_9allocatorIcEEEENS2_13property_tree11basic_ptreeISG_SG_NS_4lessISG_EEEEEENSE_ISN_EEEEEEEEEESS_EEPSS_EEvT0_SW_T_, symObjAddr: 0x337A8, symBinAddr: 0x1000372A8, symSize: 0x68 }
  - { offsetInCU: 0x4C0D5, offset: 0x4C0D5, size: 0x8, addend: 0x0, symName: __ZNSt3__113__unwrap_iterB7v160006IPN5boost11multi_index6detail14copy_map_entryINS3_20sequenced_index_nodeINS3_18ordered_index_nodeINS3_19null_augment_policyENS3_15index_node_baseINS_4pairIKNS_12basic_stringIcNS_11char_traitsIcEENS_9allocatorIcEEEENS1_13property_tree11basic_ptreeISF_SF_NS_4lessISF_EEEEEENSD_ISM_EEEEEEEEEENS_18__unwrap_iter_implISS_Lb1EEELi0EEEDTclsrT0_8__unwrapclsr3stdE7declvalIT_EEEESW_, symObjAddr: 0x33810, symBinAddr: 0x100037310, symSize: 0x24 }
  - { offsetInCU: 0x4C18E, offset: 0x4C18E, size: 0x8, addend: 0x0, symName: __ZNSt3__124__sort3_maybe_branchlessB7v160006INS_17_ClassicAlgPolicyERNS_6__lessIN5boost11multi_index6detail14copy_map_entryINS5_20sequenced_index_nodeINS5_18ordered_index_nodeINS5_19null_augment_policyENS5_15index_node_baseINS_4pairIKNS_12basic_stringIcNS_11char_traitsIcEENS_9allocatorIcEEEENS3_13property_tree11basic_ptreeISH_SH_NS_4lessISH_EEEEEENSF_ISO_EEEEEEEEEEST_EEPST_EENS_9enable_ifIXntsr21__use_branchless_sortIT0_T1_EE5valueEvE4typeESZ_SZ_SZ_SY_, symObjAddr: 0x33F80, symBinAddr: 0x100037A80, symSize: 0x3C }
  - { offsetInCU: 0x4C1FF, offset: 0x4C1FF, size: 0x8, addend: 0x0, symName: __ZNSt3__124__sort4_maybe_branchlessB7v160006INS_17_ClassicAlgPolicyERNS_6__lessIN5boost11multi_index6detail14copy_map_entryINS5_20sequenced_index_nodeINS5_18ordered_index_nodeINS5_19null_augment_policyENS5_15index_node_baseINS_4pairIKNS_12basic_stringIcNS_11char_traitsIcEENS_9allocatorIcEEEENS3_13property_tree11basic_ptreeISH_SH_NS_4lessISH_EEEEEENSF_ISO_EEEEEEEEEEST_EEPST_EENS_9enable_ifIXntsr21__use_branchless_sortIT0_T1_EE5valueEvE4typeESZ_SZ_SZ_SZ_SY_, symObjAddr: 0x33FBC, symBinAddr: 0x100037ABC, symSize: 0x44 }
  - { offsetInCU: 0x4C284, offset: 0x4C284, size: 0x8, addend: 0x0, symName: __ZNSt3__124__sort5_maybe_branchlessB7v160006INS_17_ClassicAlgPolicyERNS_6__lessIN5boost11multi_index6detail14copy_map_entryINS5_20sequenced_index_nodeINS5_18ordered_index_nodeINS5_19null_augment_policyENS5_15index_node_baseINS_4pairIKNS_12basic_stringIcNS_11char_traitsIcEENS_9allocatorIcEEEENS3_13property_tree11basic_ptreeISH_SH_NS_4lessISH_EEEEEENSF_ISO_EEEEEEEEEEST_EEPST_EENS_9enable_ifIXntsr21__use_branchless_sortIT0_T1_EE5valueEvE4typeESZ_SZ_SZ_SZ_SZ_SY_, symObjAddr: 0x34000, symBinAddr: 0x100037B00, symSize: 0x4C }
  - { offsetInCU: 0x4C319, offset: 0x4C319, size: 0x8, addend: 0x0, symName: __ZNSt3__114__partial_sortB7v160006INS_17_ClassicAlgPolicyERNS_6__lessIN5boost11multi_index6detail14copy_map_entryINS5_20sequenced_index_nodeINS5_18ordered_index_nodeINS5_19null_augment_policyENS5_15index_node_baseINS_4pairIKNS_12basic_stringIcNS_11char_traitsIcEENS_9allocatorIcEEEENS3_13property_tree11basic_ptreeISH_SH_NS_4lessISH_EEEEEENSF_ISO_EEEEEEEEEEST_EEPST_SW_EET1_SX_SX_T2_RT0_, symObjAddr: 0x34190, symBinAddr: 0x100037C90, symSize: 0x94 }
  - { offsetInCU: 0x4C3AC, offset: 0x4C3AC, size: 0x8, addend: 0x0, symName: __ZNSt3__119__sort5_wrap_policyB7v160006INS_17_ClassicAlgPolicyERNS_6__lessIN5boost11multi_index6detail14copy_map_entryINS5_20sequenced_index_nodeINS5_18ordered_index_nodeINS5_19null_augment_policyENS5_15index_node_baseINS_4pairIKNS_12basic_stringIcNS_11char_traitsIcEENS_9allocatorIcEEEENS3_13property_tree11basic_ptreeISH_SH_NS_4lessISH_EEEEEENSF_ISO_EEEEEEEEEEST_EEPST_EEjT1_SX_SX_SX_SX_T0_, symObjAddr: 0x34224, symBinAddr: 0x100037D24, symSize: 0x54 }
  - { offsetInCU: 0x4C452, offset: 0x4C452, size: 0x8, addend: 0x0, symName: __ZNSt3__17__sort3B7v160006INS_17_ClassicAlgPolicyERNS_6__lessIN5boost11multi_index6detail14copy_map_entryINS5_20sequenced_index_nodeINS5_18ordered_index_nodeINS5_19null_augment_policyENS5_15index_node_baseINS_4pairIKNS_12basic_stringIcNS_11char_traitsIcEENS_9allocatorIcEEEENS3_13property_tree11basic_ptreeISH_SH_NS_4lessISH_EEEEEENSF_ISO_EEEEEEEEEEST_EEPST_EEjT1_SX_SX_T0_, symObjAddr: 0x34278, symBinAddr: 0x100037D78, symSize: 0x144 }
  - { offsetInCU: 0x4C53C, offset: 0x4C53C, size: 0x8, addend: 0x0, symName: __ZNSt3__19iter_swapB7v160006IPN5boost11multi_index6detail14copy_map_entryINS3_20sequenced_index_nodeINS3_18ordered_index_nodeINS3_19null_augment_policyENS3_15index_node_baseINS_4pairIKNS_12basic_stringIcNS_11char_traitsIcEENS_9allocatorIcEEEENS1_13property_tree11basic_ptreeISF_SF_NS_4lessISF_EEEEEENSD_ISM_EEEEEEEEEESS_EEvT_T0_, symObjAddr: 0x3474C, symBinAddr: 0x10003824C, symSize: 0x2C }
  - { offsetInCU: 0x4C58A, offset: 0x4C58A, size: 0x8, addend: 0x0, symName: __ZNSt3__14swapB7v160006IN5boost11multi_index6detail14copy_map_entryINS3_20sequenced_index_nodeINS3_18ordered_index_nodeINS3_19null_augment_policyENS3_15index_node_baseINS_4pairIKNS_12basic_stringIcNS_11char_traitsIcEENS_9allocatorIcEEEENS1_13property_tree11basic_ptreeISF_SF_NS_4lessISF_EEEEEENSD_ISM_EEEEEEEEEEEENS_9enable_ifIXaasr21is_move_constructibleIT_EE5valuesr18is_move_assignableIST_EE5valueEvE4typeERST_SW_, symObjAddr: 0x34778, symBinAddr: 0x100038278, symSize: 0x3C }
  - { offsetInCU: 0x4C5E2, offset: 0x4C5E2, size: 0x8, addend: 0x0, symName: __ZNSt3__17__sort4B7v160006INS_17_ClassicAlgPolicyERNS_6__lessIN5boost11multi_index6detail14copy_map_entryINS5_20sequenced_index_nodeINS5_18ordered_index_nodeINS5_19null_augment_policyENS5_15index_node_baseINS_4pairIKNS_12basic_stringIcNS_11char_traitsIcEENS_9allocatorIcEEEENS3_13property_tree11basic_ptreeISH_SH_NS_4lessISH_EEEEEENSF_ISO_EEEEEEEEEEST_EEPST_EEjT1_SX_SX_SX_T0_, symObjAddr: 0x347B4, symBinAddr: 0x1000382B4, symSize: 0xE4 }
  - { offsetInCU: 0x4C698, offset: 0x4C698, size: 0x8, addend: 0x0, symName: __ZNSt3__119__partial_sort_implB7v160006INS_17_ClassicAlgPolicyERNS_6__lessIN5boost11multi_index6detail14copy_map_entryINS5_20sequenced_index_nodeINS5_18ordered_index_nodeINS5_19null_augment_policyENS5_15index_node_baseINS_4pairIKNS_12basic_stringIcNS_11char_traitsIcEENS_9allocatorIcEEEENS3_13property_tree11basic_ptreeISH_SH_NS_4lessISH_EEEEEENSF_ISO_EEEEEEEEEEST_EEPST_SW_EET1_SX_SX_T2_OT0_, symObjAddr: 0x348DC, symBinAddr: 0x1000383DC, symSize: 0x110 }
  - { offsetInCU: 0x4C73C, offset: 0x4C73C, size: 0x8, addend: 0x0, symName: __ZNSt3__111__make_heapB7v160006INS_17_ClassicAlgPolicyERNS_6__lessIN5boost11multi_index6detail14copy_map_entryINS5_20sequenced_index_nodeINS5_18ordered_index_nodeINS5_19null_augment_policyENS5_15index_node_baseINS_4pairIKNS_12basic_stringIcNS_11char_traitsIcEENS_9allocatorIcEEEENS3_13property_tree11basic_ptreeISH_SH_NS_4lessISH_EEEEEENSF_ISO_EEEEEEEEEEST_EEPST_EEvT1_SX_OT0_, symObjAddr: 0x349EC, symBinAddr: 0x1000384EC, symSize: 0xB8 }
  - { offsetInCU: 0x4C7EE, offset: 0x4C7EE, size: 0x8, addend: 0x0, symName: __ZNSt3__111__sort_heapB7v160006INS_17_ClassicAlgPolicyERNS_6__lessIN5boost11multi_index6detail14copy_map_entryINS5_20sequenced_index_nodeINS5_18ordered_index_nodeINS5_19null_augment_policyENS5_15index_node_baseINS_4pairIKNS_12basic_stringIcNS_11char_traitsIcEENS_9allocatorIcEEEENS3_13property_tree11basic_ptreeISH_SH_NS_4lessISH_EEEEEENSF_ISO_EEEEEEEEEEST_EEPST_EEvT1_SX_OT0_, symObjAddr: 0x34CB0, symBinAddr: 0x1000387B0, symSize: 0x90 }
  - { offsetInCU: 0x4C890, offset: 0x4C890, size: 0x8, addend: 0x0, symName: __ZNSt3__110__pop_heapB7v160006INS_17_ClassicAlgPolicyENS_6__lessIN5boost11multi_index6detail14copy_map_entryINS5_20sequenced_index_nodeINS5_18ordered_index_nodeINS5_19null_augment_policyENS5_15index_node_baseINS_4pairIKNS_12basic_stringIcNS_11char_traitsIcEENS_9allocatorIcEEEENS3_13property_tree11basic_ptreeISH_SH_NS_4lessISH_EEEEEENSF_ISO_EEEEEEEEEEST_EEPST_EEvT1_SW_RT0_NS_15iterator_traitsISW_E15difference_typeE, symObjAddr: 0x34D40, symBinAddr: 0x100038840, symSize: 0xF4 }
  - { offsetInCU: 0x4C952, offset: 0x4C952, size: 0x8, addend: 0x0, symName: __ZNSt3__19__sift_upB7v160006INS_17_ClassicAlgPolicyERNS_6__lessIN5boost11multi_index6detail14copy_map_entryINS5_20sequenced_index_nodeINS5_18ordered_index_nodeINS5_19null_augment_policyENS5_15index_node_baseINS_4pairIKNS_12basic_stringIcNS_11char_traitsIcEENS_9allocatorIcEEEENS3_13property_tree11basic_ptreeISH_SH_NS_4lessISH_EEEEEENSF_ISO_EEEEEEEEEEST_EEPST_EEvT1_SX_OT0_NS_15iterator_traitsISX_E15difference_typeE, symObjAddr: 0x34F34, symBinAddr: 0x100038A34, symSize: 0x11C }
  - { offsetInCU: 0x4CA11, offset: 0x4CA11, size: 0x8, addend: 0x0, symName: __ZNSt3__17__sort5IRNS_6__lessIN5boost11multi_index6detail14copy_map_entryINS4_20sequenced_index_nodeINS4_18ordered_index_nodeINS4_19null_augment_policyENS4_15index_node_baseINS_4pairIKNS_12basic_stringIcNS_11char_traitsIcEENS_9allocatorIcEEEENS2_13property_tree11basic_ptreeISG_SG_NS_4lessISG_EEEEEENSE_ISN_EEEEEEEEEESS_EEPSS_EEjT0_SW_SW_SW_SW_T_, symObjAddr: 0x35050, symBinAddr: 0x100038B50, symSize: 0x12C }
  - { offsetInCU: 0x4CB18, offset: 0x4CB18, size: 0x8, addend: 0x0, symName: __ZNSt3__112__to_addressB7v160006IN5boost11multi_index6detail14copy_map_entryINS3_20sequenced_index_nodeINS3_18ordered_index_nodeINS3_19null_augment_policyENS3_15index_node_baseINS_4pairIKNS_12basic_stringIcNS_11char_traitsIcEENS_9allocatorIcEEEENS1_13property_tree11basic_ptreeISF_SF_NS_4lessISF_EEEEEENSD_ISM_EEEEEEEEEEEEPT_ST_, symObjAddr: 0x351A0, symBinAddr: 0x100038CA0, symSize: 0x14 }
  - { offsetInCU: 0x4CB4E, offset: 0x4CB4E, size: 0x8, addend: 0x0, symName: __ZNSt3__111lower_boundB7v160006IPKN5boost11multi_index6detail14copy_map_entryINS3_20sequenced_index_nodeINS3_18ordered_index_nodeINS3_19null_augment_policyENS3_15index_node_baseINS_4pairIKNS_12basic_stringIcNS_11char_traitsIcEENS_9allocatorIcEEEENS1_13property_tree11basic_ptreeISF_SF_NS_4lessISF_EEEEEENSD_ISM_EEEEEEEEEESR_EET_SU_SU_RKT0_, symObjAddr: 0x356D8, symBinAddr: 0x1000391D8, symSize: 0x34 }
  - { offsetInCU: 0x4CBB0, offset: 0x4CBB0, size: 0x8, addend: 0x0, symName: __ZNSt3__111lower_boundB7v160006IPKN5boost11multi_index6detail14copy_map_entryINS3_20sequenced_index_nodeINS3_18ordered_index_nodeINS3_19null_augment_policyENS3_15index_node_baseINS_4pairIKNS_12basic_stringIcNS_11char_traitsIcEENS_9allocatorIcEEEENS1_13property_tree11basic_ptreeISF_SF_NS_4lessISF_EEEEEENSD_ISM_EEEEEEEEEESR_NS_6__lessISR_SR_EEEET_SW_SW_RKT0_T1_, symObjAddr: 0x357C4, symBinAddr: 0x1000392C4, symSize: 0x48 }
  - { offsetInCU: 0x4CC3B, offset: 0x4CC3B, size: 0x8, addend: 0x0, symName: __ZNSt3__118__lower_bound_implB7v160006INS_17_ClassicAlgPolicyEPKN5boost11multi_index6detail14copy_map_entryINS4_20sequenced_index_nodeINS4_18ordered_index_nodeINS4_19null_augment_policyENS4_15index_node_baseINS_4pairIKNS_12basic_stringIcNS_11char_traitsIcEENS_9allocatorIcEEEENS2_13property_tree11basic_ptreeISG_SG_NS_4lessISG_EEEEEENSE_ISN_EEEEEEEEEESU_SS_NS_10__identityENS_6__lessISS_SS_EEEET0_SY_T1_RKT2_RT4_RT3_, symObjAddr: 0x3580C, symBinAddr: 0x10003930C, symSize: 0xE0 }
  - { offsetInCU: 0x4CD1F, offset: 0x4CD1F, size: 0x8, addend: 0x0, symName: __ZNSt3__115__half_positiveB7v160006IlEENS_9enable_ifIXsr11is_integralIT_EE5valueES2_E4typeES2_, symObjAddr: 0x35918, symBinAddr: 0x100039418, symSize: 0x1C }
  - { offsetInCU: 0x4CD58, offset: 0x4CD58, size: 0x8, addend: 0x0, symName: __ZNSt3__18__invokeB7v160006IRNS_6__lessIN5boost11multi_index6detail14copy_map_entryINS4_20sequenced_index_nodeINS4_18ordered_index_nodeINS4_19null_augment_policyENS4_15index_node_baseINS_4pairIKNS_12basic_stringIcNS_11char_traitsIcEENS_9allocatorIcEEEENS2_13property_tree11basic_ptreeISG_SG_NS_4lessISG_EEEEEENSE_ISN_EEEEEEEEEESS_EEJRKSS_SW_EEEDTclclsr3stdE7declvalIT_EEspclsr3stdE7declvalIT0_EEEEOSX_DpOSY_, symObjAddr: 0x35960, symBinAddr: 0x100039460, symSize: 0x38 }
  - { offsetInCU: 0x4CDC5, offset: 0x4CDC5, size: 0x8, addend: 0x0, symName: __ZNSt3__18__invokeB7v160006IRNS_10__identityEJRKN5boost11multi_index6detail14copy_map_entryINS5_20sequenced_index_nodeINS5_18ordered_index_nodeINS5_19null_augment_policyENS5_15index_node_baseINS_4pairIKNS_12basic_stringIcNS_11char_traitsIcEENS_9allocatorIcEEEENS3_13property_tree11basic_ptreeISH_SH_NS_4lessISH_EEEEEENSF_ISO_EEEEEEEEEEEEEDTclclsr3stdE7declvalIT_EEspclsr3stdE7declvalIT0_EEEEOSW_DpOSX_, symObjAddr: 0x35998, symBinAddr: 0x100039498, symSize: 0x2C }
  - { offsetInCU: 0x4CE1B, offset: 0x4CE1B, size: 0x8, addend: 0x0, symName: __ZNSt3__18distanceB7v160006IPKN5boost11multi_index6detail14copy_map_entryINS3_20sequenced_index_nodeINS3_18ordered_index_nodeINS3_19null_augment_policyENS3_15index_node_baseINS_4pairIKNS_12basic_stringIcNS_11char_traitsIcEENS_9allocatorIcEEEENS1_13property_tree11basic_ptreeISF_SF_NS_4lessISF_EEEEEENSD_ISM_EEEEEEEEEEEENS_15iterator_traitsIT_E15difference_typeESV_SV_, symObjAddr: 0x359C4, symBinAddr: 0x1000394C4, symSize: 0x2C }
  - { offsetInCU: 0x4CE5F, offset: 0x4CE5F, size: 0x8, addend: 0x0, symName: __ZNSt3__110__distanceB7v160006IPKN5boost11multi_index6detail14copy_map_entryINS3_20sequenced_index_nodeINS3_18ordered_index_nodeINS3_19null_augment_policyENS3_15index_node_baseINS_4pairIKNS_12basic_stringIcNS_11char_traitsIcEENS_9allocatorIcEEEENS1_13property_tree11basic_ptreeISF_SF_NS_4lessISF_EEEEEENSD_ISM_EEEEEEEEEEEENS_15iterator_traitsIT_E15difference_typeESV_SV_NS_26random_access_iterator_tagE, symObjAddr: 0x359F0, symBinAddr: 0x1000394F0, symSize: 0x28 }
  - { offsetInCU: 0x4CEAE, offset: 0x4CEAE, size: 0x8, addend: 0x0, symName: __ZNSt3__19__advanceB7v160006IPKN5boost11multi_index6detail14copy_map_entryINS3_20sequenced_index_nodeINS3_18ordered_index_nodeINS3_19null_augment_policyENS3_15index_node_baseINS_4pairIKNS_12basic_stringIcNS_11char_traitsIcEENS_9allocatorIcEEEENS1_13property_tree11basic_ptreeISF_SF_NS_4lessISF_EEEEEENSD_ISM_EEEEEEEEEEEEvRT_NS_15iterator_traitsISU_E15difference_typeENS_26random_access_iterator_tagE, symObjAddr: 0x35A68, symBinAddr: 0x100039568, symSize: 0x28 }
  - { offsetInCU: 0x4CF2A, offset: 0x4CF2A, size: 0x8, addend: 0x0, symName: __ZNSt3__119__debug_db_insert_cB7v160006INS_12basic_stringIcNS_11char_traitsIcEENS_9allocatorIcEEEEEEvPT_, symObjAddr: 0x36DA0, symBinAddr: 0x10003A8A0, symSize: 0x10 }
  - { offsetInCU: 0x4CF5C, offset: 0x4CF5C, size: 0x8, addend: 0x0, symName: __ZNSt3__115__debug_db_swapB7v160006INS_12basic_stringIcNS_11char_traitsIcEENS_9allocatorIcEEEEEEvPT_S8_, symObjAddr: 0x36DB0, symBinAddr: 0x10003A8B0, symSize: 0x14 }
  - { offsetInCU: 0x4D37F, offset: 0x4D37F, size: 0x8, addend: 0x0, symName: __ZNSt3__125__debug_db_invalidate_allB7v160006INS_12basic_stringIcNS_11char_traitsIcEENS_9allocatorIcEEEEEEvPT_, symObjAddr: 0x37B5C, symBinAddr: 0x10003B65C, symSize: 0x10 }
  - { offsetInCU: 0x4DA4E, offset: 0x4DA4E, size: 0x8, addend: 0x0, symName: __ZNSt3__13getB7v160006ILm0EJN5boost17reference_wrapperINS1_13property_tree11json_parser6detail18standard_callbacksINS3_11basic_ptreeINS_12basic_stringIcNS_11char_traitsIcEENS_9allocatorIcEEEESD_NS_4lessISD_EEEEEEEENS1_3argILi1EEEEEERNS_13tuple_elementIXT_ENS_5tupleIJDpT0_EEEE4typeERSP_, symObjAddr: 0x384D4, symBinAddr: 0x10003BFD4, symSize: 0x24 }
  - { offsetInCU: 0x4DA96, offset: 0x4DA96, size: 0x8, addend: 0x0, symName: __ZNSt3__13getB7v160006ILm1EJN5boost17reference_wrapperINS1_13property_tree11json_parser6detail18standard_callbacksINS3_11basic_ptreeINS_12basic_stringIcNS_11char_traitsIcEENS_9allocatorIcEEEESD_NS_4lessISD_EEEEEEEENS1_3argILi1EEEEEERNS_13tuple_elementIXT_ENS_5tupleIJDpT0_EEEE4typeERSP_, symObjAddr: 0x3851C, symBinAddr: 0x10003C01C, symSize: 0x24 }
  - { offsetInCU: 0x4DADE, offset: 0x4DADE, size: 0x8, addend: 0x0, symName: __ZNSt3__13getB7v160006ILm0EJRcEEERKNS_13tuple_elementIXT_ENS_5tupleIJDpT0_EEEE4typeERKS6_, symObjAddr: 0x38554, symBinAddr: 0x10003C054, symSize: 0x24 }
  - { offsetInCU: 0x4DB3D, offset: 0x4DB3D, size: 0x8, addend: 0x0, symName: __ZNSt3__13getB7v160006ILm0EJN5boost3_bi5valueIPNS1_13property_tree11json_parser6detail6parserINS6_18standard_callbacksINS4_11basic_ptreeINS_12basic_stringIcNS_11char_traitsIcEENS_9allocatorIcEEEESF_NS_4lessISF_EEEEEENS6_8encodingIcEENS_19istreambuf_iteratorIcSC_EESN_EEEENS3_IPKcEEEEERNS_13tuple_elementIXT_ENS_5tupleIJDpT0_EEEE4typeERSY_, symObjAddr: 0x3900C, symBinAddr: 0x10003CB0C, symSize: 0x24 }
  - { offsetInCU: 0x4DB85, offset: 0x4DB85, size: 0x8, addend: 0x0, symName: __ZNSt3__13getB7v160006ILm1EJN5boost3_bi5valueIPNS1_13property_tree11json_parser6detail6parserINS6_18standard_callbacksINS4_11basic_ptreeINS_12basic_stringIcNS_11char_traitsIcEENS_9allocatorIcEEEESF_NS_4lessISF_EEEEEENS6_8encodingIcEENS_19istreambuf_iteratorIcSC_EESN_EEEENS3_IPKcEEEEERNS_13tuple_elementIXT_ENS_5tupleIJDpT0_EEEE4typeERSY_, symObjAddr: 0x39058, symBinAddr: 0x10003CB58, symSize: 0x28 }
  - { offsetInCU: 0x4DE8F, offset: 0x4DE8F, size: 0x8, addend: 0x0, symName: __ZNSt3__13getB7v160006ILm0EJRhEEERKNS_13tuple_elementIXT_ENS_5tupleIJDpT0_EEEE4typeERKS6_, symObjAddr: 0x39348, symBinAddr: 0x10003CE48, symSize: 0x24 }
  - { offsetInCU: 0x4DEEF, offset: 0x4DEEF, size: 0x8, addend: 0x0, symName: __ZNSt3__14swapB7v160006IPvEENS_9enable_ifIXaasr21is_move_constructibleIT_EE5valuesr18is_move_assignableIS3_EE5valueEvE4typeERS3_S6_, symObjAddr: 0x3A300, symBinAddr: 0x10003DE00, symSize: 0x3C }
  - { offsetInCU: 0x4DF47, offset: 0x4DF47, size: 0x8, addend: 0x0, symName: __ZNSt3__14swapB7v160006IcNS_11char_traitsIcEENS_9allocatorIcEEEEvRNS_12basic_stringIT_T0_T1_EESA_, symObjAddr: 0x3A368, symBinAddr: 0x10003DE68, symSize: 0x2C }
  - { offsetInCU: 0x4DF9C, offset: 0x4DF9C, size: 0x8, addend: 0x0, symName: __ZNSt3__14swapB7v160006INS_12basic_stringIcNS_11char_traitsIcEENS_9allocatorIcEEE5__repEEENS_9enable_ifIXaasr21is_move_constructibleIT_EE5valuesr18is_move_assignableIS9_EE5valueEvE4typeERS9_SC_, symObjAddr: 0x3A43C, symBinAddr: 0x10003DF3C, symSize: 0x54 }
  - { offsetInCU: 0x4DFF5, offset: 0x4DFF5, size: 0x8, addend: 0x0, symName: __ZNSt3__116__swap_allocatorB7v160006INS_9allocatorIcEEEEvRT_S4_, symObjAddr: 0x3A490, symBinAddr: 0x10003DF90, symSize: 0x2C }
  - { offsetInCU: 0x4E03A, offset: 0x4E03A, size: 0x8, addend: 0x0, symName: __ZNSt3__116__swap_allocatorB7v160006INS_9allocatorIcEEEEvRT_S4_NS_17integral_constantIbLb0EEE, symObjAddr: 0x3A4BC, symBinAddr: 0x10003DFBC, symSize: 0x14 }
  - { offsetInCU: 0x4E083, offset: 0x4E083, size: 0x8, addend: 0x0, symName: __ZNSt3__118__debug_db_erase_cB7v160006INS_6vectorIN5boost13property_tree11json_parser6detail18standard_callbacksINS3_11basic_ptreeINS_12basic_stringIcNS_11char_traitsIcEENS_9allocatorIcEEEESD_NS_4lessISD_EEEEE5layerENSB_ISI_EEEEEEvPT_, symObjAddr: 0x3A674, symBinAddr: 0x10003E174, symSize: 0x10 }
  - { offsetInCU: 0x4E0B4, offset: 0x4E0B4, size: 0x8, addend: 0x0, symName: __ZNSt3__18distanceB7v160006INS_11__wrap_iterIPKcEEEENS_15iterator_traitsIT_E15difference_typeES6_S6_, symObjAddr: 0x3B1A0, symBinAddr: 0x10003ECA0, symSize: 0x3C }
  - { offsetInCU: 0x4E0F7, offset: 0x4E0F7, size: 0x8, addend: 0x0, symName: __ZNSt3__19__advanceB7v160006INS_11__wrap_iterIPcEEEEvRT_NS_15iterator_traitsIS4_E15difference_typeENS_26random_access_iterator_tagE, symObjAddr: 0x3B344, symBinAddr: 0x10003EE44, symSize: 0x2C }
  - { offsetInCU: 0x4E141, offset: 0x4E141, size: 0x8, addend: 0x0, symName: __ZNSt3__110__distanceB7v160006INS_11__wrap_iterIPKcEEEENS_15iterator_traitsIT_E15difference_typeES6_S6_NS_26random_access_iterator_tagE, symObjAddr: 0x3B398, symBinAddr: 0x10003EE98, symSize: 0x30 }
  - { offsetInCU: 0x4E18F, offset: 0x4E18F, size: 0x8, addend: 0x0, symName: __ZNSt3__1miB7v160006IPKcS2_EEDTmicldtfp_4baseEcldtfp0_4baseEERKNS_11__wrap_iterIT_EERKNS4_IT0_EE, symObjAddr: 0x3B3C8, symBinAddr: 0x10003EEC8, symSize: 0x40 }
  - { offsetInCU: 0x4E1DB, offset: 0x4E1DB, size: 0x8, addend: 0x0, symName: __ZNSt3__1eqB7v160006IPcPKcEEbRKNS_11__wrap_iterIT_EERKNS4_IT0_EE, symObjAddr: 0x3B8E4, symBinAddr: 0x10003F3E4, symSize: 0x48 }
  - { offsetInCU: 0x4E228, offset: 0x4E228, size: 0x8, addend: 0x0, symName: __ZNSt3__14findB7v160006INS_11__wrap_iterIPcEEcEET_S4_S4_RKT0_, symObjAddr: 0x3B980, symBinAddr: 0x10003F480, symSize: 0x80 }
  - { offsetInCU: 0x4E289, offset: 0x4E289, size: 0x8, addend: 0x0, symName: __ZNSt3__1neB7v160006IPcEEbRKNS_11__wrap_iterIT_EES6_, symObjAddr: 0x3BB64, symBinAddr: 0x10003F664, symSize: 0x34 }
  - { offsetInCU: 0x4E2CC, offset: 0x4E2CC, size: 0x8, addend: 0x0, symName: __ZNSt3__1eqB7v160006IPcEEbRKNS_11__wrap_iterIT_EES6_, symObjAddr: 0x3BBB0, symBinAddr: 0x10003F6B0, symSize: 0x48 }
  - { offsetInCU: 0x4E30F, offset: 0x4E30F, size: 0x8, addend: 0x0, symName: __ZNSt3__18distanceB7v160006INS_11__wrap_iterIPcEEEENS_15iterator_traitsIT_E15difference_typeES5_S5_, symObjAddr: 0x3BE58, symBinAddr: 0x10003F958, symSize: 0x3C }
  - { offsetInCU: 0x4E352, offset: 0x4E352, size: 0x8, addend: 0x0, symName: __ZNSt3__110__distanceB7v160006INS_11__wrap_iterIPcEEEENS_15iterator_traitsIT_E15difference_typeES5_S5_NS_26random_access_iterator_tagE, symObjAddr: 0x3C0BC, symBinAddr: 0x10003FBBC, symSize: 0x30 }
  - { offsetInCU: 0x4E3A0, offset: 0x4E3A0, size: 0x8, addend: 0x0, symName: __ZNSt3__1miB7v160006IPcS1_EEDTmicldtfp_4baseEcldtfp0_4baseEERKNS_11__wrap_iterIT_EERKNS3_IT0_EE, symObjAddr: 0x3C0EC, symBinAddr: 0x10003FBEC, symSize: 0x40 }
  - { offsetInCU: 0x4E5D8, offset: 0x4E5D8, size: 0x8, addend: 0x0, symName: __ZNSt3__1plB7v160006IcNS_11char_traitsIcEENS_9allocatorIcEEEENS_12basic_stringIT_T0_T1_EEOS9_PKS6_, symObjAddr: 0x3D470, symBinAddr: 0x100040F70, symSize: 0x40 }
  - { offsetInCU: 0x4E630, offset: 0x4E630, size: 0x8, addend: 0x0, symName: __ZNSt3__1plB7v160006IcNS_11char_traitsIcEENS_9allocatorIcEEEENS_12basic_stringIT_T0_T1_EEOS9_SA_, symObjAddr: 0x3D4B0, symBinAddr: 0x100040FB0, symSize: 0x40 }
  - { offsetInCU: 0x4E688, offset: 0x4E688, size: 0x8, addend: 0x0, symName: __ZNSt3__1plB7v160006IcNS_11char_traitsIcEENS_9allocatorIcEEEENS_12basic_stringIT_T0_T1_EERKS9_PKS6_, symObjAddr: 0x3D4F0, symBinAddr: 0x100040FF0, symSize: 0x11C }
  - { offsetInCU: 0x4E729, offset: 0x4E729, size: 0x8, addend: 0x0, symName: __ZNSt3__118__constexpr_strlenB7v160006EPKc, symObjAddr: 0x3D7B8, symBinAddr: 0x1000412B8, symSize: 0x24 }
  - { offsetInCU: 0x4E755, offset: 0x4E755, size: 0x8, addend: 0x0, symName: __ZNSt3__14copyB7v160006IPKcPcEET0_T_S5_S4_, symObjAddr: 0x3D9F8, symBinAddr: 0x1000414F8, symSize: 0x40 }
  - { offsetInCU: 0x4E7AF, offset: 0x4E7AF, size: 0x8, addend: 0x0, symName: __ZNSt3__16__copyB7v160006INS_17_ClassicAlgPolicyEPKcS3_PcEENS_4pairIT0_T2_EES6_T1_S7_, symObjAddr: 0x3DA38, symBinAddr: 0x100041538, symSize: 0x44 }
  - { offsetInCU: 0x4E81C, offset: 0x4E81C, size: 0x8, addend: 0x0, symName: __ZNSt3__123__dispatch_copy_or_moveB7v160006INS_17_ClassicAlgPolicyENS_11__copy_loopIS1_EENS_14__copy_trivialEPKcS6_PcEENS_4pairIT2_T4_EES9_T3_SA_, symObjAddr: 0x3DA7C, symBinAddr: 0x10004157C, symSize: 0x44 }
  - { offsetInCU: 0x4E8A2, offset: 0x4E8A2, size: 0x8, addend: 0x0, symName: __ZNSt3__121__unwrap_and_dispatchB7v160006INS_10__overloadINS_11__copy_loopINS_17_ClassicAlgPolicyEEENS_14__copy_trivialEEEPKcS8_PcLi0EEENS_4pairIT0_T2_EESB_T1_SC_, symObjAddr: 0x3DAC0, symBinAddr: 0x1000415C0, symSize: 0xB4 }
  - { offsetInCU: 0x4E93C, offset: 0x4E93C, size: 0x8, addend: 0x0, symName: __ZNSt3__114__unwrap_rangeB7v160006IPKcS2_EENS_4pairIT0_S4_EET_S6_, symObjAddr: 0x3DB74, symBinAddr: 0x100041674, symSize: 0x60 }
  - { offsetInCU: 0x4EA90, offset: 0x4EA90, size: 0x8, addend: 0x0, symName: __ZNSt3__19make_pairB7v160006IPKcPcEENS_4pairINS_18__unwrap_ref_decayIT_E4typeENS5_IT0_E4typeEEEOS6_OS9_, symObjAddr: 0x3DC1C, symBinAddr: 0x10004171C, symSize: 0x38 }
  - { offsetInCU: 0x4EAE0, offset: 0x4EAE0, size: 0x8, addend: 0x0, symName: __ZNSt3__114__rewrap_rangeB7v160006IPKcS2_EET_S3_T0_, symObjAddr: 0x3DC54, symBinAddr: 0x100041754, symSize: 0x2C }
  - { offsetInCU: 0x4EB31, offset: 0x4EB31, size: 0x8, addend: 0x0, symName: __ZNSt3__19make_pairB7v160006IPKcS2_EENS_4pairINS_18__unwrap_ref_decayIT_E4typeENS4_IT0_E4typeEEEOS5_OS8_, symObjAddr: 0x3DC80, symBinAddr: 0x100041780, symSize: 0x38 }
  - { offsetInCU: 0x4EB81, offset: 0x4EB81, size: 0x8, addend: 0x0, symName: __ZNSt3__113__unwrap_iterB7v160006IPKcNS_18__unwrap_iter_implIS2_Lb1EEELi0EEEDTclsrT0_8__unwrapclsr3stdE7declvalIT_EEEES6_, symObjAddr: 0x3DCB8, symBinAddr: 0x1000417B8, symSize: 0x24 }
  - { offsetInCU: 0x4ECF8, offset: 0x4ECF8, size: 0x8, addend: 0x0, symName: __ZNSt3__119__copy_trivial_implB7v160006IKccEENS_4pairIPT_PT0_EES4_S4_S6_, symObjAddr: 0x3DD70, symBinAddr: 0x100041870, symSize: 0x7C }
  - { offsetInCU: 0x4ED69, offset: 0x4ED69, size: 0x8, addend: 0x0, symName: __ZNSt3__19make_pairB7v160006IRPKcPcEENS_4pairINS_18__unwrap_ref_decayIT_E4typeENS6_IT0_E4typeEEEOS7_OSA_, symObjAddr: 0x3DDEC, symBinAddr: 0x1000418EC, symSize: 0x38 }
  - { offsetInCU: 0x4EDB9, offset: 0x4EDB9, size: 0x8, addend: 0x0, symName: __ZNSt3__113__rewrap_iterB7v160006IPKcS2_NS_18__unwrap_iter_implIS2_Lb1EEEEET_S5_T0_, symObjAddr: 0x3DF04, symBinAddr: 0x100041A04, symSize: 0x3C }
  - { offsetInCU: 0x4EE14, offset: 0x4EE14, size: 0x8, addend: 0x0, symName: __ZNSt3__16fill_nB7v160006IPcmcEET_S2_T0_RKT1_, symObjAddr: 0x3DF88, symBinAddr: 0x100041A88, symSize: 0x44 }
  - { offsetInCU: 0x4EE7F, offset: 0x4EE7F, size: 0x8, addend: 0x0, symName: __ZNSt3__18__fill_nB7v160006IPcmcEET_S2_T0_RKT1_, symObjAddr: 0x3DFCC, symBinAddr: 0x100041ACC, symSize: 0x64 }
  - { offsetInCU: 0x4F036, offset: 0x4F036, size: 0x8, addend: 0x0, symName: __ZNSt3__12wsB7v160006IcNS_11char_traitsIcEEEERNS_13basic_istreamIT_T0_EES7_, symObjAddr: 0x3EDF0, symBinAddr: 0x1000428F0, symSize: 0x23C }
  - { offsetInCU: 0x4F0BE, offset: 0x4F0BE, size: 0x8, addend: 0x0, symName: __ZNSt3__19use_facetB7v160006INS_5ctypeIcEEEERKT_RKNS_6localeE, symObjAddr: 0x3F06C, symBinAddr: 0x100042B6C, symSize: 0x2C }
  - { offsetInCU: 0x4F49F, offset: 0x4F49F, size: 0x8, addend: 0x0, symName: __ZNSt3__118__debug_db_erase_cB7v160006INS_6vectorIfNS_9allocatorIfEEEEEEvPT_, symObjAddr: 0x42908, symBinAddr: 0x100046408, symSize: 0x10 }
  - { offsetInCU: 0x4F4D1, offset: 0x4F4D1, size: 0x8, addend: 0x0, symName: __ZNSt3__112__to_addressB7v160006IfEEPT_S2_, symObjAddr: 0x42A4C, symBinAddr: 0x10004654C, symSize: 0x14 }
  - { offsetInCU: 0x4F507, offset: 0x4F507, size: 0x8, addend: 0x0, symName: __ZNSt3__118__debug_db_erase_cB7v160006INS_6vectorIPN7mlpalns12RepairMethodI15PDPTWT_solutionEENS_9allocatorIS6_EEEEEEvPT_, symObjAddr: 0x42DF0, symBinAddr: 0x1000468F0, symSize: 0x10 }
  - { offsetInCU: 0x4F539, offset: 0x4F539, size: 0x8, addend: 0x0, symName: __ZNSt3__112__to_addressB7v160006IPN7mlpalns12RepairMethodI15PDPTWT_solutionEEEEPT_S7_, symObjAddr: 0x42F34, symBinAddr: 0x100046A34, symSize: 0x14 }
  - { offsetInCU: 0x4F56F, offset: 0x4F56F, size: 0x8, addend: 0x0, symName: __ZNSt3__118__debug_db_erase_cB7v160006INS_6vectorIPN7mlpalns13DestroyMethodI15PDPTWT_solutionEENS_9allocatorIS6_EEEEEEvPT_, symObjAddr: 0x432D8, symBinAddr: 0x100046DD8, symSize: 0x10 }
  - { offsetInCU: 0x4F5A1, offset: 0x4F5A1, size: 0x8, addend: 0x0, symName: __ZNSt3__112__to_addressB7v160006IPN7mlpalns13DestroyMethodI15PDPTWT_solutionEEEEPT_S7_, symObjAddr: 0x4341C, symBinAddr: 0x100046F1C, symSize: 0x14 }
  - { offsetInCU: 0x4F5D7, offset: 0x4F5D7, size: 0x8, addend: 0x0, symName: __ZNSt3__118__debug_db_erase_cB7v160006INS_6vectorINS1_ImNS_9allocatorImEEEENS2_IS4_EEEEEEvPT_, symObjAddr: 0x437DC, symBinAddr: 0x1000472DC, symSize: 0x10 }
  - { offsetInCU: 0x4F609, offset: 0x4F609, size: 0x8, addend: 0x0, symName: __ZNSt3__112__to_addressB7v160006INS_6vectorImNS_9allocatorImEEEEEEPT_S6_, symObjAddr: 0x43920, symBinAddr: 0x100047420, symSize: 0x14 }
  - { offsetInCU: 0x4F63F, offset: 0x4F63F, size: 0x8, addend: 0x0, symName: __ZNSt3__118__debug_db_erase_cB7v160006INS_6vectorImNS_9allocatorImEEEEEEvPT_, symObjAddr: 0x43C2C, symBinAddr: 0x10004772C, symSize: 0x10 }
  - { offsetInCU: 0x4F671, offset: 0x4F671, size: 0x8, addend: 0x0, symName: __ZNSt3__112__to_addressB7v160006ImEEPT_S2_, symObjAddr: 0x43D70, symBinAddr: 0x100047870, symSize: 0x14 }
  - { offsetInCU: 0x4F6A6, offset: 0x4F6A6, size: 0x8, addend: 0x0, symName: __ZNSt3__1neB7v160006ERKNS_16__deque_iteratorIbPbRbPS1_lLl4096EEES6_, symObjAddr: 0x4444C, symBinAddr: 0x100047F4C, symSize: 0x34 }
  - { offsetInCU: 0x4F6E4, offset: 0x4F6E4, size: 0x8, addend: 0x0, symName: __ZNSt3__1eqB7v160006ERKNS_16__deque_iteratorIbPbRbPS1_lLl4096EEES6_, symObjAddr: 0x446D8, symBinAddr: 0x1000481D8, symSize: 0x30 }
  - { offsetInCU: 0x4F722, offset: 0x4F722, size: 0x8, addend: 0x0, symName: __ZNSt3__112__to_addressB7v160006IPbEEPT_S3_, symObjAddr: 0x44A2C, symBinAddr: 0x10004852C, symSize: 0x14 }
  - { offsetInCU: 0x4F758, offset: 0x4F758, size: 0x8, addend: 0x0, symName: __ZNSt3__118__debug_db_erase_cB7v160006INS_6vectorINS_12basic_stringIcNS_11char_traitsIcEENS_9allocatorIcEEEENS5_IS7_EEEEEEvPT_, symObjAddr: 0x44D34, symBinAddr: 0x100048834, symSize: 0x10 }
  - { offsetInCU: 0x4F78A, offset: 0x4F78A, size: 0x8, addend: 0x0, symName: __ZNSt3__112__to_addressB7v160006INS_12basic_stringIcNS_11char_traitsIcEENS_9allocatorIcEEEEEEPT_S8_, symObjAddr: 0x44E78, symBinAddr: 0x100048978, symSize: 0x14 }
  - { offsetInCU: 0x4F7C0, offset: 0x4F7C0, size: 0x8, addend: 0x0, symName: __ZNSt3__119__debug_db_insert_cB7v160006INS_6vectorI7RequestNS_9allocatorIS2_EEEEEEvPT_, symObjAddr: 0x4510C, symBinAddr: 0x100048C0C, symSize: 0x10 }
  - { offsetInCU: 0x4F7F2, offset: 0x4F7F2, size: 0x8, addend: 0x0, symName: __ZNSt3__118__debug_db_erase_cB7v160006INS_6vectorI7RequestNS_9allocatorIS2_EEEEEEvPT_, symObjAddr: 0x453D0, symBinAddr: 0x100048ED0, symSize: 0x10 }
  - { offsetInCU: 0x4F824, offset: 0x4F824, size: 0x8, addend: 0x0, symName: __ZNSt3__116__pad_and_outputB7v160006IcNS_11char_traitsIcEEEENS_19ostreambuf_iteratorIT_T0_EES6_PKS4_S8_S8_RNS_8ios_baseES4_, symObjAddr: 0x456FC, symBinAddr: 0x1000491FC, symSize: 0x240 }
  - { offsetInCU: 0x4F908, offset: 0x4F908, size: 0x8, addend: 0x0, symName: __ZNSt3__122__make_exception_guardB7v160006INS_6vectorIiNS_9allocatorIiEEE16__destroy_vectorEEENS_28__exception_guard_exceptionsIT_EES7_, symObjAddr: 0x45D74, symBinAddr: 0x100049874, symSize: 0x40 }
  - { offsetInCU: 0x4F93E, offset: 0x4F93E, size: 0x8, addend: 0x0, symName: __ZNSt3__119__debug_db_insert_cB7v160006INS_6vectorIiNS_9allocatorIiEEEEEEvPT_, symObjAddr: 0x45DE8, symBinAddr: 0x1000498E8, symSize: 0x10 }
  - { offsetInCU: 0x4F970, offset: 0x4F970, size: 0x8, addend: 0x0, symName: __ZNSt3__119__allocate_at_leastB7v160006INS_9allocatorIiEEEENS_19__allocation_resultINS_16allocator_traitsIT_E7pointerEEERS5_m, symObjAddr: 0x46170, symBinAddr: 0x100049C70, symSize: 0x40 }
  - { offsetInCU: 0x4F9B9, offset: 0x4F9B9, size: 0x8, addend: 0x0, symName: __ZNSt3__112__to_addressB7v160006IiEEPT_S2_, symObjAddr: 0x46494, symBinAddr: 0x100049F94, symSize: 0x14 }
  - { offsetInCU: 0x4F9EF, offset: 0x4F9EF, size: 0x8, addend: 0x0, symName: __ZNSt3__118__debug_db_erase_cB7v160006INS_6vectorIiNS_9allocatorIiEEEEEEvPT_, symObjAddr: 0x467C0, symBinAddr: 0x10004A2C0, symSize: 0x10 }
  - { offsetInCU: 0x4FA21, offset: 0x4FA21, size: 0x8, addend: 0x0, symName: __ZNSt3__119__debug_db_insert_cB7v160006INS_6vectorIP4NodeNS_9allocatorIS3_EEEEEEvPT_, symObjAddr: 0x46A38, symBinAddr: 0x10004A538, symSize: 0x10 }
  - { offsetInCU: 0x4FA53, offset: 0x4FA53, size: 0x8, addend: 0x0, symName: __ZNSt3__118__debug_db_erase_cB7v160006INS_6vectorIP4NodeNS_9allocatorIS3_EEEEEEvPT_, symObjAddr: 0x46CFC, symBinAddr: 0x10004A7FC, symSize: 0x10 }
  - { offsetInCU: 0x4FA85, offset: 0x4FA85, size: 0x8, addend: 0x0, symName: __ZNSt3__112__to_addressB7v160006IP4NodeEEPT_S4_, symObjAddr: 0x46E18, symBinAddr: 0x10004A918, symSize: 0x14 }
  - { offsetInCU: 0x4FABB, offset: 0x4FABB, size: 0x8, addend: 0x0, symName: __ZNSt3__119__allocate_at_leastB7v160006INS_9allocatorIP4NodeEEEENS_19__allocation_resultINS_16allocator_traitsIT_E7pointerEEERS7_m, symObjAddr: 0x47720, symBinAddr: 0x10004B220, symSize: 0x40 }
  - { offsetInCU: 0x4FB03, offset: 0x4FB03, size: 0x8, addend: 0x0, symName: __ZNSt3__142__uninitialized_allocator_move_if_noexceptB7v160006INS_9allocatorIP4NodeEENS_16reverse_iteratorIPS3_EES7_S3_vEET1_RT_T0_SB_S8_, symObjAddr: 0x478D4, symBinAddr: 0x10004B3D4, symSize: 0x78 }
  - { offsetInCU: 0x4FB82, offset: 0x4FB82, size: 0x8, addend: 0x0, symName: __ZNSt3__14swapB7v160006IPP4NodeEENS_9enable_ifIXaasr21is_move_constructibleIT_EE5valuesr18is_move_assignableIS5_EE5valueEvE4typeERS5_S8_, symObjAddr: 0x47998, symBinAddr: 0x10004B498, symSize: 0x3C }
  - { offsetInCU: 0x4FBDB, offset: 0x4FBDB, size: 0x8, addend: 0x0, symName: __ZNSt3__125__debug_db_invalidate_allB7v160006INS_6vectorIP4NodeNS_9allocatorIS3_EEEEEEvPT_, symObjAddr: 0x47A80, symBinAddr: 0x10004B580, symSize: 0x10 }
  - { offsetInCU: 0x4FC0D, offset: 0x4FC0D, size: 0x8, addend: 0x0, symName: __ZNSt3__14moveB7v160006INS_16reverse_iteratorIPP4NodeEES5_EET0_T_S7_S6_, symObjAddr: 0x47A90, symBinAddr: 0x10004B590, symSize: 0x78 }
  - { offsetInCU: 0x4FC6F, offset: 0x4FC6F, size: 0x8, addend: 0x0, symName: __ZNSt3__16__moveB7v160006INS_17_ClassicAlgPolicyENS_16reverse_iteratorIPP4NodeEES6_S6_EENS_4pairIT0_T2_EES8_T1_S9_, symObjAddr: 0x47B08, symBinAddr: 0x10004B608, symSize: 0x64 }
  - { offsetInCU: 0x4FCE3, offset: 0x4FCE3, size: 0x8, addend: 0x0, symName: __ZNSt3__123__dispatch_copy_or_moveB7v160006INS_17_ClassicAlgPolicyENS_11__move_loopIS1_EENS_14__move_trivialENS_16reverse_iteratorIPP4NodeEES9_S9_EENS_4pairIT2_T4_EESB_T3_SC_, symObjAddr: 0x47B6C, symBinAddr: 0x10004B66C, symSize: 0x64 }
  - { offsetInCU: 0x4FD69, offset: 0x4FD69, size: 0x8, addend: 0x0, symName: __ZNSt3__121__unwrap_and_dispatchB7v160006INS_10__overloadINS_11__move_loopINS_17_ClassicAlgPolicyEEENS_14__move_trivialEEENS_16reverse_iteratorIPP4NodeEESB_SB_Li0EEENS_4pairIT0_T2_EESD_T1_SE_, symObjAddr: 0x47BD0, symBinAddr: 0x10004B6D0, symSize: 0x12C }
  - { offsetInCU: 0x4FE05, offset: 0x4FE05, size: 0x8, addend: 0x0, symName: __ZNSt3__114__unwrap_rangeB7v160006INS_16reverse_iteratorIPP4NodeEES5_EENS_4pairIT0_S7_EET_S9_, symObjAddr: 0x47CFC, symBinAddr: 0x10004B7FC, symSize: 0x84 }
  - { offsetInCU: 0x4FF2B, offset: 0x4FF2B, size: 0x8, addend: 0x0, symName: __ZNSt3__113__unwrap_iterB7v160006INS_16reverse_iteratorIPP4NodeEENS_18__unwrap_iter_implIS5_Lb0EEELi0EEEDTclsrT0_8__unwrapclsr3stdE7declvalIT_EEEES9_, symObjAddr: 0x47E20, symBinAddr: 0x10004B920, symSize: 0x44 }
  - { offsetInCU: 0x4FF72, offset: 0x4FF72, size: 0x8, addend: 0x0, symName: __ZNSt3__19make_pairB7v160006INS_16reverse_iteratorIPP4NodeEES5_EENS_4pairINS_18__unwrap_ref_decayIT_E4typeENS7_IT0_E4typeEEEOS8_OSB_, symObjAddr: 0x47E64, symBinAddr: 0x10004B964, symSize: 0x38 }
  - { offsetInCU: 0x4FFC2, offset: 0x4FFC2, size: 0x8, addend: 0x0, symName: __ZNSt3__114__rewrap_rangeB7v160006INS_16reverse_iteratorIPP4NodeEES5_EET_S6_T0_, symObjAddr: 0x47E9C, symBinAddr: 0x10004B99C, symSize: 0x5C }
  - { offsetInCU: 0x50014, offset: 0x50014, size: 0x8, addend: 0x0, symName: __ZNSt3__113__rewrap_iterB7v160006INS_16reverse_iteratorIPP4NodeEES5_NS_18__unwrap_iter_implIS5_Lb0EEEEET_S8_T0_, symObjAddr: 0x47EF8, symBinAddr: 0x10004B9F8, symSize: 0x74 }
  - { offsetInCU: 0x5006E, offset: 0x5006E, size: 0x8, addend: 0x0, symName: __ZNSt3__1neB7v160006IPP4NodeS3_EEbRKNS_16reverse_iteratorIT_EERKNS4_IT0_EE, symObjAddr: 0x47F6C, symBinAddr: 0x10004BA6C, symSize: 0x48 }
  - { offsetInCU: 0x50130, offset: 0x50130, size: 0x8, addend: 0x0, symName: __ZNSt3__142__uninitialized_allocator_move_if_noexceptB7v160006INS_9allocatorI7RequestEENS_16reverse_iteratorIPS2_EES6_S2_vEET1_RT_T0_SA_S7_, symObjAddr: 0x486B0, symBinAddr: 0x10004C1B0, symSize: 0x78 }
  - { offsetInCU: 0x501AF, offset: 0x501AF, size: 0x8, addend: 0x0, symName: __ZNSt3__14swapB7v160006IP7RequestEENS_9enable_ifIXaasr21is_move_constructibleIT_EE5valuesr18is_move_assignableIS4_EE5valueEvE4typeERS4_S7_, symObjAddr: 0x48728, symBinAddr: 0x10004C228, symSize: 0x3C }
  - { offsetInCU: 0x50208, offset: 0x50208, size: 0x8, addend: 0x0, symName: __ZNSt3__14moveB7v160006INS_16reverse_iteratorIP7RequestEES4_EET0_T_S6_S5_, symObjAddr: 0x48764, symBinAddr: 0x10004C264, symSize: 0x78 }
  - { offsetInCU: 0x5026A, offset: 0x5026A, size: 0x8, addend: 0x0, symName: __ZNSt3__16__moveB7v160006INS_17_ClassicAlgPolicyENS_16reverse_iteratorIP7RequestEES5_S5_EENS_4pairIT0_T2_EES7_T1_S8_, symObjAddr: 0x487DC, symBinAddr: 0x10004C2DC, symSize: 0x64 }
  - { offsetInCU: 0x502DE, offset: 0x502DE, size: 0x8, addend: 0x0, symName: __ZNSt3__123__dispatch_copy_or_moveB7v160006INS_17_ClassicAlgPolicyENS_11__move_loopIS1_EENS_14__move_trivialENS_16reverse_iteratorIP7RequestEES8_S8_EENS_4pairIT2_T4_EESA_T3_SB_, symObjAddr: 0x48840, symBinAddr: 0x10004C340, symSize: 0x64 }
  - { offsetInCU: 0x50364, offset: 0x50364, size: 0x8, addend: 0x0, symName: __ZNSt3__121__unwrap_and_dispatchB7v160006INS_10__overloadINS_11__move_loopINS_17_ClassicAlgPolicyEEENS_14__move_trivialEEENS_16reverse_iteratorIP7RequestEESA_SA_Li0EEENS_4pairIT0_T2_EESC_T1_SD_, symObjAddr: 0x488A4, symBinAddr: 0x10004C3A4, symSize: 0x12C }
  - { offsetInCU: 0x50400, offset: 0x50400, size: 0x8, addend: 0x0, symName: __ZNSt3__114__unwrap_rangeB7v160006INS_16reverse_iteratorIP7RequestEES4_EENS_4pairIT0_S6_EET_S8_, symObjAddr: 0x489D0, symBinAddr: 0x10004C4D0, symSize: 0x84 }
  - { offsetInCU: 0x50526, offset: 0x50526, size: 0x8, addend: 0x0, symName: __ZNSt3__113__unwrap_iterB7v160006INS_16reverse_iteratorIP7RequestEENS_18__unwrap_iter_implIS4_Lb0EEELi0EEEDTclsrT0_8__unwrapclsr3stdE7declvalIT_EEEES8_, symObjAddr: 0x48AFC, symBinAddr: 0x10004C5FC, symSize: 0x44 }
  - { offsetInCU: 0x5056D, offset: 0x5056D, size: 0x8, addend: 0x0, symName: __ZNSt3__19make_pairB7v160006INS_16reverse_iteratorIP7RequestEES4_EENS_4pairINS_18__unwrap_ref_decayIT_E4typeENS6_IT0_E4typeEEEOS7_OSA_, symObjAddr: 0x48B40, symBinAddr: 0x10004C640, symSize: 0x38 }
  - { offsetInCU: 0x505BD, offset: 0x505BD, size: 0x8, addend: 0x0, symName: __ZNSt3__114__rewrap_rangeB7v160006INS_16reverse_iteratorIP7RequestEES4_EET_S5_T0_, symObjAddr: 0x48B78, symBinAddr: 0x10004C678, symSize: 0x5C }
  - { offsetInCU: 0x5060F, offset: 0x5060F, size: 0x8, addend: 0x0, symName: __ZNSt3__113__rewrap_iterB7v160006INS_16reverse_iteratorIP7RequestEES4_NS_18__unwrap_iter_implIS4_Lb0EEEEET_S7_T0_, symObjAddr: 0x48BD4, symBinAddr: 0x10004C6D4, symSize: 0x74 }
  - { offsetInCU: 0x506DF, offset: 0x506DF, size: 0x8, addend: 0x0, symName: __ZNSt3__122__make_exception_guardB7v160006INS_6vectorI7RequestNS_9allocatorIS2_EEE16__destroy_vectorEEENS_28__exception_guard_exceptionsIT_EES8_, symObjAddr: 0x49364, symBinAddr: 0x10004CE64, symSize: 0x40 }
  - { offsetInCU: 0x50715, offset: 0x50715, size: 0x8, addend: 0x0, symName: __ZNSt3__119__debug_db_insert_cB7v160006INS_6vectorINS_12basic_stringIcNS_11char_traitsIcEENS_9allocatorIcEEEENS5_IS7_EEEEEEvPT_, symObjAddr: 0x49AC4, symBinAddr: 0x10004D5C4, symSize: 0x10 }
  - { offsetInCU: 0x50747, offset: 0x50747, size: 0x8, addend: 0x0, symName: __ZNSt3__119__debug_db_insert_cB7v160006INS_6vectorINS1_ImNS_9allocatorImEEEENS2_IS4_EEEEEEvPT_, symObjAddr: 0x49EE8, symBinAddr: 0x10004D9E8, symSize: 0x10 }
  - { offsetInCU: 0x50779, offset: 0x50779, size: 0x8, addend: 0x0, symName: __ZNSt3__119__debug_db_insert_cB7v160006INS_6vectorIPN7mlpalns13DestroyMethodI15PDPTWT_solutionEENS_9allocatorIS6_EEEEEEvPT_, symObjAddr: 0x4A054, symBinAddr: 0x10004DB54, symSize: 0x10 }
  - { offsetInCU: 0x507AB, offset: 0x507AB, size: 0x8, addend: 0x0, symName: __ZNSt3__119__debug_db_insert_cB7v160006INS_6vectorIPN7mlpalns12RepairMethodI15PDPTWT_solutionEENS_9allocatorIS6_EEEEEEvPT_, symObjAddr: 0x4A1C0, symBinAddr: 0x10004DCC0, symSize: 0x10 }
  - { offsetInCU: 0x507DD, offset: 0x507DD, size: 0x8, addend: 0x0, symName: __ZNSt3__119__debug_db_insert_cB7v160006INS_6vectorIfNS_9allocatorIfEEEEEEvPT_, symObjAddr: 0x4A3A4, symBinAddr: 0x10004DEA4, symSize: 0x10 }
  - { offsetInCU: 0x5080F, offset: 0x5080F, size: 0x8, addend: 0x0, symName: __ZNSt3__119__allocate_at_leastB7v160006INS_9allocatorIPN7mlpalns13DestroyMethodI15PDPTWT_solutionEEEEEENS_19__allocation_resultINS_16allocator_traitsIT_E7pointerEEERSA_m, symObjAddr: 0x4B1A0, symBinAddr: 0x10004ECA0, symSize: 0x40 }
  - { offsetInCU: 0x50857, offset: 0x50857, size: 0x8, addend: 0x0, symName: __ZNSt3__142__uninitialized_allocator_move_if_noexceptB7v160006INS_9allocatorIPN7mlpalns13DestroyMethodI15PDPTWT_solutionEEEENS_16reverse_iteratorIPS6_EESA_S6_vEET1_RT_T0_SE_SB_, symObjAddr: 0x4B354, symBinAddr: 0x10004EE54, symSize: 0x78 }
  - { offsetInCU: 0x508D6, offset: 0x508D6, size: 0x8, addend: 0x0, symName: __ZNSt3__14swapB7v160006IPPN7mlpalns13DestroyMethodI15PDPTWT_solutionEEEENS_9enable_ifIXaasr21is_move_constructibleIT_EE5valuesr18is_move_assignableIS8_EE5valueEvE4typeERS8_SB_, symObjAddr: 0x4B418, symBinAddr: 0x10004EF18, symSize: 0x3C }
  - { offsetInCU: 0x5092F, offset: 0x5092F, size: 0x8, addend: 0x0, symName: __ZNSt3__125__debug_db_invalidate_allB7v160006INS_6vectorIPN7mlpalns13DestroyMethodI15PDPTWT_solutionEENS_9allocatorIS6_EEEEEEvPT_, symObjAddr: 0x4B500, symBinAddr: 0x10004F000, symSize: 0x10 }
  - { offsetInCU: 0x50961, offset: 0x50961, size: 0x8, addend: 0x0, symName: __ZNSt3__14moveB7v160006INS_16reverse_iteratorIPPN7mlpalns13DestroyMethodI15PDPTWT_solutionEEEES8_EET0_T_SA_S9_, symObjAddr: 0x4B510, symBinAddr: 0x10004F010, symSize: 0x78 }
  - { offsetInCU: 0x509C3, offset: 0x509C3, size: 0x8, addend: 0x0, symName: __ZNSt3__16__moveB7v160006INS_17_ClassicAlgPolicyENS_16reverse_iteratorIPPN7mlpalns13DestroyMethodI15PDPTWT_solutionEEEES9_S9_EENS_4pairIT0_T2_EESB_T1_SC_, symObjAddr: 0x4B588, symBinAddr: 0x10004F088, symSize: 0x64 }
  - { offsetInCU: 0x50A37, offset: 0x50A37, size: 0x8, addend: 0x0, symName: __ZNSt3__123__dispatch_copy_or_moveB7v160006INS_17_ClassicAlgPolicyENS_11__move_loopIS1_EENS_14__move_trivialENS_16reverse_iteratorIPPN7mlpalns13DestroyMethodI15PDPTWT_solutionEEEESC_SC_EENS_4pairIT2_T4_EESE_T3_SF_, symObjAddr: 0x4B5EC, symBinAddr: 0x10004F0EC, symSize: 0x64 }
  - { offsetInCU: 0x50ABD, offset: 0x50ABD, size: 0x8, addend: 0x0, symName: __ZNSt3__121__unwrap_and_dispatchB7v160006INS_10__overloadINS_11__move_loopINS_17_ClassicAlgPolicyEEENS_14__move_trivialEEENS_16reverse_iteratorIPPN7mlpalns13DestroyMethodI15PDPTWT_solutionEEEESE_SE_Li0EEENS_4pairIT0_T2_EESG_T1_SH_, symObjAddr: 0x4B650, symBinAddr: 0x10004F150, symSize: 0x12C }
  - { offsetInCU: 0x50B59, offset: 0x50B59, size: 0x8, addend: 0x0, symName: __ZNSt3__114__unwrap_rangeB7v160006INS_16reverse_iteratorIPPN7mlpalns13DestroyMethodI15PDPTWT_solutionEEEES8_EENS_4pairIT0_SA_EET_SC_, symObjAddr: 0x4B77C, symBinAddr: 0x10004F27C, symSize: 0x84 }
  - { offsetInCU: 0x50C7F, offset: 0x50C7F, size: 0x8, addend: 0x0, symName: __ZNSt3__113__unwrap_iterB7v160006INS_16reverse_iteratorIPPN7mlpalns13DestroyMethodI15PDPTWT_solutionEEEENS_18__unwrap_iter_implIS8_Lb0EEELi0EEEDTclsrT0_8__unwrapclsr3stdE7declvalIT_EEEESC_, symObjAddr: 0x4B8A0, symBinAddr: 0x10004F3A0, symSize: 0x44 }
  - { offsetInCU: 0x50CC6, offset: 0x50CC6, size: 0x8, addend: 0x0, symName: __ZNSt3__19make_pairB7v160006INS_16reverse_iteratorIPPN7mlpalns13DestroyMethodI15PDPTWT_solutionEEEES8_EENS_4pairINS_18__unwrap_ref_decayIT_E4typeENSA_IT0_E4typeEEEOSB_OSE_, symObjAddr: 0x4B8E4, symBinAddr: 0x10004F3E4, symSize: 0x38 }
  - { offsetInCU: 0x50D16, offset: 0x50D16, size: 0x8, addend: 0x0, symName: __ZNSt3__114__rewrap_rangeB7v160006INS_16reverse_iteratorIPPN7mlpalns13DestroyMethodI15PDPTWT_solutionEEEES8_EET_S9_T0_, symObjAddr: 0x4B91C, symBinAddr: 0x10004F41C, symSize: 0x5C }
  - { offsetInCU: 0x50D68, offset: 0x50D68, size: 0x8, addend: 0x0, symName: __ZNSt3__113__rewrap_iterB7v160006INS_16reverse_iteratorIPPN7mlpalns13DestroyMethodI15PDPTWT_solutionEEEES8_NS_18__unwrap_iter_implIS8_Lb0EEEEET_SB_T0_, symObjAddr: 0x4B978, symBinAddr: 0x10004F478, symSize: 0x74 }
  - { offsetInCU: 0x50DC2, offset: 0x50DC2, size: 0x8, addend: 0x0, symName: __ZNSt3__1neB7v160006IPPN7mlpalns13DestroyMethodI15PDPTWT_solutionEES6_EEbRKNS_16reverse_iteratorIT_EERKNS7_IT0_EE, symObjAddr: 0x4B9EC, symBinAddr: 0x10004F4EC, symSize: 0x48 }
  - { offsetInCU: 0x50E85, offset: 0x50E85, size: 0x8, addend: 0x0, symName: __ZNSt3__119__allocate_at_leastB7v160006INS_9allocatorINS_12basic_stringIcNS_11char_traitsIcEENS1_IcEEEEEEEENS_19__allocation_resultINS_16allocator_traitsIT_E7pointerEEERSA_m, symObjAddr: 0x4C4EC, symBinAddr: 0x10004FFEC, symSize: 0x40 }
  - { offsetInCU: 0x50ECD, offset: 0x50ECD, size: 0x8, addend: 0x0, symName: __ZNSt3__142__uninitialized_allocator_move_if_noexceptB7v160006INS_9allocatorINS_12basic_stringIcNS_11char_traitsIcEENS1_IcEEEEEENS_16reverse_iteratorIPS6_EESA_SA_EET2_RT_T0_T1_SB_, symObjAddr: 0x4C6A4, symBinAddr: 0x1000501A4, symSize: 0x12C }
  - { offsetInCU: 0x50F6E, offset: 0x50F6E, size: 0x8, addend: 0x0, symName: __ZNSt3__14swapB7v160006IPNS_12basic_stringIcNS_11char_traitsIcEENS_9allocatorIcEEEEEENS_9enable_ifIXaasr21is_move_constructibleIT_EE5valuesr18is_move_assignableIS9_EE5valueEvE4typeERS9_SC_, symObjAddr: 0x4C81C, symBinAddr: 0x10005031C, symSize: 0x3C }
  - { offsetInCU: 0x50FC7, offset: 0x50FC7, size: 0x8, addend: 0x0, symName: __ZNSt3__125__debug_db_invalidate_allB7v160006INS_6vectorINS_12basic_stringIcNS_11char_traitsIcEENS_9allocatorIcEEEENS5_IS7_EEEEEEvPT_, symObjAddr: 0x4C920, symBinAddr: 0x100050420, symSize: 0x10 }
  - { offsetInCU: 0x50FF8, offset: 0x50FF8, size: 0x8, addend: 0x0, symName: __ZNSt3__122__make_exception_guardB7v160006INS_29_AllocatorDestroyRangeReverseINS_9allocatorINS_12basic_stringIcNS_11char_traitsIcEENS2_IcEEEEEENS_16reverse_iteratorIPS7_EEEEEENS_28__exception_guard_exceptionsIT_EESE_, symObjAddr: 0x4C930, symBinAddr: 0x100050430, symSize: 0x4C }
  - { offsetInCU: 0x5102E, offset: 0x5102E, size: 0x8, addend: 0x0, symName: __ZNSt3__1neB7v160006IPNS_12basic_stringIcNS_11char_traitsIcEENS_9allocatorIcEEEES7_EEbRKNS_16reverse_iteratorIT_EERKNS8_IT0_EE, symObjAddr: 0x4C9C0, symBinAddr: 0x1000504C0, symSize: 0x48 }
  - { offsetInCU: 0x5107A, offset: 0x5107A, size: 0x8, addend: 0x0, symName: __ZNSt3__112__to_addressB7v160006INS_16reverse_iteratorIPNS_12basic_stringIcNS_11char_traitsIcEENS_9allocatorIcEEEEEEvEENS_5decayIDTclsr19__to_address_helperIT_EE6__callclsr3stdE7declvalIRKSB_EEEEE4typeESD_, symObjAddr: 0x4CA3C, symBinAddr: 0x10005053C, symSize: 0x24 }
  - { offsetInCU: 0x510D9, offset: 0x510D9, size: 0x8, addend: 0x0, symName: __ZNSt3__119__allocator_destroyB7v160006INS_9allocatorINS_12basic_stringIcNS_11char_traitsIcEENS1_IcEEEEEENS_16reverse_iteratorINS8_IPS6_EEEESB_EEvRT_T0_T1_, symObjAddr: 0x4CD1C, symBinAddr: 0x10005081C, symSize: 0x70 }
  - { offsetInCU: 0x5113E, offset: 0x5113E, size: 0x8, addend: 0x0, symName: __ZNSt3__1neB7v160006INS_16reverse_iteratorIPNS_12basic_stringIcNS_11char_traitsIcEENS_9allocatorIcEEEEEES9_EEbRKNS1_IT_EERKNS1_IT0_EE, symObjAddr: 0x4CDC8, symBinAddr: 0x1000508C8, symSize: 0x60 }
  - { offsetInCU: 0x5118A, offset: 0x5118A, size: 0x8, addend: 0x0, symName: __ZNSt3__112__to_addressB7v160006INS_16reverse_iteratorINS1_IPNS_12basic_stringIcNS_11char_traitsIcEENS_9allocatorIcEEEEEEEEvEENS_5decayIDTclsr19__to_address_helperIT_EE6__callclsr3stdE7declvalIRKSC_EEEEE4typeESE_, symObjAddr: 0x4CE28, symBinAddr: 0x100050928, symSize: 0x24 }
  - { offsetInCU: 0x511EA, offset: 0x511EA, size: 0x8, addend: 0x0, symName: __ZNSt3__119__allocate_at_leastB7v160006INS_9allocatorIPN7mlpalns12RepairMethodI15PDPTWT_solutionEEEEEENS_19__allocation_resultINS_16allocator_traitsIT_E7pointerEEERSA_m, symObjAddr: 0x4DA84, symBinAddr: 0x100051584, symSize: 0x40 }
  - { offsetInCU: 0x51232, offset: 0x51232, size: 0x8, addend: 0x0, symName: __ZNSt3__142__uninitialized_allocator_move_if_noexceptB7v160006INS_9allocatorIPN7mlpalns12RepairMethodI15PDPTWT_solutionEEEENS_16reverse_iteratorIPS6_EESA_S6_vEET1_RT_T0_SE_SB_, symObjAddr: 0x4DC38, symBinAddr: 0x100051738, symSize: 0x78 }
  - { offsetInCU: 0x512B1, offset: 0x512B1, size: 0x8, addend: 0x0, symName: __ZNSt3__14swapB7v160006IPPN7mlpalns12RepairMethodI15PDPTWT_solutionEEEENS_9enable_ifIXaasr21is_move_constructibleIT_EE5valuesr18is_move_assignableIS8_EE5valueEvE4typeERS8_SB_, symObjAddr: 0x4DCFC, symBinAddr: 0x1000517FC, symSize: 0x3C }
  - { offsetInCU: 0x5130A, offset: 0x5130A, size: 0x8, addend: 0x0, symName: __ZNSt3__125__debug_db_invalidate_allB7v160006INS_6vectorIPN7mlpalns12RepairMethodI15PDPTWT_solutionEENS_9allocatorIS6_EEEEEEvPT_, symObjAddr: 0x4DDE4, symBinAddr: 0x1000518E4, symSize: 0x10 }
  - { offsetInCU: 0x5133C, offset: 0x5133C, size: 0x8, addend: 0x0, symName: __ZNSt3__14moveB7v160006INS_16reverse_iteratorIPPN7mlpalns12RepairMethodI15PDPTWT_solutionEEEES8_EET0_T_SA_S9_, symObjAddr: 0x4DDF4, symBinAddr: 0x1000518F4, symSize: 0x78 }
  - { offsetInCU: 0x5139E, offset: 0x5139E, size: 0x8, addend: 0x0, symName: __ZNSt3__16__moveB7v160006INS_17_ClassicAlgPolicyENS_16reverse_iteratorIPPN7mlpalns12RepairMethodI15PDPTWT_solutionEEEES9_S9_EENS_4pairIT0_T2_EESB_T1_SC_, symObjAddr: 0x4DE6C, symBinAddr: 0x10005196C, symSize: 0x64 }
  - { offsetInCU: 0x51412, offset: 0x51412, size: 0x8, addend: 0x0, symName: __ZNSt3__123__dispatch_copy_or_moveB7v160006INS_17_ClassicAlgPolicyENS_11__move_loopIS1_EENS_14__move_trivialENS_16reverse_iteratorIPPN7mlpalns12RepairMethodI15PDPTWT_solutionEEEESC_SC_EENS_4pairIT2_T4_EESE_T3_SF_, symObjAddr: 0x4DED0, symBinAddr: 0x1000519D0, symSize: 0x64 }
  - { offsetInCU: 0x51498, offset: 0x51498, size: 0x8, addend: 0x0, symName: __ZNSt3__121__unwrap_and_dispatchB7v160006INS_10__overloadINS_11__move_loopINS_17_ClassicAlgPolicyEEENS_14__move_trivialEEENS_16reverse_iteratorIPPN7mlpalns12RepairMethodI15PDPTWT_solutionEEEESE_SE_Li0EEENS_4pairIT0_T2_EESG_T1_SH_, symObjAddr: 0x4DF34, symBinAddr: 0x100051A34, symSize: 0x12C }
  - { offsetInCU: 0x51534, offset: 0x51534, size: 0x8, addend: 0x0, symName: __ZNSt3__114__unwrap_rangeB7v160006INS_16reverse_iteratorIPPN7mlpalns12RepairMethodI15PDPTWT_solutionEEEES8_EENS_4pairIT0_SA_EET_SC_, symObjAddr: 0x4E060, symBinAddr: 0x100051B60, symSize: 0x84 }
  - { offsetInCU: 0x5165A, offset: 0x5165A, size: 0x8, addend: 0x0, symName: __ZNSt3__113__unwrap_iterB7v160006INS_16reverse_iteratorIPPN7mlpalns12RepairMethodI15PDPTWT_solutionEEEENS_18__unwrap_iter_implIS8_Lb0EEELi0EEEDTclsrT0_8__unwrapclsr3stdE7declvalIT_EEEESC_, symObjAddr: 0x4E184, symBinAddr: 0x100051C84, symSize: 0x44 }
  - { offsetInCU: 0x516A1, offset: 0x516A1, size: 0x8, addend: 0x0, symName: __ZNSt3__19make_pairB7v160006INS_16reverse_iteratorIPPN7mlpalns12RepairMethodI15PDPTWT_solutionEEEES8_EENS_4pairINS_18__unwrap_ref_decayIT_E4typeENSA_IT0_E4typeEEEOSB_OSE_, symObjAddr: 0x4E1C8, symBinAddr: 0x100051CC8, symSize: 0x38 }
  - { offsetInCU: 0x516F1, offset: 0x516F1, size: 0x8, addend: 0x0, symName: __ZNSt3__114__rewrap_rangeB7v160006INS_16reverse_iteratorIPPN7mlpalns12RepairMethodI15PDPTWT_solutionEEEES8_EET_S9_T0_, symObjAddr: 0x4E200, symBinAddr: 0x100051D00, symSize: 0x5C }
  - { offsetInCU: 0x51743, offset: 0x51743, size: 0x8, addend: 0x0, symName: __ZNSt3__113__rewrap_iterB7v160006INS_16reverse_iteratorIPPN7mlpalns12RepairMethodI15PDPTWT_solutionEEEES8_NS_18__unwrap_iter_implIS8_Lb0EEEEET_SB_T0_, symObjAddr: 0x4E25C, symBinAddr: 0x100051D5C, symSize: 0x74 }
  - { offsetInCU: 0x5179D, offset: 0x5179D, size: 0x8, addend: 0x0, symName: __ZNSt3__1neB7v160006IPPN7mlpalns12RepairMethodI15PDPTWT_solutionEES6_EEbRKNS_16reverse_iteratorIT_EERKNS7_IT0_EE, symObjAddr: 0x4E2D0, symBinAddr: 0x100051DD0, symSize: 0x48 }
  - { offsetInCU: 0x51CC3, offset: 0x51CC3, size: 0x8, addend: 0x0, symName: __ZNSt3__14swapB7v160006IPPbEENS_9enable_ifIXaasr21is_move_constructibleIT_EE5valuesr18is_move_assignableIS4_EE5valueEvE4typeERS4_S7_, symObjAddr: 0x4F7E0, symBinAddr: 0x1000532E0, symSize: 0x3C }
  - { offsetInCU: 0x51D1C, offset: 0x51D1C, size: 0x8, addend: 0x0, symName: __ZNSt3__14moveB7v160006IPPbS2_EET0_T_S4_S3_, symObjAddr: 0x4F8C4, symBinAddr: 0x1000533C4, symSize: 0x40 }
  - { offsetInCU: 0x51D7E, offset: 0x51D7E, size: 0x8, addend: 0x0, symName: __ZNSt3__16__moveB7v160006INS_17_ClassicAlgPolicyEPPbS3_S3_EENS_4pairIT0_T2_EES5_T1_S6_, symObjAddr: 0x4FA68, symBinAddr: 0x100053568, symSize: 0x44 }
  - { offsetInCU: 0x51DF2, offset: 0x51DF2, size: 0x8, addend: 0x0, symName: __ZNSt3__123__dispatch_copy_or_moveB7v160006INS_17_ClassicAlgPolicyENS_11__move_loopIS1_EENS_14__move_trivialEPPbS6_S6_EENS_4pairIT2_T4_EES8_T3_S9_, symObjAddr: 0x4FAAC, symBinAddr: 0x1000535AC, symSize: 0x44 }
  - { offsetInCU: 0x51E78, offset: 0x51E78, size: 0x8, addend: 0x0, symName: __ZNSt3__121__unwrap_and_dispatchB7v160006INS_10__overloadINS_11__move_loopINS_17_ClassicAlgPolicyEEENS_14__move_trivialEEEPPbS8_S8_Li0EEENS_4pairIT0_T2_EESA_T1_SB_, symObjAddr: 0x4FAF0, symBinAddr: 0x1000535F0, symSize: 0xB4 }
  - { offsetInCU: 0x51F12, offset: 0x51F12, size: 0x8, addend: 0x0, symName: __ZNSt3__114__unwrap_rangeB7v160006IPPbS2_EENS_4pairIT0_S4_EET_S6_, symObjAddr: 0x4FBA4, symBinAddr: 0x1000536A4, symSize: 0x60 }
  - { offsetInCU: 0x52096, offset: 0x52096, size: 0x8, addend: 0x0, symName: __ZNSt3__113__unwrap_iterB7v160006IPPbNS_18__unwrap_iter_implIS2_Lb1EEELi0EEEDTclsrT0_8__unwrapclsr3stdE7declvalIT_EEEES6_, symObjAddr: 0x4FC4C, symBinAddr: 0x10005374C, symSize: 0x24 }
  - { offsetInCU: 0x520DD, offset: 0x520DD, size: 0x8, addend: 0x0, symName: __ZNSt3__19make_pairB7v160006IPPbS2_EENS_4pairINS_18__unwrap_ref_decayIT_E4typeENS4_IT0_E4typeEEEOS5_OS8_, symObjAddr: 0x4FC70, symBinAddr: 0x100053770, symSize: 0x38 }
  - { offsetInCU: 0x5212D, offset: 0x5212D, size: 0x8, addend: 0x0, symName: __ZNSt3__114__rewrap_rangeB7v160006IPPbS2_EET_S3_T0_, symObjAddr: 0x4FCA8, symBinAddr: 0x1000537A8, symSize: 0x2C }
  - { offsetInCU: 0x5217F, offset: 0x5217F, size: 0x8, addend: 0x0, symName: __ZNSt3__113__rewrap_iterB7v160006IPPbS2_NS_18__unwrap_iter_implIS2_Lb1EEEEET_S5_T0_, symObjAddr: 0x4FCD4, symBinAddr: 0x1000537D4, symSize: 0x3C }
  - { offsetInCU: 0x521DA, offset: 0x521DA, size: 0x8, addend: 0x0, symName: __ZNSt3__119__copy_trivial_implB7v160006IPbS1_EENS_4pairIPT_PT0_EES4_S4_S6_, symObjAddr: 0x4FD10, symBinAddr: 0x100053810, symSize: 0x84 }
  - { offsetInCU: 0x5224B, offset: 0x5224B, size: 0x8, addend: 0x0, symName: __ZNSt3__19make_pairB7v160006IRPPbS2_EENS_4pairINS_18__unwrap_ref_decayIT_E4typeENS5_IT0_E4typeEEEOS6_OS9_, symObjAddr: 0x4FD94, symBinAddr: 0x100053894, symSize: 0x38 }
  - { offsetInCU: 0x522F5, offset: 0x522F5, size: 0x8, addend: 0x0, symName: __ZNSt3__18distanceB7v160006INS_13move_iteratorIPPbEEEENS_15iterator_traitsIT_E15difference_typeES6_S6_, symObjAddr: 0x4FF20, symBinAddr: 0x100053A20, symSize: 0x3C }
  - { offsetInCU: 0x52338, offset: 0x52338, size: 0x8, addend: 0x0, symName: __ZNSt3__110__distanceB7v160006INS_13move_iteratorIPPbEEEENS_15iterator_traitsIT_E15difference_typeES6_S6_NS_26random_access_iterator_tagE, symObjAddr: 0x50058, symBinAddr: 0x100053B58, symSize: 0x30 }
  - { offsetInCU: 0x52386, offset: 0x52386, size: 0x8, addend: 0x0, symName: __ZNSt3__1miB7v160006IPPbS2_EEDTmicldtfp_4baseEcldtfp0_4baseEERKNS_13move_iteratorIT_EERKNS4_IT0_EE, symObjAddr: 0x50088, symBinAddr: 0x100053B88, symSize: 0x48 }
  - { offsetInCU: 0x523D6, offset: 0x523D6, size: 0x8, addend: 0x0, symName: __ZNSt3__113move_backwardB7v160006IPPbS2_EET0_T_S4_S3_, symObjAddr: 0x5028C, symBinAddr: 0x100053D8C, symSize: 0x40 }
  - { offsetInCU: 0x52438, offset: 0x52438, size: 0x8, addend: 0x0, symName: __ZNSt3__115__move_backwardB7v160006INS_17_ClassicAlgPolicyEPPbS3_S3_EENS_4pairIT0_T2_EES5_T1_S6_, symObjAddr: 0x502CC, symBinAddr: 0x100053DCC, symSize: 0x44 }
  - { offsetInCU: 0x524AC, offset: 0x524AC, size: 0x8, addend: 0x0, symName: __ZNSt3__123__dispatch_copy_or_moveB7v160006INS_17_ClassicAlgPolicyENS_20__move_backward_loopIS1_EENS_23__move_backward_trivialEPPbS6_S6_EENS_4pairIT2_T4_EES8_T3_S9_, symObjAddr: 0x50310, symBinAddr: 0x100053E10, symSize: 0x44 }
  - { offsetInCU: 0x52532, offset: 0x52532, size: 0x8, addend: 0x0, symName: __ZNSt3__121__unwrap_and_dispatchB7v160006INS_10__overloadINS_20__move_backward_loopINS_17_ClassicAlgPolicyEEENS_23__move_backward_trivialEEEPPbS8_S8_Li0EEENS_4pairIT0_T2_EESA_T1_SB_, symObjAddr: 0x50354, symBinAddr: 0x100053E54, symSize: 0xB4 }
  - { offsetInCU: 0x525CC, offset: 0x525CC, size: 0x8, addend: 0x0, symName: __ZNSt3__128__copy_backward_trivial_implB7v160006IPbS1_EENS_4pairIPT_PT0_EES4_S4_S6_, symObjAddr: 0x50450, symBinAddr: 0x100053F50, symSize: 0x94 }
  - { offsetInCU: 0x5263D, offset: 0x5263D, size: 0x8, addend: 0x0, symName: __ZNSt3__19make_pairB7v160006IRPPbS3_EENS_4pairINS_18__unwrap_ref_decayIT_E4typeENS5_IT0_E4typeEEEOS6_OS9_, symObjAddr: 0x504E4, symBinAddr: 0x100053FE4, symSize: 0x38 }
  - { offsetInCU: 0x5268D, offset: 0x5268D, size: 0x8, addend: 0x0, symName: __ZNSt3__119__allocate_at_leastB7v160006INS_9allocatorIPbEEEENS_19__allocation_resultINS_16allocator_traitsIT_E7pointerEEERS6_m, symObjAddr: 0x5069C, symBinAddr: 0x10005419C, symSize: 0x40 }
  - { offsetInCU: 0x526D6, offset: 0x526D6, size: 0x8, addend: 0x0, symName: __ZNSt3__119__debug_db_insert_cB7v160006INS_6vectorImNS_9allocatorImEEEEEEvPT_, symObjAddr: 0x51140, symBinAddr: 0x100054C40, symSize: 0x10 }
  - { offsetInCU: 0x52708, offset: 0x52708, size: 0x8, addend: 0x0, symName: __ZNSt3__115__debug_db_swapB7v160006INS_6vectorImNS_9allocatorImEEEEEEvPT_S6_, symObjAddr: 0x51150, symBinAddr: 0x100054C50, symSize: 0x14 }
  - { offsetInCU: 0x52748, offset: 0x52748, size: 0x8, addend: 0x0, symName: __ZNSt3__119__allocate_at_leastB7v160006INS_9allocatorINS_6vectorImNS1_ImEEEEEEEENS_19__allocation_resultINS_16allocator_traitsIT_E7pointerEEERS8_m, symObjAddr: 0x516CC, symBinAddr: 0x1000551CC, symSize: 0x40 }
  - { offsetInCU: 0x52790, offset: 0x52790, size: 0x8, addend: 0x0, symName: __ZNSt3__142__uninitialized_allocator_move_if_noexceptB7v160006INS_9allocatorINS_6vectorImNS1_ImEEEEEENS_16reverse_iteratorIPS4_EES8_S8_EET2_RT_T0_T1_S9_, symObjAddr: 0x51884, symBinAddr: 0x100055384, symSize: 0x12C }
  - { offsetInCU: 0x52831, offset: 0x52831, size: 0x8, addend: 0x0, symName: __ZNSt3__14swapB7v160006IPNS_6vectorImNS_9allocatorImEEEEEENS_9enable_ifIXaasr21is_move_constructibleIT_EE5valuesr18is_move_assignableIS7_EE5valueEvE4typeERS7_SA_, symObjAddr: 0x519FC, symBinAddr: 0x1000554FC, symSize: 0x3C }
  - { offsetInCU: 0x5288A, offset: 0x5288A, size: 0x8, addend: 0x0, symName: __ZNSt3__125__debug_db_invalidate_allB7v160006INS_6vectorINS1_ImNS_9allocatorImEEEENS2_IS4_EEEEEEvPT_, symObjAddr: 0x51B00, symBinAddr: 0x100055600, symSize: 0x10 }
  - { offsetInCU: 0x528BB, offset: 0x528BB, size: 0x8, addend: 0x0, symName: __ZNSt3__122__make_exception_guardB7v160006INS_29_AllocatorDestroyRangeReverseINS_9allocatorINS_6vectorImNS2_ImEEEEEENS_16reverse_iteratorIPS5_EEEEEENS_28__exception_guard_exceptionsIT_EESC_, symObjAddr: 0x51B10, symBinAddr: 0x100055610, symSize: 0x4C }
  - { offsetInCU: 0x528F1, offset: 0x528F1, size: 0x8, addend: 0x0, symName: __ZNSt3__1neB7v160006IPNS_6vectorImNS_9allocatorImEEEES5_EEbRKNS_16reverse_iteratorIT_EERKNS6_IT0_EE, symObjAddr: 0x51BA0, symBinAddr: 0x1000556A0, symSize: 0x48 }
  - { offsetInCU: 0x5293D, offset: 0x5293D, size: 0x8, addend: 0x0, symName: __ZNSt3__112__to_addressB7v160006INS_16reverse_iteratorIPNS_6vectorImNS_9allocatorImEEEEEEvEENS_5decayIDTclsr19__to_address_helperIT_EE6__callclsr3stdE7declvalIRKS9_EEEEE4typeESB_, symObjAddr: 0x51BE8, symBinAddr: 0x1000556E8, symSize: 0x24 }
  - { offsetInCU: 0x5299C, offset: 0x5299C, size: 0x8, addend: 0x0, symName: __ZNSt3__119__allocator_destroyB7v160006INS_9allocatorINS_6vectorImNS1_ImEEEEEENS_16reverse_iteratorINS6_IPS4_EEEES9_EEvRT_T0_T1_, symObjAddr: 0x51E98, symBinAddr: 0x100055998, symSize: 0x70 }
  - { offsetInCU: 0x52A01, offset: 0x52A01, size: 0x8, addend: 0x0, symName: __ZNSt3__1neB7v160006INS_16reverse_iteratorIPNS_6vectorImNS_9allocatorImEEEEEES7_EEbRKNS1_IT_EERKNS1_IT0_EE, symObjAddr: 0x51F44, symBinAddr: 0x100055A44, symSize: 0x60 }
  - { offsetInCU: 0x52A4D, offset: 0x52A4D, size: 0x8, addend: 0x0, symName: __ZNSt3__112__to_addressB7v160006INS_16reverse_iteratorINS1_IPNS_6vectorImNS_9allocatorImEEEEEEEEvEENS_5decayIDTclsr19__to_address_helperIT_EE6__callclsr3stdE7declvalIRKSA_EEEEE4typeESC_, symObjAddr: 0x51FA4, symBinAddr: 0x100055AA4, symSize: 0x24 }
  - { offsetInCU: 0x53071, offset: 0x53071, size: 0x8, addend: 0x0, symName: __ZNSt3__125__debug_db_invalidate_allB7v160006INS_6vectorIfNS_9allocatorIfEEEEEEvPT_, symObjAddr: 0x539A0, symBinAddr: 0x1000574A0, symSize: 0x10 }
  - { offsetInCU: 0x530A3, offset: 0x530A3, size: 0x8, addend: 0x0, symName: __ZNSt3__119__allocate_at_leastB7v160006INS_9allocatorIfEEEENS_19__allocation_resultINS_16allocator_traitsIT_E7pointerEEERS5_m, symObjAddr: 0x54298, symBinAddr: 0x100057D98, symSize: 0x40 }
  - { offsetInCU: 0x530EB, offset: 0x530EB, size: 0x8, addend: 0x0, symName: __ZNSt3__142__uninitialized_allocator_move_if_noexceptB7v160006INS_9allocatorIfEENS_16reverse_iteratorIPfEES5_fvEET1_RT_T0_S9_S6_, symObjAddr: 0x54518, symBinAddr: 0x100058018, symSize: 0x78 }
  - { offsetInCU: 0x5316A, offset: 0x5316A, size: 0x8, addend: 0x0, symName: __ZNSt3__14swapB7v160006IPfEENS_9enable_ifIXaasr21is_move_constructibleIT_EE5valuesr18is_move_assignableIS3_EE5valueEvE4typeERS3_S6_, symObjAddr: 0x545DC, symBinAddr: 0x1000580DC, symSize: 0x3C }
  - { offsetInCU: 0x531C3, offset: 0x531C3, size: 0x8, addend: 0x0, symName: __ZNSt3__14moveB7v160006INS_16reverse_iteratorIPfEES3_EET0_T_S5_S4_, symObjAddr: 0x546C4, symBinAddr: 0x1000581C4, symSize: 0x78 }
  - { offsetInCU: 0x53225, offset: 0x53225, size: 0x8, addend: 0x0, symName: __ZNSt3__16__moveB7v160006INS_17_ClassicAlgPolicyENS_16reverse_iteratorIPfEES4_S4_EENS_4pairIT0_T2_EES6_T1_S7_, symObjAddr: 0x5473C, symBinAddr: 0x10005823C, symSize: 0x64 }
  - { offsetInCU: 0x53299, offset: 0x53299, size: 0x8, addend: 0x0, symName: __ZNSt3__123__dispatch_copy_or_moveB7v160006INS_17_ClassicAlgPolicyENS_11__move_loopIS1_EENS_14__move_trivialENS_16reverse_iteratorIPfEES7_S7_EENS_4pairIT2_T4_EES9_T3_SA_, symObjAddr: 0x547A0, symBinAddr: 0x1000582A0, symSize: 0x64 }
  - { offsetInCU: 0x5331F, offset: 0x5331F, size: 0x8, addend: 0x0, symName: __ZNSt3__121__unwrap_and_dispatchB7v160006INS_10__overloadINS_11__move_loopINS_17_ClassicAlgPolicyEEENS_14__move_trivialEEENS_16reverse_iteratorIPfEES9_S9_Li0EEENS_4pairIT0_T2_EESB_T1_SC_, symObjAddr: 0x54804, symBinAddr: 0x100058304, symSize: 0x12C }
  - { offsetInCU: 0x533BB, offset: 0x533BB, size: 0x8, addend: 0x0, symName: __ZNSt3__114__unwrap_rangeB7v160006INS_16reverse_iteratorIPfEES3_EENS_4pairIT0_S5_EET_S7_, symObjAddr: 0x54930, symBinAddr: 0x100058430, symSize: 0x84 }
  - { offsetInCU: 0x534E1, offset: 0x534E1, size: 0x8, addend: 0x0, symName: __ZNSt3__113__unwrap_iterB7v160006INS_16reverse_iteratorIPfEENS_18__unwrap_iter_implIS3_Lb0EEELi0EEEDTclsrT0_8__unwrapclsr3stdE7declvalIT_EEEES7_, symObjAddr: 0x54A54, symBinAddr: 0x100058554, symSize: 0x44 }
  - { offsetInCU: 0x53528, offset: 0x53528, size: 0x8, addend: 0x0, symName: __ZNSt3__19make_pairB7v160006INS_16reverse_iteratorIPfEES3_EENS_4pairINS_18__unwrap_ref_decayIT_E4typeENS5_IT0_E4typeEEEOS6_OS9_, symObjAddr: 0x54A98, symBinAddr: 0x100058598, symSize: 0x38 }
  - { offsetInCU: 0x53578, offset: 0x53578, size: 0x8, addend: 0x0, symName: __ZNSt3__114__rewrap_rangeB7v160006INS_16reverse_iteratorIPfEES3_EET_S4_T0_, symObjAddr: 0x54AD0, symBinAddr: 0x1000585D0, symSize: 0x5C }
  - { offsetInCU: 0x535CA, offset: 0x535CA, size: 0x8, addend: 0x0, symName: __ZNSt3__113__rewrap_iterB7v160006INS_16reverse_iteratorIPfEES3_NS_18__unwrap_iter_implIS3_Lb0EEEEET_S6_T0_, symObjAddr: 0x54B2C, symBinAddr: 0x10005862C, symSize: 0x74 }
  - { offsetInCU: 0x53624, offset: 0x53624, size: 0x8, addend: 0x0, symName: __ZNSt3__1neB7v160006IPfS1_EEbRKNS_16reverse_iteratorIT_EERKNS2_IT0_EE, symObjAddr: 0x54BA0, symBinAddr: 0x1000586A0, symSize: 0x48 }
  - { offsetInCU: 0x536E7, offset: 0x536E7, size: 0x8, addend: 0x0, symName: __ZNSt3__13minB7v160006IjEERKT_S3_S3_, symObjAddr: 0x55CDC, symBinAddr: 0x1000597DC, symSize: 0x2C }
  - { offsetInCU: 0x53730, offset: 0x53730, size: 0x8, addend: 0x0, symName: __ZNSt3__13minB7v160006IjNS_6__lessIjjEEEERKT_S5_S5_T0_, symObjAddr: 0x55D3C, symBinAddr: 0x10005983C, symSize: 0x54 }
  - { offsetInCU: 0x537D0, offset: 0x537D0, size: 0x8, addend: 0x0, symName: __ZNSt3__1plB7v160006IcNS_11char_traitsIcEENS_9allocatorIcEEEENS_12basic_stringIT_T0_T1_EEPKS6_OS9_, symObjAddr: 0x55DC4, symBinAddr: 0x1000598C4, symSize: 0x44 }
  - { offsetInCU: 0x53829, offset: 0x53829, size: 0x8, addend: 0x0, symName: __ZNSt3__13minB7v160006IdEERKT_S3_S3_, symObjAddr: 0x55E08, symBinAddr: 0x100059908, symSize: 0x2C }
  - { offsetInCU: 0x53872, offset: 0x53872, size: 0x8, addend: 0x0, symName: __ZNSt3__13maxB7v160006IdEERKT_S3_S3_, symObjAddr: 0x55E34, symBinAddr: 0x100059934, symSize: 0x2C }
  - { offsetInCU: 0x538BB, offset: 0x538BB, size: 0x8, addend: 0x0, symName: __ZNSt3__13minB7v160006IdNS_6__lessIddEEEERKT_S5_S5_T0_, symObjAddr: 0x55E78, symBinAddr: 0x100059978, symSize: 0x54 }
  - { offsetInCU: 0x5395C, offset: 0x5395C, size: 0x8, addend: 0x0, symName: __ZNSt3__13maxB7v160006IdNS_6__lessIddEEEERKT_S5_S5_T0_, symObjAddr: 0x55F00, symBinAddr: 0x100059A00, symSize: 0x54 }
  - { offsetInCU: 0x539BE, offset: 0x539BE, size: 0x8, addend: 0x0, symName: __ZNSt3__119__debug_db_insert_cB7v160006INS_6vectorIdNS_9allocatorIdEEEEEEvPT_, symObjAddr: 0x56CD8, symBinAddr: 0x10005A7D8, symSize: 0x10 }
  - { offsetInCU: 0x539EF, offset: 0x539EF, size: 0x8, addend: 0x0, symName: __ZNSt3__122__make_exception_guardB7v160006INS_6vectorIdNS_9allocatorIdEEE16__destroy_vectorEEENS_28__exception_guard_exceptionsIT_EES7_, symObjAddr: 0x56F30, symBinAddr: 0x10005AA30, symSize: 0x40 }
  - { offsetInCU: 0x53A25, offset: 0x53A25, size: 0x8, addend: 0x0, symName: __ZNSt3__119__allocate_at_leastB7v160006INS_9allocatorIdEEEENS_19__allocation_resultINS_16allocator_traitsIT_E7pointerEEERS5_m, symObjAddr: 0x5725C, symBinAddr: 0x10005AD5C, symSize: 0x40 }
  - { offsetInCU: 0x53A6E, offset: 0x53A6E, size: 0x8, addend: 0x0, symName: __ZNSt3__112__to_addressB7v160006IdEEPT_S2_, symObjAddr: 0x57580, symBinAddr: 0x10005B080, symSize: 0x14 }
  - { offsetInCU: 0x53AA4, offset: 0x53AA4, size: 0x8, addend: 0x0, symName: __ZNSt3__118__debug_db_erase_cB7v160006INS_6vectorIdNS_9allocatorIdEEEEEEvPT_, symObjAddr: 0x578C0, symBinAddr: 0x10005B3C0, symSize: 0x10 }
  - { offsetInCU: 0x53AD6, offset: 0x53AD6, size: 0x8, addend: 0x0, symName: __ZNSt3__115__debug_db_swapB7v160006INS_6vectorIdNS_9allocatorIdEEEEEEvPT_S6_, symObjAddr: 0x57BC4, symBinAddr: 0x10005B6C4, symSize: 0x14 }
  - { offsetInCU: 0x53B16, offset: 0x53B16, size: 0x8, addend: 0x0, symName: __ZNSt3__125__debug_db_invalidate_allB7v160006INS_6vectorIdNS_9allocatorIdEEEEEEvPT_, symObjAddr: 0x57CE0, symBinAddr: 0x10005B7E0, symSize: 0x10 }
  - { offsetInCU: 0x53B47, offset: 0x53B47, size: 0x8, addend: 0x0, symName: __ZNSt3__1neB7v160006IPNS_6threadEEEbRKNS_11__wrap_iterIT_EES7_, symObjAddr: 0x595A0, symBinAddr: 0x10005D0A0, symSize: 0x34 }
  - { offsetInCU: 0x53B8A, offset: 0x53B8A, size: 0x8, addend: 0x0, symName: __ZNSt3__122__make_exception_guardB7v160006INS_6vectorINS_6threadENS_9allocatorIS2_EEE16__destroy_vectorEEENS_28__exception_guard_exceptionsIT_EES8_, symObjAddr: 0x59754, symBinAddr: 0x10005D254, symSize: 0x40 }
  - { offsetInCU: 0x53BC0, offset: 0x53BC0, size: 0x8, addend: 0x0, symName: __ZNSt3__119__debug_db_insert_cB7v160006INS_6vectorINS_6threadENS_9allocatorIS2_EEEEEEvPT_, symObjAddr: 0x597C8, symBinAddr: 0x10005D2C8, symSize: 0x10 }
  - { offsetInCU: 0x53BF2, offset: 0x53BF2, size: 0x8, addend: 0x0, symName: __ZNSt3__119__allocate_at_leastB7v160006INS_9allocatorINS_6threadEEEEENS_19__allocation_resultINS_16allocator_traitsIT_E7pointerEEERS6_m, symObjAddr: 0x59B50, symBinAddr: 0x10005D650, symSize: 0x40 }
  - { offsetInCU: 0x53C3B, offset: 0x53C3B, size: 0x8, addend: 0x0, symName: __ZNSt3__112__to_addressB7v160006INS_6threadEEEPT_S3_, symObjAddr: 0x59E74, symBinAddr: 0x10005D974, symSize: 0x14 }
  - { offsetInCU: 0x53C71, offset: 0x53C71, size: 0x8, addend: 0x0, symName: __ZNSt3__118__debug_db_erase_cB7v160006INS_6vectorINS_6threadENS_9allocatorIS2_EEEEEEvPT_, symObjAddr: 0x5A1F0, symBinAddr: 0x10005DCF0, symSize: 0x10 }
  - { offsetInCU: 0x5409F, offset: 0x5409F, size: 0x8, addend: 0x0, symName: __ZNSt3__122__libcpp_thread_createB7v160006EPP17_opaque_pthread_tPFPvS3_ES3_, symObjAddr: 0x5A590, symBinAddr: 0x10005E090, symSize: 0x38 }
  - { offsetInCU: 0x540EB, offset: 0x540EB, size: 0x8, addend: 0x0, symName: __ZNSt3__114__thread_proxyB7v160006INS_5tupleIJNS_10unique_ptrINS_15__thread_structENS_14default_deleteIS3_EEEEZN7mlpalns5PALNSI6PDPTWT15PDPTWT_solutionE13start_threadsEjEUlvE_EEEEEPvSE_, symObjAddr: 0x5A5C8, symBinAddr: 0x10005E0C8, symSize: 0x90 }
  - { offsetInCU: 0x54234, offset: 0x54234, size: 0x8, addend: 0x0, symName: __ZNSt3__13getB7v160006ILm0EJNS_10unique_ptrINS_15__thread_structENS_14default_deleteIS2_EEEEZN7mlpalns5PALNSI6PDPTWT15PDPTWT_solutionE13start_threadsEjEUlvE_EEERNS_13tuple_elementIXT_ENS_5tupleIJDpT0_EEEE4typeERSG_, symObjAddr: 0x5AC7C, symBinAddr: 0x10005E77C, symSize: 0x24 }
  - { offsetInCU: 0x5427C, offset: 0x5427C, size: 0x8, addend: 0x0, symName: __ZNSt3__116__thread_executeB7v160006INS_10unique_ptrINS_15__thread_structENS_14default_deleteIS2_EEEEZN7mlpalns5PALNSI6PDPTWT15PDPTWT_solutionE13start_threadsEjEUlvE_JEJEEEvRNS_5tupleIJT_T0_DpT1_EEENS_15__tuple_indicesIJXspT2_EEEE, symObjAddr: 0x5ACA0, symBinAddr: 0x10005E7A0, symSize: 0x28 }
  - { offsetInCU: 0x542CE, offset: 0x542CE, size: 0x8, addend: 0x0, symName: __ZNSt3__116__libcpp_tls_setB7v160006EmPv, symObjAddr: 0x5ACC8, symBinAddr: 0x10005E7C8, symSize: 0x2C }
  - { offsetInCU: 0x5430C, offset: 0x5430C, size: 0x8, addend: 0x0, symName: __ZNSt3__18__invokeB7v160006IZN7mlpalns5PALNSI6PDPTWT15PDPTWT_solutionE13start_threadsEjEUlvE_JEEEDTclclsr3stdE7declvalIT_EEspclsr3stdE7declvalIT0_EEEEOS7_DpOS8_, symObjAddr: 0x5AD08, symBinAddr: 0x10005E808, symSize: 0x24 }
  - { offsetInCU: 0x54347, offset: 0x54347, size: 0x8, addend: 0x0, symName: __ZNSt3__13getB7v160006ILm1EJNS_10unique_ptrINS_15__thread_structENS_14default_deleteIS2_EEEEZN7mlpalns5PALNSI6PDPTWT15PDPTWT_solutionE13start_threadsEjEUlvE_EEERNS_13tuple_elementIXT_ENS_5tupleIJDpT0_EEEE4typeERSG_, symObjAddr: 0x5AD2C, symBinAddr: 0x10005E82C, symSize: 0x28 }
  - { offsetInCU: 0x54390, offset: 0x54390, size: 0x8, addend: 0x0, symName: __ZNSt3__14iotaB7v160006IPjjEEvT_S2_T0_, symObjAddr: 0x5BEFC, symBinAddr: 0x10005F9FC, symSize: 0x60 }
  - { offsetInCU: 0x543EE, offset: 0x543EE, size: 0x8, addend: 0x0, symName: __ZNSt3__15beginB7v160006IjLm624EEEPT_RAT0__S1_, symObjAddr: 0x5BF5C, symBinAddr: 0x10005FA5C, symSize: 0x14 }
  - { offsetInCU: 0x54432, offset: 0x54432, size: 0x8, addend: 0x0, symName: __ZNSt3__13endB7v160006IjLm624EEEPT_RAT0__S1_, symObjAddr: 0x5BF70, symBinAddr: 0x10005FA70, symSize: 0x18 }
  - { offsetInCU: 0x547F1, offset: 0x547F1, size: 0x8, addend: 0x0, symName: __ZNSt3__119__debug_db_insert_cB7v160006INS_6vectorIjNS_9allocatorIjEEEEEEvPT_, symObjAddr: 0x5CD34, symBinAddr: 0x100060834, symSize: 0x10 }
  - { offsetInCU: 0x54823, offset: 0x54823, size: 0x8, addend: 0x0, symName: __ZNSt3__112__to_addressB7v160006IjEEPT_S2_, symObjAddr: 0x5D0D8, symBinAddr: 0x100060BD8, symSize: 0x14 }
  - { offsetInCU: 0x54859, offset: 0x54859, size: 0x8, addend: 0x0, symName: __ZNSt3__119__allocate_at_leastB7v160006INS_9allocatorIjEEEENS_19__allocation_resultINS_16allocator_traitsIT_E7pointerEEERS5_m, symObjAddr: 0x5D704, symBinAddr: 0x100061204, symSize: 0x40 }
  - { offsetInCU: 0x548A1, offset: 0x548A1, size: 0x8, addend: 0x0, symName: __ZNSt3__142__uninitialized_allocator_move_if_noexceptB7v160006INS_9allocatorIjEENS_16reverse_iteratorIPjEES5_jvEET1_RT_T0_S9_S6_, symObjAddr: 0x5D970, symBinAddr: 0x100061470, symSize: 0x78 }
  - { offsetInCU: 0x54920, offset: 0x54920, size: 0x8, addend: 0x0, symName: __ZNSt3__14swapB7v160006IPjEENS_9enable_ifIXaasr21is_move_constructibleIT_EE5valuesr18is_move_assignableIS3_EE5valueEvE4typeERS3_S6_, symObjAddr: 0x5DA34, symBinAddr: 0x100061534, symSize: 0x3C }
  - { offsetInCU: 0x54979, offset: 0x54979, size: 0x8, addend: 0x0, symName: __ZNSt3__125__debug_db_invalidate_allB7v160006INS_6vectorIjNS_9allocatorIjEEEEEEvPT_, symObjAddr: 0x5DB1C, symBinAddr: 0x10006161C, symSize: 0x10 }
  - { offsetInCU: 0x549AB, offset: 0x549AB, size: 0x8, addend: 0x0, symName: __ZNSt3__14moveB7v160006INS_16reverse_iteratorIPjEES3_EET0_T_S5_S4_, symObjAddr: 0x5DB74, symBinAddr: 0x100061674, symSize: 0x78 }
  - { offsetInCU: 0x54A0D, offset: 0x54A0D, size: 0x8, addend: 0x0, symName: __ZNSt3__16__moveB7v160006INS_17_ClassicAlgPolicyENS_16reverse_iteratorIPjEES4_S4_EENS_4pairIT0_T2_EES6_T1_S7_, symObjAddr: 0x5DBEC, symBinAddr: 0x1000616EC, symSize: 0x64 }
  - { offsetInCU: 0x54A81, offset: 0x54A81, size: 0x8, addend: 0x0, symName: __ZNSt3__123__dispatch_copy_or_moveB7v160006INS_17_ClassicAlgPolicyENS_11__move_loopIS1_EENS_14__move_trivialENS_16reverse_iteratorIPjEES7_S7_EENS_4pairIT2_T4_EES9_T3_SA_, symObjAddr: 0x5DC50, symBinAddr: 0x100061750, symSize: 0x64 }
  - { offsetInCU: 0x54B07, offset: 0x54B07, size: 0x8, addend: 0x0, symName: __ZNSt3__121__unwrap_and_dispatchB7v160006INS_10__overloadINS_11__move_loopINS_17_ClassicAlgPolicyEEENS_14__move_trivialEEENS_16reverse_iteratorIPjEES9_S9_Li0EEENS_4pairIT0_T2_EESB_T1_SC_, symObjAddr: 0x5DCB4, symBinAddr: 0x1000617B4, symSize: 0x12C }
  - { offsetInCU: 0x54BA3, offset: 0x54BA3, size: 0x8, addend: 0x0, symName: __ZNSt3__114__unwrap_rangeB7v160006INS_16reverse_iteratorIPjEES3_EENS_4pairIT0_S5_EET_S7_, symObjAddr: 0x5DDE0, symBinAddr: 0x1000618E0, symSize: 0x84 }
  - { offsetInCU: 0x54CC9, offset: 0x54CC9, size: 0x8, addend: 0x0, symName: __ZNSt3__113__unwrap_iterB7v160006INS_16reverse_iteratorIPjEENS_18__unwrap_iter_implIS3_Lb0EEELi0EEEDTclsrT0_8__unwrapclsr3stdE7declvalIT_EEEES7_, symObjAddr: 0x5DF04, symBinAddr: 0x100061A04, symSize: 0x44 }
  - { offsetInCU: 0x54D10, offset: 0x54D10, size: 0x8, addend: 0x0, symName: __ZNSt3__19make_pairB7v160006INS_16reverse_iteratorIPjEES3_EENS_4pairINS_18__unwrap_ref_decayIT_E4typeENS5_IT0_E4typeEEEOS6_OS9_, symObjAddr: 0x5DF48, symBinAddr: 0x100061A48, symSize: 0x38 }
  - { offsetInCU: 0x54D60, offset: 0x54D60, size: 0x8, addend: 0x0, symName: __ZNSt3__114__rewrap_rangeB7v160006INS_16reverse_iteratorIPjEES3_EET_S4_T0_, symObjAddr: 0x5DF80, symBinAddr: 0x100061A80, symSize: 0x5C }
  - { offsetInCU: 0x54DB2, offset: 0x54DB2, size: 0x8, addend: 0x0, symName: __ZNSt3__113__rewrap_iterB7v160006INS_16reverse_iteratorIPjEES3_NS_18__unwrap_iter_implIS3_Lb0EEEEET_S6_T0_, symObjAddr: 0x5DFDC, symBinAddr: 0x100061ADC, symSize: 0x74 }
  - { offsetInCU: 0x54E0C, offset: 0x54E0C, size: 0x8, addend: 0x0, symName: __ZNSt3__1neB7v160006IPjS1_EEbRKNS_16reverse_iteratorIT_EERKNS2_IT0_EE, symObjAddr: 0x5E050, symBinAddr: 0x100061B50, symSize: 0x48 }
  - { offsetInCU: 0x54ECF, offset: 0x54ECF, size: 0x8, addend: 0x0, symName: __ZNSt3__118__debug_db_erase_cB7v160006INS_6vectorIjNS_9allocatorIjEEEEEEvPT_, symObjAddr: 0x5E5C8, symBinAddr: 0x1000620C8, symSize: 0x10 }
  - { offsetInCU: 0x54F5E, offset: 0x54F5E, size: 0x8, addend: 0x0, symName: __ZNSt3__14fillB7v160006IPjjEEvT_S2_RKT0_, symObjAddr: 0x5EFC4, symBinAddr: 0x100062AC4, symSize: 0x34 }
  - { offsetInCU: 0x54FBC, offset: 0x54FBC, size: 0x8, addend: 0x0, symName: __ZNSt3__16__fillB7v160006IPjjEEvT_S2_RKT0_NS_26random_access_iterator_tagE, symObjAddr: 0x5F038, symBinAddr: 0x100062B38, symSize: 0x44 }
  - { offsetInCU: 0x55026, offset: 0x55026, size: 0x8, addend: 0x0, symName: __ZNSt3__16fill_nB7v160006IPjljEET_S2_T0_RKT1_, symObjAddr: 0x5F07C, symBinAddr: 0x100062B7C, symSize: 0x44 }
  - { offsetInCU: 0x55091, offset: 0x55091, size: 0x8, addend: 0x0, symName: __ZNSt3__18__fill_nB7v160006IPjljEET_S2_T0_RKT1_, symObjAddr: 0x5F0C0, symBinAddr: 0x100062BC0, symSize: 0x64 }
  - { offsetInCU: 0x550FC, offset: 0x550FC, size: 0x8, addend: 0x0, symName: __ZNSt3__119__debug_db_insert_cB7v160006INS_6vectorINS_10unique_ptrIN7mlpalns13DestroyMethodI15PDPTWT_solutionEENS_14default_deleteIS6_EEEENS_9allocatorIS9_EEEEEEvPT_, symObjAddr: 0x5F1B8, symBinAddr: 0x100062CB8, symSize: 0x10 }
  - { offsetInCU: 0x5512E, offset: 0x5512E, size: 0x8, addend: 0x0, symName: __ZNSt3__119__debug_db_insert_cB7v160006INS_6vectorINS_10unique_ptrIN7mlpalns12RepairMethodI15PDPTWT_solutionEENS_14default_deleteIS6_EEEENS_9allocatorIS9_EEEEEEvPT_, symObjAddr: 0x5F324, symBinAddr: 0x100062E24, symSize: 0x10 }
  - { offsetInCU: 0x5515F, offset: 0x5515F, size: 0x8, addend: 0x0, symName: __ZNSt3__1neB7v160006IPPN7mlpalns13DestroyMethodI15PDPTWT_solutionEEEEbRKNS_11__wrap_iterIT_EESB_, symObjAddr: 0x5F504, symBinAddr: 0x100063004, symSize: 0x34 }
  - { offsetInCU: 0x551A3, offset: 0x551A3, size: 0x8, addend: 0x0, symName: __ZNSt3__125__debug_db_invalidate_allB7v160006INS_6vectorINS_10unique_ptrIN7mlpalns13DestroyMethodI15PDPTWT_solutionEENS_14default_deleteIS6_EEEENS_9allocatorIS9_EEEEEEvPT_, symObjAddr: 0x5F950, symBinAddr: 0x100063450, symSize: 0x10 }
  - { offsetInCU: 0x551D5, offset: 0x551D5, size: 0x8, addend: 0x0, symName: __ZNSt3__112__to_addressB7v160006INS_10unique_ptrIN7mlpalns13DestroyMethodI15PDPTWT_solutionEENS_14default_deleteIS5_EEEEEEPT_SA_, symObjAddr: 0x5FA40, symBinAddr: 0x100063540, symSize: 0x14 }
  - { offsetInCU: 0x5520B, offset: 0x5520B, size: 0x8, addend: 0x0, symName: __ZNSt3__125__debug_db_invalidate_allB7v160006INS_6vectorINS_10unique_ptrIN7mlpalns12RepairMethodI15PDPTWT_solutionEENS_14default_deleteIS6_EEEENS_9allocatorIS9_EEEEEEvPT_, symObjAddr: 0x5FCA0, symBinAddr: 0x1000637A0, symSize: 0x10 }
  - { offsetInCU: 0x5523D, offset: 0x5523D, size: 0x8, addend: 0x0, symName: __ZNSt3__112__to_addressB7v160006INS_10unique_ptrIN7mlpalns12RepairMethodI15PDPTWT_solutionEENS_14default_deleteIS5_EEEEEEPT_SA_, symObjAddr: 0x5FD90, symBinAddr: 0x100063890, symSize: 0x14 }
  - { offsetInCU: 0x55272, offset: 0x55272, size: 0x8, addend: 0x0, symName: __ZNSt3__1eqB7v160006IPPN7mlpalns13DestroyMethodI15PDPTWT_solutionEEEEbRKNS_11__wrap_iterIT_EESB_, symObjAddr: 0x5FF80, symBinAddr: 0x100063A80, symSize: 0x48 }
  - { offsetInCU: 0x552B6, offset: 0x552B6, size: 0x8, addend: 0x0, symName: __ZNSt3__119__allocate_at_leastB7v160006INS_9allocatorINS_10unique_ptrIN7mlpalns13DestroyMethodI15PDPTWT_solutionEENS_14default_deleteIS6_EEEEEEEENS_19__allocation_resultINS_16allocator_traitsIT_E7pointerEEERSD_m, symObjAddr: 0x60960, symBinAddr: 0x100064460, symSize: 0x40 }
  - { offsetInCU: 0x552FE, offset: 0x552FE, size: 0x8, addend: 0x0, symName: __ZNSt3__142__uninitialized_allocator_move_if_noexceptB7v160006INS_9allocatorINS_10unique_ptrIN7mlpalns13DestroyMethodI15PDPTWT_solutionEENS_14default_deleteIS6_EEEEEENS_16reverse_iteratorIPS9_EESD_SD_EET2_RT_T0_T1_SE_, symObjAddr: 0x60BCC, symBinAddr: 0x1000646CC, symSize: 0x12C }
  - { offsetInCU: 0x5539F, offset: 0x5539F, size: 0x8, addend: 0x0, symName: __ZNSt3__14swapB7v160006IPNS_10unique_ptrIN7mlpalns13DestroyMethodI15PDPTWT_solutionEENS_14default_deleteIS5_EEEEEENS_9enable_ifIXaasr21is_move_constructibleIT_EE5valuesr18is_move_assignableISB_EE5valueEvE4typeERSB_SE_, symObjAddr: 0x60D44, symBinAddr: 0x100064844, symSize: 0x3C }
  - { offsetInCU: 0x553F7, offset: 0x553F7, size: 0x8, addend: 0x0, symName: __ZNSt3__122__make_exception_guardB7v160006INS_29_AllocatorDestroyRangeReverseINS_9allocatorINS_10unique_ptrIN7mlpalns13DestroyMethodI15PDPTWT_solutionEENS_14default_deleteIS7_EEEEEENS_16reverse_iteratorIPSA_EEEEEENS_28__exception_guard_exceptionsIT_EESH_, symObjAddr: 0x60E2C, symBinAddr: 0x10006492C, symSize: 0x4C }
  - { offsetInCU: 0x5542D, offset: 0x5542D, size: 0x8, addend: 0x0, symName: __ZNSt3__1neB7v160006IPNS_10unique_ptrIN7mlpalns13DestroyMethodI15PDPTWT_solutionEENS_14default_deleteIS5_EEEES9_EEbRKNS_16reverse_iteratorIT_EERKNSA_IT0_EE, symObjAddr: 0x60EBC, symBinAddr: 0x1000649BC, symSize: 0x48 }
  - { offsetInCU: 0x55479, offset: 0x55479, size: 0x8, addend: 0x0, symName: __ZNSt3__112__to_addressB7v160006INS_16reverse_iteratorIPNS_10unique_ptrIN7mlpalns13DestroyMethodI15PDPTWT_solutionEENS_14default_deleteIS6_EEEEEEvEENS_5decayIDTclsr19__to_address_helperIT_EE6__callclsr3stdE7declvalIRKSD_EEEEE4typeESF_, symObjAddr: 0x60F04, symBinAddr: 0x100064A04, symSize: 0x24 }
  - { offsetInCU: 0x554D8, offset: 0x554D8, size: 0x8, addend: 0x0, symName: __ZNSt3__119__allocator_destroyB7v160006INS_9allocatorINS_10unique_ptrIN7mlpalns13DestroyMethodI15PDPTWT_solutionEENS_14default_deleteIS6_EEEEEENS_16reverse_iteratorINSB_IPS9_EEEESE_EEvRT_T0_T1_, symObjAddr: 0x611B4, symBinAddr: 0x100064CB4, symSize: 0x70 }
  - { offsetInCU: 0x5553D, offset: 0x5553D, size: 0x8, addend: 0x0, symName: __ZNSt3__1neB7v160006INS_16reverse_iteratorIPNS_10unique_ptrIN7mlpalns13DestroyMethodI15PDPTWT_solutionEENS_14default_deleteIS6_EEEEEESB_EEbRKNS1_IT_EERKNS1_IT0_EE, symObjAddr: 0x61260, symBinAddr: 0x100064D60, symSize: 0x60 }
  - { offsetInCU: 0x55589, offset: 0x55589, size: 0x8, addend: 0x0, symName: __ZNSt3__112__to_addressB7v160006INS_16reverse_iteratorINS1_IPNS_10unique_ptrIN7mlpalns13DestroyMethodI15PDPTWT_solutionEENS_14default_deleteIS6_EEEEEEEEvEENS_5decayIDTclsr19__to_address_helperIT_EE6__callclsr3stdE7declvalIRKSE_EEEEE4typeESG_, symObjAddr: 0x612C0, symBinAddr: 0x100064DC0, symSize: 0x24 }
  - { offsetInCU: 0x555E9, offset: 0x555E9, size: 0x8, addend: 0x0, symName: __ZNSt3__119__allocate_at_leastB7v160006INS_9allocatorINS_10unique_ptrIN7mlpalns12RepairMethodI15PDPTWT_solutionEENS_14default_deleteIS6_EEEEEEEENS_19__allocation_resultINS_16allocator_traitsIT_E7pointerEEERSD_m, symObjAddr: 0x62600, symBinAddr: 0x100066100, symSize: 0x40 }
  - { offsetInCU: 0x55631, offset: 0x55631, size: 0x8, addend: 0x0, symName: __ZNSt3__142__uninitialized_allocator_move_if_noexceptB7v160006INS_9allocatorINS_10unique_ptrIN7mlpalns12RepairMethodI15PDPTWT_solutionEENS_14default_deleteIS6_EEEEEENS_16reverse_iteratorIPS9_EESD_SD_EET2_RT_T0_T1_SE_, symObjAddr: 0x6286C, symBinAddr: 0x10006636C, symSize: 0x12C }
  - { offsetInCU: 0x556D2, offset: 0x556D2, size: 0x8, addend: 0x0, symName: __ZNSt3__14swapB7v160006IPNS_10unique_ptrIN7mlpalns12RepairMethodI15PDPTWT_solutionEENS_14default_deleteIS5_EEEEEENS_9enable_ifIXaasr21is_move_constructibleIT_EE5valuesr18is_move_assignableISB_EE5valueEvE4typeERSB_SE_, symObjAddr: 0x629E4, symBinAddr: 0x1000664E4, symSize: 0x3C }
  - { offsetInCU: 0x5572A, offset: 0x5572A, size: 0x8, addend: 0x0, symName: __ZNSt3__122__make_exception_guardB7v160006INS_29_AllocatorDestroyRangeReverseINS_9allocatorINS_10unique_ptrIN7mlpalns12RepairMethodI15PDPTWT_solutionEENS_14default_deleteIS7_EEEEEENS_16reverse_iteratorIPSA_EEEEEENS_28__exception_guard_exceptionsIT_EESH_, symObjAddr: 0x62ACC, symBinAddr: 0x1000665CC, symSize: 0x4C }
  - { offsetInCU: 0x55760, offset: 0x55760, size: 0x8, addend: 0x0, symName: __ZNSt3__1neB7v160006IPNS_10unique_ptrIN7mlpalns12RepairMethodI15PDPTWT_solutionEENS_14default_deleteIS5_EEEES9_EEbRKNS_16reverse_iteratorIT_EERKNSA_IT0_EE, symObjAddr: 0x62B5C, symBinAddr: 0x10006665C, symSize: 0x48 }
  - { offsetInCU: 0x557AC, offset: 0x557AC, size: 0x8, addend: 0x0, symName: __ZNSt3__112__to_addressB7v160006INS_16reverse_iteratorIPNS_10unique_ptrIN7mlpalns12RepairMethodI15PDPTWT_solutionEENS_14default_deleteIS6_EEEEEEvEENS_5decayIDTclsr19__to_address_helperIT_EE6__callclsr3stdE7declvalIRKSD_EEEEE4typeESF_, symObjAddr: 0x62BA4, symBinAddr: 0x1000666A4, symSize: 0x24 }
  - { offsetInCU: 0x5580B, offset: 0x5580B, size: 0x8, addend: 0x0, symName: __ZNSt3__119__allocator_destroyB7v160006INS_9allocatorINS_10unique_ptrIN7mlpalns12RepairMethodI15PDPTWT_solutionEENS_14default_deleteIS6_EEEEEENS_16reverse_iteratorINSB_IPS9_EEEESE_EEvRT_T0_T1_, symObjAddr: 0x62E54, symBinAddr: 0x100066954, symSize: 0x70 }
  - { offsetInCU: 0x55870, offset: 0x55870, size: 0x8, addend: 0x0, symName: __ZNSt3__1neB7v160006INS_16reverse_iteratorIPNS_10unique_ptrIN7mlpalns12RepairMethodI15PDPTWT_solutionEENS_14default_deleteIS6_EEEEEESB_EEbRKNS1_IT_EERKNS1_IT0_EE, symObjAddr: 0x62F00, symBinAddr: 0x100066A00, symSize: 0x60 }
  - { offsetInCU: 0x558BC, offset: 0x558BC, size: 0x8, addend: 0x0, symName: __ZNSt3__112__to_addressB7v160006INS_16reverse_iteratorINS1_IPNS_10unique_ptrIN7mlpalns12RepairMethodI15PDPTWT_solutionEENS_14default_deleteIS6_EEEEEEEEvEENS_5decayIDTclsr19__to_address_helperIT_EE6__callclsr3stdE7declvalIRKSE_EEEEE4typeESG_, symObjAddr: 0x62F60, symBinAddr: 0x100066A60, symSize: 0x24 }
  - { offsetInCU: 0x5591C, offset: 0x5591C, size: 0x8, addend: 0x0, symName: __ZNSt3__119__allocate_at_leastB7v160006INS_9allocatorImEEEENS_19__allocation_resultINS_16allocator_traitsIT_E7pointerEEERS5_m, symObjAddr: 0x63B20, symBinAddr: 0x100067620, symSize: 0x40 }
  - { offsetInCU: 0x55964, offset: 0x55964, size: 0x8, addend: 0x0, symName: __ZNSt3__142__uninitialized_allocator_move_if_noexceptB7v160006INS_9allocatorImEENS_16reverse_iteratorIPmEES5_mvEET1_RT_T0_S9_S6_, symObjAddr: 0x63CD4, symBinAddr: 0x1000677D4, symSize: 0x78 }
  - { offsetInCU: 0x559E3, offset: 0x559E3, size: 0x8, addend: 0x0, symName: __ZNSt3__14swapB7v160006IPmEENS_9enable_ifIXaasr21is_move_constructibleIT_EE5valuesr18is_move_assignableIS3_EE5valueEvE4typeERS3_S6_, symObjAddr: 0x63D98, symBinAddr: 0x100067898, symSize: 0x3C }
  - { offsetInCU: 0x55A3C, offset: 0x55A3C, size: 0x8, addend: 0x0, symName: __ZNSt3__125__debug_db_invalidate_allB7v160006INS_6vectorImNS_9allocatorImEEEEEEvPT_, symObjAddr: 0x63E80, symBinAddr: 0x100067980, symSize: 0x10 }
  - { offsetInCU: 0x55A6E, offset: 0x55A6E, size: 0x8, addend: 0x0, symName: __ZNSt3__14moveB7v160006INS_16reverse_iteratorIPmEES3_EET0_T_S5_S4_, symObjAddr: 0x63E90, symBinAddr: 0x100067990, symSize: 0x78 }
  - { offsetInCU: 0x55AD0, offset: 0x55AD0, size: 0x8, addend: 0x0, symName: __ZNSt3__16__moveB7v160006INS_17_ClassicAlgPolicyENS_16reverse_iteratorIPmEES4_S4_EENS_4pairIT0_T2_EES6_T1_S7_, symObjAddr: 0x63F08, symBinAddr: 0x100067A08, symSize: 0x64 }
  - { offsetInCU: 0x55B44, offset: 0x55B44, size: 0x8, addend: 0x0, symName: __ZNSt3__123__dispatch_copy_or_moveB7v160006INS_17_ClassicAlgPolicyENS_11__move_loopIS1_EENS_14__move_trivialENS_16reverse_iteratorIPmEES7_S7_EENS_4pairIT2_T4_EES9_T3_SA_, symObjAddr: 0x63F6C, symBinAddr: 0x100067A6C, symSize: 0x64 }
  - { offsetInCU: 0x55BCA, offset: 0x55BCA, size: 0x8, addend: 0x0, symName: __ZNSt3__121__unwrap_and_dispatchB7v160006INS_10__overloadINS_11__move_loopINS_17_ClassicAlgPolicyEEENS_14__move_trivialEEENS_16reverse_iteratorIPmEES9_S9_Li0EEENS_4pairIT0_T2_EESB_T1_SC_, symObjAddr: 0x63FD0, symBinAddr: 0x100067AD0, symSize: 0x12C }
  - { offsetInCU: 0x55C66, offset: 0x55C66, size: 0x8, addend: 0x0, symName: __ZNSt3__114__unwrap_rangeB7v160006INS_16reverse_iteratorIPmEES3_EENS_4pairIT0_S5_EET_S7_, symObjAddr: 0x640FC, symBinAddr: 0x100067BFC, symSize: 0x84 }
  - { offsetInCU: 0x55D8C, offset: 0x55D8C, size: 0x8, addend: 0x0, symName: __ZNSt3__113__unwrap_iterB7v160006INS_16reverse_iteratorIPmEENS_18__unwrap_iter_implIS3_Lb0EEELi0EEEDTclsrT0_8__unwrapclsr3stdE7declvalIT_EEEES7_, symObjAddr: 0x64220, symBinAddr: 0x100067D20, symSize: 0x44 }
  - { offsetInCU: 0x55DD3, offset: 0x55DD3, size: 0x8, addend: 0x0, symName: __ZNSt3__19make_pairB7v160006INS_16reverse_iteratorIPmEES3_EENS_4pairINS_18__unwrap_ref_decayIT_E4typeENS5_IT0_E4typeEEEOS6_OS9_, symObjAddr: 0x64264, symBinAddr: 0x100067D64, symSize: 0x38 }
  - { offsetInCU: 0x55E23, offset: 0x55E23, size: 0x8, addend: 0x0, symName: __ZNSt3__114__rewrap_rangeB7v160006INS_16reverse_iteratorIPmEES3_EET_S4_T0_, symObjAddr: 0x6429C, symBinAddr: 0x100067D9C, symSize: 0x5C }
  - { offsetInCU: 0x55E75, offset: 0x55E75, size: 0x8, addend: 0x0, symName: __ZNSt3__113__rewrap_iterB7v160006INS_16reverse_iteratorIPmEES3_NS_18__unwrap_iter_implIS3_Lb0EEEEET_S6_T0_, symObjAddr: 0x642F8, symBinAddr: 0x100067DF8, symSize: 0x74 }
  - { offsetInCU: 0x55ECF, offset: 0x55ECF, size: 0x8, addend: 0x0, symName: __ZNSt3__1neB7v160006IPmS1_EEbRKNS_16reverse_iteratorIT_EERKNS2_IT0_EE, symObjAddr: 0x6436C, symBinAddr: 0x100067E6C, symSize: 0x48 }
  - { offsetInCU: 0x55F92, offset: 0x55F92, size: 0x8, addend: 0x0, symName: __ZNSt3__118generate_canonicalB7v160006IfLm24ENS_23mersenne_twister_engineIjLm32ELm624ELm397ELm31ELj2567483615ELm11ELj4294967295ELm7ELj2636928640ELm15ELj4022730752ELm18ELj1812433253EEEEET_RT1_, symObjAddr: 0x6495C, symBinAddr: 0x10006845C, symSize: 0x118 }
  - { offsetInCU: 0x5606C, offset: 0x5606C, size: 0x8, addend: 0x0, symName: __ZNSt3__110accumulateB7v160006INS_11__wrap_iterIPKfEEfEET0_T_S6_S5_, symObjAddr: 0x64A74, symBinAddr: 0x100068574, symSize: 0x70 }
  - { offsetInCU: 0x560CD, offset: 0x560CD, size: 0x8, addend: 0x0, symName: __ZNSt3__1neB7v160006IPKfEEbRKNS_11__wrap_iterIT_EES7_, symObjAddr: 0x64B68, symBinAddr: 0x100068668, symSize: 0x34 }
  - { offsetInCU: 0x56110, offset: 0x56110, size: 0x8, addend: 0x0, symName: __ZNSt3__1eqB7v160006IPKfEEbRKNS_11__wrap_iterIT_EES7_, symObjAddr: 0x64BD4, symBinAddr: 0x1000686D4, symSize: 0x48 }
  - { offsetInCU: 0x56153, offset: 0x56153, size: 0x8, addend: 0x0, symName: __ZNSt3__1neB7v160006IPKmEEbRKNS_11__wrap_iterIT_EES7_, symObjAddr: 0x64D50, symBinAddr: 0x100068850, symSize: 0x34 }
  - { offsetInCU: 0x56196, offset: 0x56196, size: 0x8, addend: 0x0, symName: __ZNSt3__1eqB7v160006IPKmEEbRKNS_11__wrap_iterIT_EES7_, symObjAddr: 0x64E6C, symBinAddr: 0x10006896C, symSize: 0x48 }
  - { offsetInCU: 0x561DA, offset: 0x561DA, size: 0x8, addend: 0x0, symName: __ZNSt3__13maxB7v160006IfEERKT_S3_S3_, symObjAddr: 0x64F3C, symBinAddr: 0x100068A3C, symSize: 0x2C }
  - { offsetInCU: 0x56223, offset: 0x56223, size: 0x8, addend: 0x0, symName: __ZNSt3__13maxB7v160006IfNS_6__lessIffEEEERKT_S5_S5_T0_, symObjAddr: 0x64F68, symBinAddr: 0x100068A68, symSize: 0x54 }
  - { offsetInCU: 0x562C4, offset: 0x562C4, size: 0x8, addend: 0x0, symName: __ZNSt3__118__debug_db_erase_cB7v160006INS_6vectorINS_10unique_ptrIN7mlpalns12RepairMethodI15PDPTWT_solutionEENS_14default_deleteIS6_EEEENS_9allocatorIS9_EEEEEEvPT_, symObjAddr: 0x6515C, symBinAddr: 0x100068C5C, symSize: 0x10 }
  - { offsetInCU: 0x562F6, offset: 0x562F6, size: 0x8, addend: 0x0, symName: __ZNSt3__118__debug_db_erase_cB7v160006INS_6vectorINS_10unique_ptrIN7mlpalns13DestroyMethodI15PDPTWT_solutionEENS_14default_deleteIS6_EEEENS_9allocatorIS9_EEEEEEvPT_, symObjAddr: 0x652A0, symBinAddr: 0x100068DA0, symSize: 0x10 }
  - { offsetInCU: 0x56327, offset: 0x56327, size: 0x8, addend: 0x0, symName: __ZNSt3__122__libcpp_thread_isnullB7v160006EPKP17_opaque_pthread_t, symObjAddr: 0x6565C, symBinAddr: 0x10006915C, symSize: 0x30 }
  - { offsetInCU: 0x56356, offset: 0x56356, size: 0x8, addend: 0x0, symName: __ZNSt3__122__libcpp_thread_get_idB7v160006EPKP17_opaque_pthread_t, symObjAddr: 0x6568C, symBinAddr: 0x10006918C, symSize: 0x18 }
  - { offsetInCU: 0x56384, offset: 0x56384, size: 0x8, addend: 0x0, symName: __ZNSt3__1eqB7v160006IPNS_6threadEEEbRKNS_11__wrap_iterIT_EES7_, symObjAddr: 0x65738, symBinAddr: 0x100069238, symSize: 0x48 }
  - { offsetInCU: 0x579CC, offset: 0x579CC, size: 0x8, addend: 0x0, symName: __ZSt28__throw_bad_array_new_lengthB7v160006v, symObjAddr: 0x551C, symBinAddr: 0x10000901C, symSize: 0x34 }
  - { offsetInCU: 0x57CBA, offset: 0x57CBA, size: 0x8, addend: 0x0, symName: __ZN5boost12placeholders2_1E, symObjAddr: 0x6A803, symBinAddr: 0x10006E62B, symSize: 0x0 }
  - { offsetInCU: 0x58315, offset: 0x58315, size: 0x8, addend: 0x0, symName: __ZN5boost13property_tree11json_parser6detail18read_json_internalINS0_11basic_ptreeINSt3__112basic_stringIcNS5_11char_traitsIcEENS5_9allocatorIcEEEESB_NS5_4lessISB_EEEEEEvRNS5_13basic_istreamINT_8key_type10value_typeENS7_ISH_EEEERSG_RKSB_, symObjAddr: 0x2CB28, symBinAddr: 0x100030628, symSize: 0xBC }
  - { offsetInCU: 0x583A1, offset: 0x583A1, size: 0x8, addend: 0x0, symName: __ZN5boost13property_tree11json_parser6detail18read_json_internalINSt3__119istreambuf_iteratorIcNS4_11char_traitsIcEEEES8_NS2_8encodingIcEENS2_18standard_callbacksINS0_11basic_ptreeINS4_12basic_stringIcS7_NS4_9allocatorIcEEEESG_NS4_4lessISG_EEEEEEEEvT_T0_RT1_RT2_RKSG_, symObjAddr: 0x2E65C, symBinAddr: 0x10003215C, symSize: 0xDC }
  - { offsetInCU: 0x58B15, offset: 0x58B15, size: 0x8, addend: 0x0, symName: __ZN5boost13property_tree11json_parser6detail14make_minirangeINSt3__119istreambuf_iteratorIcNS4_11char_traitsIcEEEES8_EENS2_9minirangeIT_T0_EESA_SB_, symObjAddr: 0x2EA6C, symBinAddr: 0x10003256C, symSize: 0x48 }
  - { offsetInCU: 0x58C37, offset: 0x58C37, size: 0x8, addend: 0x0, symName: __ZN5boost13property_tree11json_parser6detail9constants10true_valueIcEEPKT_v, symObjAddr: 0x398D8, symBinAddr: 0x10003D3D8, symSize: 0xC }
  - { offsetInCU: 0x58C5F, offset: 0x58C5F, size: 0x8, addend: 0x0, symName: __ZN5boost13property_tree11json_parser6detail9constants11false_valueIcEEPKT_v, symObjAddr: 0x398E4, symBinAddr: 0x10003D3E4, symSize: 0xC }
  - { offsetInCU: 0x58C87, offset: 0x58C87, size: 0x8, addend: 0x0, symName: __ZN5boost13property_tree11json_parser6detail9constants10null_valueIcEEPKT_v, symObjAddr: 0x3995C, symBinAddr: 0x10003D45C, symSize: 0xC }
  - { offsetInCU: 0x58D07, offset: 0x58D07, size: 0x8, addend: 0x0, symName: __ZN5boost13property_tree11json_parser9read_jsonINS0_11basic_ptreeINSt3__112basic_stringIcNS4_11char_traitsIcEENS4_9allocatorIcEEEESA_NS4_4lessISA_EEEEEEvRKSA_RT_RKNS4_6localeE, symObjAddr: 0x2B36C, symBinAddr: 0x10002EE6C, symSize: 0x1A4 }
  - { offsetInCU: 0x59BBB, offset: 0x59BBB, size: 0x8, addend: 0x0, symName: __ZN5boost13property_tree6detail21prepare_bad_path_whatINS0_11string_pathINSt3__112basic_stringIcNS4_11char_traitsIcEENS4_9allocatorIcEEEENS0_13id_translatorISA_EEEEEESA_RKSA_RKT_, symObjAddr: 0x3D354, symBinAddr: 0x100040E54, symSize: 0xE8 }
  - { offsetInCU: 0x59BFE, offset: 0x59BFE, size: 0x8, addend: 0x0, symName: __ZN5boost13property_tree6detail13dump_sequenceERKNSt3__112basic_stringIcNS2_11char_traitsIcEENS2_9allocatorIcEEEE, symObjAddr: 0x3E030, symBinAddr: 0x100041B30, symSize: 0x38 }
  - { offsetInCU: 0x5CA8B, offset: 0x5CA8B, size: 0x8, addend: 0x0, symName: __ZN5boost11multi_index6detail7raw_ptrIPNS1_23ordered_index_node_implINS1_19null_augment_policyENSt3__19allocatorIcEEEES9_EET_RKT0_, symObjAddr: 0x326C4, symBinAddr: 0x1000361C4, symSize: 0x34 }
  - { offsetInCU: 0x5CACD, offset: 0x5CACD, size: 0x8, addend: 0x0, symName: __ZN5boost11multi_index6detail7raw_ptrIPNS1_23ordered_index_node_implINS1_19null_augment_policyENSt3__19allocatorIcEEEEEET_RKSA_N4mpl_5bool_ILb1EEE, symObjAddr: 0x326F8, symBinAddr: 0x1000361F8, symSize: 0x18 }
  - { offsetInCU: 0x5CB12, offset: 0x5CB12, size: 0x8, addend: 0x0, symName: __ZN5boost11multi_index6detail7raw_ptrIPNS1_25sequenced_index_node_implINSt3__19allocatorIcEEEES8_EET_RKT0_, symObjAddr: 0x33350, symBinAddr: 0x100036E50, symSize: 0x34 }
  - { offsetInCU: 0x5CB54, offset: 0x5CB54, size: 0x8, addend: 0x0, symName: __ZN5boost11multi_index6detail7raw_ptrIPNS1_25sequenced_index_node_implINSt3__19allocatorIcEEEEEET_RKS9_N4mpl_5bool_ILb1EEE, symObjAddr: 0x33384, symBinAddr: 0x100036E84, symSize: 0x18 }
  - { offsetInCU: 0x5CB98, offset: 0x5CB98, size: 0x8, addend: 0x0, symName: __ZN5boost11multi_index6detaileqINS1_20sequenced_index_nodeINS1_18ordered_index_nodeINS1_19null_augment_policyENS1_15index_node_baseINSt3__14pairIKNS7_12basic_stringIcNS7_11char_traitsIcEENS7_9allocatorIcEEEENS_13property_tree11basic_ptreeISE_SE_NS7_4lessISE_EEEEEENSC_ISL_EEEEEEEEEEbRKNS1_19bidir_node_iteratorIT_EESU_, symObjAddr: 0x3339C, symBinAddr: 0x100036E9C, symSize: 0x48 }
  - { offsetInCU: 0x5CC09, offset: 0x5CC09, size: 0x8, addend: 0x0, symName: __ZN5boost11multi_index6detail7raw_ptrIPNS1_20sequenced_index_nodeINS1_18ordered_index_nodeINS1_19null_augment_policyENS1_15index_node_baseINSt3__14pairIKNS7_12basic_stringIcNS7_11char_traitsIcEENS7_9allocatorIcEEEENS_13property_tree11basic_ptreeISE_SE_NS7_4lessISE_EEEEEENSC_ISL_EEEEEEEESQ_EET_RKT0_, symObjAddr: 0x335E4, symBinAddr: 0x1000370E4, symSize: 0x34 }
  - { offsetInCU: 0x5CC4B, offset: 0x5CC4B, size: 0x8, addend: 0x0, symName: __ZN5boost11multi_index6detail7raw_ptrIPNS1_14copy_map_entryINS1_20sequenced_index_nodeINS1_18ordered_index_nodeINS1_19null_augment_policyENS1_15index_node_baseINSt3__14pairIKNS8_12basic_stringIcNS8_11char_traitsIcEENS8_9allocatorIcEEEENS_13property_tree11basic_ptreeISF_SF_NS8_4lessISF_EEEEEENSD_ISM_EEEEEEEEEESS_EET_RKT0_, symObjAddr: 0x336B4, symBinAddr: 0x1000371B4, symSize: 0x34 }
  - { offsetInCU: 0x5CC8D, offset: 0x5CC8D, size: 0x8, addend: 0x0, symName: __ZN5boost11multi_index6detail7raw_ptrIPNS1_20sequenced_index_nodeINS1_18ordered_index_nodeINS1_19null_augment_policyENS1_15index_node_baseINSt3__14pairIKNS7_12basic_stringIcNS7_11char_traitsIcEENS7_9allocatorIcEEEENS_13property_tree11basic_ptreeISE_SE_NS7_4lessISE_EEEEEENSC_ISL_EEEEEEEEEET_RKSR_N4mpl_5bool_ILb1EEE, symObjAddr: 0x336E8, symBinAddr: 0x1000371E8, symSize: 0x18 }
  - { offsetInCU: 0x5CCD2, offset: 0x5CCD2, size: 0x8, addend: 0x0, symName: __ZN5boost11multi_index6detail7raw_ptrIPNS1_14copy_map_entryINS1_20sequenced_index_nodeINS1_18ordered_index_nodeINS1_19null_augment_policyENS1_15index_node_baseINSt3__14pairIKNS8_12basic_stringIcNS8_11char_traitsIcEENS8_9allocatorIcEEEENS_13property_tree11basic_ptreeISF_SF_NS8_4lessISF_EEEEEENSD_ISM_EEEEEEEEEEEET_RKST_N4mpl_5bool_ILb1EEE, symObjAddr: 0x351B4, symBinAddr: 0x100038CB4, symSize: 0x18 }
  - { offsetInCU: 0x5CD17, offset: 0x5CD17, size: 0x8, addend: 0x0, symName: __ZN5boost11multi_index6detail7raw_ptrIPKNS1_14copy_map_entryINS1_20sequenced_index_nodeINS1_18ordered_index_nodeINS1_19null_augment_policyENS1_15index_node_baseINSt3__14pairIKNS8_12basic_stringIcNS8_11char_traitsIcEENS8_9allocatorIcEEEENS_13property_tree11basic_ptreeISF_SF_NS8_4lessISF_EEEEEENSD_ISM_EEEEEEEEEEPSR_EET_RKT0_, symObjAddr: 0x35AA8, symBinAddr: 0x1000395A8, symSize: 0x34 }
  - { offsetInCU: 0x5CD59, offset: 0x5CD59, size: 0x8, addend: 0x0, symName: __ZN5boost11multi_index6detail7raw_ptrIPKNS1_14copy_map_entryINS1_20sequenced_index_nodeINS1_18ordered_index_nodeINS1_19null_augment_policyENS1_15index_node_baseINSt3__14pairIKNS8_12basic_stringIcNS8_11char_traitsIcEENS8_9allocatorIcEEEENS_13property_tree11basic_ptreeISF_SF_NS8_4lessISF_EEEEEENSD_ISM_EEEEEEEEEEPSR_EET_RKT0_N4mpl_5bool_ILb0EEE, symObjAddr: 0x35ADC, symBinAddr: 0x1000395DC, symSize: 0x48 }
  - { offsetInCU: 0x5CDA7, offset: 0x5CDA7, size: 0x8, addend: 0x0, symName: __ZN5boost11multi_index6detail18ordered_index_findINS1_18ordered_index_nodeINS1_19null_augment_policyENS1_15index_node_baseINSt3__14pairIKNS6_12basic_stringIcNS6_11char_traitsIcEENS6_9allocatorIcEEEENS_13property_tree11basic_ptreeISD_SD_NS6_4lessISD_EEEEEENSB_ISK_EEEEEENS0_6memberISK_SE_XadL_ZNSK_5firstEEEEESD_SI_EEPT_SR_SR_RKT0_RKT1_RKT2_, symObjAddr: 0x3C5B8, symBinAddr: 0x1000400B8, symSize: 0x44 }
  - { offsetInCU: 0x5CE3B, offset: 0x5CE3B, size: 0x8, addend: 0x0, symName: __ZN5boost11multi_index6detail18ordered_index_findINS1_18ordered_index_nodeINS1_19null_augment_policyENS1_15index_node_baseINSt3__14pairIKNS6_12basic_stringIcNS6_11char_traitsIcEENS6_9allocatorIcEEEENS_13property_tree11basic_ptreeISD_SD_NS6_4lessISD_EEEEEENSB_ISK_EEEEEENS0_6memberISK_SE_XadL_ZNSK_5firstEEEEESD_SI_EEPT_SR_SR_RKT0_RKT1_RKT2_N4mpl_5bool_ILb0EEE, symObjAddr: 0x3C650, symBinAddr: 0x100040150, symSize: 0x13C }
  - { offsetInCU: 0x5CEEA, offset: 0x5CEEA, size: 0x8, addend: 0x0, symName: __ZN5boost11multi_index6detaileqINS1_18ordered_index_nodeINS1_19null_augment_policyENS1_15index_node_baseINSt3__14pairIKNS6_12basic_stringIcNS6_11char_traitsIcEENS6_9allocatorIcEEEENS_13property_tree11basic_ptreeISD_SD_NS6_4lessISD_EEEEEENSB_ISK_EEEEEEEEbRKNS1_19bidir_node_iteratorIT_EESS_, symObjAddr: 0x3C858, symBinAddr: 0x100040358, symSize: 0x48 }
  - { offsetInCU: 0x5E227, offset: 0x5E227, size: 0x8, addend: 0x0, symName: __ZN5boost9iteratorseqINS_13property_tree11basic_ptreeINSt3__112basic_stringIcNS4_11char_traitsIcEENS4_9allocatorIcEEEESA_NS4_4lessISA_EEE20const_assoc_iteratorENS4_4pairIKSA_SD_EENS0_27bidirectional_traversal_tagERKSH_lSE_SH_SI_SK_lEENS0_6detail23enable_if_interoperableIT_T4_bE4typeERKNS0_15iterator_facadeISN_T0_T1_T2_T3_EERKNSR_ISO_T5_T6_T7_T8_EE, symObjAddr: 0x3B84C, symBinAddr: 0x10003F34C, symSize: 0x30 }
  - { offsetInCU: 0x5E9D2, offset: 0x5E9D2, size: 0x8, addend: 0x0, symName: __ZN5boost14operators_implneERKNS_11multi_index6detail19bidir_node_iteratorINS2_20sequenced_index_nodeINS2_18ordered_index_nodeINS2_19null_augment_policyENS2_15index_node_baseINSt3__14pairIKNS8_12basic_stringIcNS8_11char_traitsIcEENS8_9allocatorIcEEEENS_13property_tree11basic_ptreeISF_SF_NS8_4lessISF_EEEEEENSD_ISM_EEEEEEEEEEST_, symObjAddr: 0x32DE4, symBinAddr: 0x1000368E4, symSize: 0x34 }
  - { offsetInCU: 0x5F3CE, offset: 0x5F3CE, size: 0x8, addend: 0x0, symName: __ZN5boost15optional_detail7forwardIjEEOT_RNS_16remove_referenceIS2_E4typeE, symObjAddr: 0x3F2A4, symBinAddr: 0x100042DA4, symSize: 0x14 }
  - { offsetInCU: 0x5F684, offset: 0x5F684, size: 0x8, addend: 0x0, symName: __ZN5boost15optional_detail7forwardIdEEOT_RNS_16remove_referenceIS2_E4typeE, symObjAddr: 0x40714, symBinAddr: 0x100044214, symSize: 0x14 }
  - { offsetInCU: 0x5F93A, offset: 0x5F93A, size: 0x8, addend: 0x0, symName: __ZN5boost15optional_detail7forwardIbEEOT_RNS_16remove_referenceIS2_E4typeE, symObjAddr: 0x41368, symBinAddr: 0x100044E68, symSize: 0x14 }
  - { offsetInCU: 0x5FBF0, offset: 0x5FBF0, size: 0x8, addend: 0x0, symName: __ZN5boost15optional_detail7forwardIfEEOT_RNS_16remove_referenceIS2_E4typeE, symObjAddr: 0x41BE4, symBinAddr: 0x1000456E4, symSize: 0x14 }
  - { offsetInCU: 0x60EA9, offset: 0x60EA9, size: 0x8, addend: 0x0, symName: __ZN5boost6tuples3getILm0ENS_11multi_index6memberINSt3__14pairIKNS4_12basic_stringIcNS4_11char_traitsIcEENS4_9allocatorIcEEEENS_13property_tree11basic_ptreeISB_SB_NS4_4lessISB_EEEEEESC_XadL_ZNSI_5firstEEEEENS0_4consISG_NS0_9null_typeEEEEENS0_13access_traitsINS0_7elementIXT_ENSK_IT0_T1_EEE4typeEE10const_typeERKSR_, symObjAddr: 0x2C178, symBinAddr: 0x10002FC78, symSize: 0x24 }
  - { offsetInCU: 0x60EF1, offset: 0x60EF1, size: 0x8, addend: 0x0, symName: __ZN5boost6tuples3getILm1ENS_11multi_index6memberINSt3__14pairIKNS4_12basic_stringIcNS4_11char_traitsIcEENS4_9allocatorIcEEEENS_13property_tree11basic_ptreeISB_SB_NS4_4lessISB_EEEEEESC_XadL_ZNSI_5firstEEEEENS0_4consISG_NS0_9null_typeEEEEENS0_13access_traitsINS0_7elementIXT_ENSK_IT0_T1_EEE4typeEE10const_typeERKSR_, symObjAddr: 0x2C1B0, symBinAddr: 0x10002FCB0, symSize: 0x24 }
  - { offsetInCU: 0x616B6, offset: 0x616B6, size: 0x8, addend: 0x0, symName: __ZN5boost15throw_exceptionINS_13property_tree11json_parser17json_parser_errorEEEvRKT_RKNS_15source_locationE, symObjAddr: 0x2C8F4, symBinAddr: 0x1000303F4, symSize: 0x74 }
  - { offsetInCU: 0x617E8, offset: 0x617E8, size: 0x8, addend: 0x0, symName: __ZN5boost36throw_exception_assert_compatibilityERKSt9exception, symObjAddr: 0x2CDAC, symBinAddr: 0x1000308AC, symSize: 0x10 }
  - { offsetInCU: 0x61B50, offset: 0x61B50, size: 0x8, addend: 0x0, symName: __ZN5boost16exception_detail8set_infoINS_10wrapexceptINS_13property_tree11json_parser17json_parser_errorEEEEERKT_S9_RKNS_10error_infoINS_11throw_file_EPKcEE, symObjAddr: 0x2D09C, symBinAddr: 0x100030B9C, symSize: 0x28 }
  - { offsetInCU: 0x61B97, offset: 0x61B97, size: 0x8, addend: 0x0, symName: __ZN5boost16exception_detail8set_infoINS_10wrapexceptINS_13property_tree11json_parser17json_parser_errorEEEEERKT_S9_RKNS_10error_infoINS_11throw_line_EiEE, symObjAddr: 0x2D110, symBinAddr: 0x100030C10, symSize: 0x28 }
  - { offsetInCU: 0x61BDE, offset: 0x61BDE, size: 0x8, addend: 0x0, symName: __ZN5boost16exception_detail8set_infoINS_10wrapexceptINS_13property_tree11json_parser17json_parser_errorEEEEERKT_S9_RKNS_10error_infoINS_15throw_function_EPKcEE, symObjAddr: 0x2D184, symBinAddr: 0x100030C84, symSize: 0x28 }
  - { offsetInCU: 0x61C25, offset: 0x61C25, size: 0x8, addend: 0x0, symName: __ZN5boost16exception_detail8set_infoINS_10wrapexceptINS_13property_tree11json_parser17json_parser_errorEEEEERKT_S9_RKNS_10error_infoINS_13throw_column_EiEE, symObjAddr: 0x2D1F8, symBinAddr: 0x100030CF8, symSize: 0x28 }
  - { offsetInCU: 0x61C6B, offset: 0x61C6B, size: 0x8, addend: 0x0, symName: __ZN5boost16exception_detail20copy_boost_exceptionEPNS_9exceptionEPKS1_, symObjAddr: 0x2D92C, symBinAddr: 0x10003142C, symSize: 0x124 }
  - { offsetInCU: 0x61CC9, offset: 0x61CC9, size: 0x8, addend: 0x0, symName: __ZN5boost16exception_detail8set_infoINS_10wrapexceptINS_13property_tree14ptree_bad_pathEEEEERKT_S8_RKNS_10error_infoINS_11throw_file_EPKcEE, symObjAddr: 0x3CC84, symBinAddr: 0x100040784, symSize: 0x28 }
  - { offsetInCU: 0x61D10, offset: 0x61D10, size: 0x8, addend: 0x0, symName: __ZN5boost16exception_detail8set_infoINS_10wrapexceptINS_13property_tree14ptree_bad_pathEEEEERKT_S8_RKNS_10error_infoINS_11throw_line_EiEE, symObjAddr: 0x3CCAC, symBinAddr: 0x1000407AC, symSize: 0x28 }
  - { offsetInCU: 0x61D57, offset: 0x61D57, size: 0x8, addend: 0x0, symName: __ZN5boost16exception_detail8set_infoINS_10wrapexceptINS_13property_tree14ptree_bad_pathEEEEERKT_S8_RKNS_10error_infoINS_15throw_function_EPKcEE, symObjAddr: 0x3CCD4, symBinAddr: 0x1000407D4, symSize: 0x28 }
  - { offsetInCU: 0x61D9E, offset: 0x61D9E, size: 0x8, addend: 0x0, symName: __ZN5boost16exception_detail8set_infoINS_10wrapexceptINS_13property_tree14ptree_bad_pathEEEEERKT_S8_RKNS_10error_infoINS_13throw_column_EiEE, symObjAddr: 0x3CCFC, symBinAddr: 0x1000407FC, symSize: 0x28 }
  - { offsetInCU: 0x61DE5, offset: 0x61DE5, size: 0x8, addend: 0x0, symName: __ZN5boost16exception_detail8set_infoINS_10wrapexceptINS_13property_tree14ptree_bad_dataEEEEERKT_S8_RKNS_10error_infoINS_11throw_file_EPKcEE, symObjAddr: 0x3F710, symBinAddr: 0x100043210, symSize: 0x28 }
  - { offsetInCU: 0x61E2C, offset: 0x61E2C, size: 0x8, addend: 0x0, symName: __ZN5boost16exception_detail8set_infoINS_10wrapexceptINS_13property_tree14ptree_bad_dataEEEEERKT_S8_RKNS_10error_infoINS_11throw_line_EiEE, symObjAddr: 0x3F738, symBinAddr: 0x100043238, symSize: 0x28 }
  - { offsetInCU: 0x61E73, offset: 0x61E73, size: 0x8, addend: 0x0, symName: __ZN5boost16exception_detail8set_infoINS_10wrapexceptINS_13property_tree14ptree_bad_dataEEEEERKT_S8_RKNS_10error_infoINS_15throw_function_EPKcEE, symObjAddr: 0x3F760, symBinAddr: 0x100043260, symSize: 0x28 }
  - { offsetInCU: 0x61EBA, offset: 0x61EBA, size: 0x8, addend: 0x0, symName: __ZN5boost16exception_detail8set_infoINS_10wrapexceptINS_13property_tree14ptree_bad_dataEEEEERKT_S8_RKNS_10error_infoINS_13throw_column_EiEE, symObjAddr: 0x3F788, symBinAddr: 0x100043288, symSize: 0x28 }
  - { offsetInCU: 0x61F97, offset: 0x61F97, size: 0x8, addend: 0x0, symName: __ZN5boost9addressofINSt3__14pairIKNS1_12basic_stringIcNS1_11char_traitsIcEENS1_9allocatorIcEEEENS_13property_tree11basic_ptreeIS8_S8_NS1_4lessIS8_EEEEEEEEPT_RSG_, symObjAddr: 0x327AC, symBinAddr: 0x1000362AC, symSize: 0x14 }
  - { offsetInCU: 0x62988, offset: 0x62988, size: 0x8, addend: 0x0, symName: __ZN5boost4bindIvNS_13property_tree11json_parser6detail6parserINS3_18standard_callbacksINS1_11basic_ptreeINSt3__112basic_stringIcNS7_11char_traitsIcEENS7_9allocatorIcEEEESD_NS7_4lessISD_EEEEEENS3_8encodingIcEENS7_19istreambuf_iteratorIcSA_EESL_EEPKcPSM_SO_EEDTclsr5boostE4bindclsr5boostE6mem_fnfp_Efp0_fp1_EEMT0_FT_T1_ET2_T3_, symObjAddr: 0x37954, symBinAddr: 0x10003B454, symSize: 0x78 }
  - { offsetInCU: 0x62A01, offset: 0x62A01, size: 0x8, addend: 0x0, symName: __ZN5boost4bindIvNS_13property_tree11json_parser6detail18standard_callbacksINS1_11basic_ptreeINSt3__112basic_stringIcNS6_11char_traitsIcEENS6_9allocatorIcEEEESC_NS6_4lessISC_EEEEEEcNS_17reference_wrapperISG_EENS_3argILi1EEEEEDTclsr5boostE4bindclsr5boostE6mem_fnfp_Efp0_fp1_EEMT0_FT_T1_ET2_T3_, symObjAddr: 0x380D4, symBinAddr: 0x10003BBD4, symSize: 0x78 }
  - { offsetInCU: 0x62A7A, offset: 0x62A7A, size: 0x8, addend: 0x0, symName: __ZN5boost4bindINS_4_mfi2mfIMNS_13property_tree11json_parser6detail18standard_callbacksINS3_11basic_ptreeINSt3__112basic_stringIcNS8_11char_traitsIcEENS8_9allocatorIcEEEESE_NS8_4lessISE_EEEEEEFvcEvSI_JcEEEJNS_17reference_wrapperISI_EENS_3argILi1EEEEEENS_3_bi6bind_tINSQ_11unspecifiedET_NSQ_7list_avIJDpT0_EE4typeEEEST_SW_, symObjAddr: 0x385A4, symBinAddr: 0x10003C0A4, symSize: 0x5C }
  - { offsetInCU: 0x62AE7, offset: 0x62AE7, size: 0x8, addend: 0x0, symName: __ZN5boost6mem_fnIvNS_13property_tree11json_parser6detail18standard_callbacksINS1_11basic_ptreeINSt3__112basic_stringIcNS6_11char_traitsIcEENS6_9allocatorIcEEEESC_NS6_4lessISC_EEEEEEJcEEENS_4_mfi2mfIDtfp_ET_T0_JDpT1_EEEMSL_FSK_SN_E, symObjAddr: 0x38600, symBinAddr: 0x10003C100, symSize: 0x58 }
  - { offsetInCU: 0x62B30, offset: 0x62B30, size: 0x8, addend: 0x0, symName: __ZN5boost9addressofINS_13property_tree11json_parser6detail18standard_callbacksINS1_11basic_ptreeINSt3__112basic_stringIcNS6_11char_traitsIcEENS6_9allocatorIcEEEESC_NS6_4lessISC_EEEEEEEEPT_RSH_, symObjAddr: 0x389B0, symBinAddr: 0x10003C4B0, symSize: 0x14 }
  - { offsetInCU: 0x62B69, offset: 0x62B69, size: 0x8, addend: 0x0, symName: __ZN5boost11get_pointerINS_13property_tree11json_parser6detail6parserINS3_18standard_callbacksINS1_11basic_ptreeINSt3__112basic_stringIcNS7_11char_traitsIcEENS7_9allocatorIcEEEESD_NS7_4lessISD_EEEEEENS3_8encodingIcEENS7_19istreambuf_iteratorIcSA_EESL_EEEEPT_SO_, symObjAddr: 0x39080, symBinAddr: 0x10003CB80, symSize: 0x14 }
  - { offsetInCU: 0x62BA2, offset: 0x62BA2, size: 0x8, addend: 0x0, symName: __ZN5boost4bindINS_4_mfi2mfIMNS_13property_tree11json_parser6detail6parserINS5_18standard_callbacksINS3_11basic_ptreeINSt3__112basic_stringIcNS9_11char_traitsIcEENS9_9allocatorIcEEEESF_NS9_4lessISF_EEEEEENS5_8encodingIcEENS9_19istreambuf_iteratorIcSC_EESN_EEFvPKcEvSO_JSQ_EEEJPSO_SQ_EEENS_3_bi6bind_tINSV_11unspecifiedET_NSV_7list_avIJDpT0_EE4typeEEESY_S11_, symObjAddr: 0x39384, symBinAddr: 0x10003CE84, symSize: 0x7C }
  - { offsetInCU: 0x62C0F, offset: 0x62C0F, size: 0x8, addend: 0x0, symName: __ZN5boost6mem_fnIvNS_13property_tree11json_parser6detail6parserINS3_18standard_callbacksINS1_11basic_ptreeINSt3__112basic_stringIcNS7_11char_traitsIcEENS7_9allocatorIcEEEESD_NS7_4lessISD_EEEEEENS3_8encodingIcEENS7_19istreambuf_iteratorIcSA_EESL_EEJPKcEEENS_4_mfi2mfIDtfp_ET_T0_JDpT1_EEEMST_FSS_SV_E, symObjAddr: 0x39400, symBinAddr: 0x10003CF00, symSize: 0x58 }
  - { offsetInCU: 0x62C5C, offset: 0x62C5C, size: 0x8, addend: 0x0, symName: __ZN5boost4core11invoke_swapINSt3__112basic_stringIcNS2_11char_traitsIcEENS2_9allocatorIcEEEEEENS_11enable_if_cIXntgssr15boost_swap_impl8is_constIT_EE5valueEvE4typeERSA_SD_, symObjAddr: 0x3A2D4, symBinAddr: 0x10003DDD4, symSize: 0x2C }
  - { offsetInCU: 0x62CA0, offset: 0x62CA0, size: 0x8, addend: 0x0, symName: __ZN5boost4core7launderINSt3__112basic_stringIcNS2_11char_traitsIcEENS2_9allocatorIcEEEEEEPT_SA_, symObjAddr: 0x3C394, symBinAddr: 0x10003FE94, symSize: 0x14 }
  - { offsetInCU: 0x62CD8, offset: 0x62CD8, size: 0x8, addend: 0x0, symName: __ZN5boost4core9type_nameIjEENSt3__112basic_stringIcNS2_11char_traitsIcEENS2_9allocatorIcEEEEv, symObjAddr: 0x3E7C4, symBinAddr: 0x1000422C4, symSize: 0x6C }
  - { offsetInCU: 0x62DD6, offset: 0x62DD6, size: 0x8, addend: 0x0, symName: __ZN5boost4core9type_nameIdEENSt3__112basic_stringIcNS2_11char_traitsIcEENS2_9allocatorIcEEEEv, symObjAddr: 0x403F8, symBinAddr: 0x100043EF8, symSize: 0x6C }
  - { offsetInCU: 0x62DFE, offset: 0x62DFE, size: 0x8, addend: 0x0, symName: __ZN5boost4core9type_nameINSt3__112basic_stringIcNS2_11char_traitsIcEENS2_9allocatorIcEEEEEES8_v, symObjAddr: 0x40B68, symBinAddr: 0x100044668, symSize: 0x6C }
  - { offsetInCU: 0x62E26, offset: 0x62E26, size: 0x8, addend: 0x0, symName: __ZN5boost4core9type_nameIbEENSt3__112basic_stringIcNS2_11char_traitsIcEENS2_9allocatorIcEEEEv, symObjAddr: 0x40FA0, symBinAddr: 0x100044AA0, symSize: 0x6C }
  - { offsetInCU: 0x62E4E, offset: 0x62E4E, size: 0x8, addend: 0x0, symName: __ZN5boost4core9type_nameIfEENSt3__112basic_stringIcNS2_11char_traitsIcEENS2_9allocatorIcEEEEv, symObjAddr: 0x418CC, symBinAddr: 0x1000453CC, symSize: 0x6C }
  - { offsetInCU: 0x62E78, offset: 0x62E78, size: 0x8, addend: 0x0, symName: __ZN5boost15throw_exceptionINS_13property_tree14ptree_bad_pathEEEvRKT_RKNS_15source_locationE, symObjAddr: 0x3AF68, symBinAddr: 0x10003EA68, symSize: 0x74 }
  - { offsetInCU: 0x63455, offset: 0x63455, size: 0x8, addend: 0x0, symName: __ZN5boost9typeindex7type_idINS_13property_tree11string_pathINSt3__112basic_stringIcNS4_11char_traitsIcEENS4_9allocatorIcEEEENS2_13id_translatorISA_EEEEEENS0_14stl_type_indexEv, symObjAddr: 0x3E3A0, symBinAddr: 0x100041EA0, symSize: 0x24 }
  - { offsetInCU: 0x6347E, offset: 0x6347E, size: 0x8, addend: 0x0, symName: __ZN5boost9typeindex7type_idINSt3__112basic_stringIcNS2_11char_traitsIcEENS2_9allocatorIcEEEEEENS0_14stl_type_indexEv, symObjAddr: 0x3FF28, symBinAddr: 0x100043A28, symSize: 0x24 }
  - { offsetInCU: 0x638F7, offset: 0x638F7, size: 0x8, addend: 0x0, symName: __ZN5boost15throw_exceptionINS_13property_tree14ptree_bad_dataEEEvRKT_RKNS_15source_locationE, symObjAddr: 0x3E750, symBinAddr: 0x100042250, symSize: 0x74 }
  - { offsetInCU: 0x648C0, offset: 0x648C0, size: 0x8, addend: 0x0, symName: __ZNK5boost17integral_constantIbLb1EEcvRKN4mpl_5bool_ILb1EEEEv, symObjAddr: 0x32710, symBinAddr: 0x100036210, symSize: 0x20 }
  - { offsetInCU: 0x648E4, offset: 0x648E4, size: 0x8, addend: 0x0, symName: __ZZNK5boost17integral_constantIbLb1EEcvRKN4mpl_5bool_ILb1EEEEvE4data, symObjAddr: 0x6A7F2, symBinAddr: 0x10006E61A, symSize: 0x0 }
  - { offsetInCU: 0x64926, offset: 0x64926, size: 0x8, addend: 0x0, symName: __ZNK5boost17integral_constantIbLb0EEcvRKN4mpl_5bool_ILb0EEEEv, symObjAddr: 0x35B24, symBinAddr: 0x100039624, symSize: 0x20 }
  - { offsetInCU: 0x6494A, offset: 0x6494A, size: 0x8, addend: 0x0, symName: __ZZNK5boost17integral_constantIbLb0EEcvRKN4mpl_5bool_ILb0EEEEvE4data, symObjAddr: 0x6A7FB, symBinAddr: 0x10006E623, symSize: 0x0 }
  - { offsetInCU: 0x649AC, offset: 0x649AC, size: 0x8, addend: 0x0, symName: __ZNK5boost13property_tree11json_parser6detail18utf8_utf8_encoding11trail_tableEh, symObjAddr: 0x38DDC, symBinAddr: 0x10003C8DC, symSize: 0x2C }
  - { offsetInCU: 0x649D0, offset: 0x649D0, size: 0x8, addend: 0x0, symName: __ZZNK5boost13property_tree11json_parser6detail18utf8_utf8_encoding11trail_tableEhE5table, symObjAddr: 0x6A804, symBinAddr: 0x10006E62C, symSize: 0x0 }
  - { offsetInCU: 0x6808E, offset: 0x6808E, size: 0x8, addend: 0x0, symName: __ZNSt3__16vectorI4StopNS_9allocatorIS1_EEE26__swap_out_circular_bufferERNS_14__split_bufferIS1_RS3_EEPS1_, symObjAddr: 0x97E4, symBinAddr: 0x10000D2E4, symSize: 0x154 }
  - { offsetInCU: 0x680EF, offset: 0x680EF, size: 0x8, addend: 0x0, symName: __ZNSt3__16vectorI4StopNS_9allocatorIS1_EEE26__swap_out_circular_bufferERNS_14__split_bufferIS1_RS3_EE, symObjAddr: 0xEBB8, symBinAddr: 0x1000126B8, symSize: 0x118 }
  - { offsetInCU: 0x68132, offset: 0x68132, size: 0x8, addend: 0x0, symName: __ZNSt3__16vectorI5RouteNS_9allocatorIS1_EEE26__swap_out_circular_bufferERNS_14__split_bufferIS1_RS3_EE, symObjAddr: 0xEEE0, symBinAddr: 0x1000129E0, symSize: 0x118 }
  - { offsetInCU: 0x681BA, offset: 0x681BA, size: 0x8, addend: 0x0, symName: __ZNSt3__16vectorIcNS_9allocatorIcEEE26__swap_out_circular_bufferERNS_14__split_bufferIcRS2_EE, symObjAddr: 0xFE78, symBinAddr: 0x100013978, symSize: 0x118 }
  - { offsetInCU: 0x683D0, offset: 0x683D0, size: 0x8, addend: 0x0, symName: __ZNSt3__16vectorIPK7RequestNS_9allocatorIS3_EEE26__swap_out_circular_bufferERNS_14__split_bufferIS3_RS5_EE, symObjAddr: 0x10EA4, symBinAddr: 0x1000149A4, symSize: 0x118 }
  - { offsetInCU: 0x6930E, offset: 0x6930E, size: 0x8, addend: 0x0, symName: __ZNSt3__16vectorINS_4pairIPK7RequestdEENS_9allocatorIS5_EEE26__swap_out_circular_bufferERNS_14__split_bufferIS5_RS7_EE, symObjAddr: 0x1923C, symBinAddr: 0x10001CD3C, symSize: 0x118 }
  - { offsetInCU: 0x695B0, offset: 0x695B0, size: 0x8, addend: 0x0, symName: __ZN12WorstRemoval16destroy_solutionER15PDPTWT_solutionRNSt3__123mersenne_twister_engineIjLm32ELm624ELm397ELm31ELj2567483615ELm11ELj4294967295ELm7ELj2636928640ELm15ELj4022730752ELm18ELj1812433253EEE, symObjAddr: 0x1CE00, symBinAddr: 0x100020900, symSize: 0x344 }
  - { offsetInCU: 0x698FC, offset: 0x698FC, size: 0x8, addend: 0x0, symName: __ZNSt3__16vectorIZN12WorstRemoval16destroy_solutionER15PDPTWT_solutionRNS_23mersenne_twister_engineIjLm32ELm624ELm397ELm31ELj2567483615ELm11ELj4294967295ELm7ELj2636928640ELm15ELj4022730752ELm18ELj1812433253EEEE11RequestCostNS_9allocatorIS7_EEE26__swap_out_circular_bufferERNS_14__split_bufferIS7_RS9_EE, symObjAddr: 0x1DAE4, symBinAddr: 0x1000215E4, symSize: 0x118 }
  - { offsetInCU: 0x69C9D, offset: 0x69C9D, size: 0x8, addend: 0x0, symName: __ZNSt3__16vectorINS_4pairINS_5tupleIJiiiEEEdEENS_9allocatorIS4_EEE26__swap_out_circular_bufferERNS_14__split_bufferIS4_RS6_EE, symObjAddr: 0x23664, symBinAddr: 0x100027164, symSize: 0x118 }
  - { offsetInCU: 0x69F21, offset: 0x69F21, size: 0x8, addend: 0x0, symName: __ZNSt3__16vectorINS0_INS_4pairINS_5tupleIJiiiEEEdEENS_9allocatorIS4_EEEENS5_IS7_EEE26__swap_out_circular_bufferERNS_14__split_bufferIS7_RS8_EE, symObjAddr: 0x27768, symBinAddr: 0x10002B268, symSize: 0x118 }
  - { offsetInCU: 0x6A7CC, offset: 0x6A7CC, size: 0x8, addend: 0x0, symName: __ZNSt3__16vectorIN5boost13property_tree11json_parser6detail18standard_callbacksINS2_11basic_ptreeINS_12basic_stringIcNS_11char_traitsIcEENS_9allocatorIcEEEESC_NS_4lessISC_EEEEE5layerENSA_ISH_EEE26__swap_out_circular_bufferERNS_14__split_bufferISH_RSI_EE, symObjAddr: 0x30A90, symBinAddr: 0x100034590, symSize: 0x118 }
  - { offsetInCU: 0x6A8C6, offset: 0x6A8C6, size: 0x8, addend: 0x0, symName: __ZNKSt3__16chrono15__duration_castINS0_8durationIxNS_5ratioILl1ELl1000000000EEEEENS2_IxNS3_ILl1ELl1000000EEEEENS3_ILl1ELl1000EEELb1ELb0EEclB7v160006ERKS5_, symObjAddr: 0x420B8, symBinAddr: 0x100045BB8, symSize: 0x48 }
  - { offsetInCU: 0x6B57E, offset: 0x6B57E, size: 0x8, addend: 0x0, symName: __ZNSt3__16vectorIP4NodeNS_9allocatorIS2_EEE26__swap_out_circular_bufferERNS_14__split_bufferIS2_RS4_EE, symObjAddr: 0x473B8, symBinAddr: 0x10004AEB8, symSize: 0x118 }
  - { offsetInCU: 0x6B5D8, offset: 0x6B5D8, size: 0x8, addend: 0x0, symName: __ZNSt3__16vectorI7RequestNS_9allocatorIS1_EEE26__swap_out_circular_bufferERNS_14__split_bufferIS1_RS3_EE, symObjAddr: 0x48340, symBinAddr: 0x10004BE40, symSize: 0x118 }
  - { offsetInCU: 0x6B638, offset: 0x6B638, size: 0x8, addend: 0x0, symName: __ZNSt3__16vectorIPN7mlpalns13DestroyMethodI15PDPTWT_solutionEENS_9allocatorIS5_EEE26__swap_out_circular_bufferERNS_14__split_bufferIS5_RS7_EE, symObjAddr: 0x4AE38, symBinAddr: 0x10004E938, symSize: 0x118 }
  - { offsetInCU: 0x6B692, offset: 0x6B692, size: 0x8, addend: 0x0, symName: __ZNSt3__16vectorINS_12basic_stringIcNS_11char_traitsIcEENS_9allocatorIcEEEENS4_IS6_EEE26__swap_out_circular_bufferERNS_14__split_bufferIS6_RS7_EE, symObjAddr: 0x4C174, symBinAddr: 0x10004FC74, symSize: 0x118 }
  - { offsetInCU: 0x6B731, offset: 0x6B731, size: 0x8, addend: 0x0, symName: __ZNSt3__16vectorIPN7mlpalns12RepairMethodI15PDPTWT_solutionEENS_9allocatorIS5_EEE26__swap_out_circular_bufferERNS_14__split_bufferIS5_RS7_EE, symObjAddr: 0x4D71C, symBinAddr: 0x10005121C, symSize: 0x118 }
  - { offsetInCU: 0x6B838, offset: 0x6B838, size: 0x8, addend: 0x0, symName: __ZNSt3__16vectorINS0_ImNS_9allocatorImEEEENS1_IS3_EEE26__swap_out_circular_bufferERNS_14__split_bufferIS3_RS4_EE, symObjAddr: 0x51354, symBinAddr: 0x100054E54, symSize: 0x118 }
  - { offsetInCU: 0x6BB5F, offset: 0x6BB5F, size: 0x8, addend: 0x0, symName: __ZNSt3__16vectorIfNS_9allocatorIfEEE26__swap_out_circular_bufferERNS_14__split_bufferIfRS2_EE, symObjAddr: 0x53DD0, symBinAddr: 0x1000578D0, symSize: 0x118 }
  - { offsetInCU: 0x6BBB8, offset: 0x6BBB8, size: 0x8, addend: 0x0, symName: __Z3powB7v160006IjdENSt3__19enable_ifIXaasr3std13is_arithmeticIT_EE5valuesr3std13is_arithmeticIT0_EE5valueENS0_9__promoteIS2_S3_vEEE4type4typeES2_S3_, symObjAddr: 0x55D08, symBinAddr: 0x100059808, symSize: 0x34 }
  - { offsetInCU: 0x6C3CE, offset: 0x6C3CE, size: 0x8, addend: 0x0, symName: __ZN7mlpalns5PALNSI6PDPTWT15PDPTWT_solutionE13start_threadsEj, symObjAddr: 0x533A4, symBinAddr: 0x100056EA4, symSize: 0x138 }
  - { offsetInCU: 0x6C728, offset: 0x6C728, size: 0x8, addend: 0x0, symName: __ZNSt3__16vectorIjNS_9allocatorIjEEE26__swap_out_circular_bufferERNS_14__split_bufferIjRS2_EE, symObjAddr: 0x5D2FC, symBinAddr: 0x100060DFC, symSize: 0x118 }
  - { offsetInCU: 0x6CABC, offset: 0x6CABC, size: 0x8, addend: 0x0, symName: __ZNSt3__16vectorINS_10unique_ptrIN7mlpalns13DestroyMethodI15PDPTWT_solutionEENS_14default_deleteIS5_EEEENS_9allocatorIS8_EEE26__swap_out_circular_bufferERNS_14__split_bufferIS8_RSA_EE, symObjAddr: 0x605F8, symBinAddr: 0x1000640F8, symSize: 0x118 }
  - { offsetInCU: 0x6CB5B, offset: 0x6CB5B, size: 0x8, addend: 0x0, symName: __ZNSt3__16vectorINS_10unique_ptrIN7mlpalns12RepairMethodI15PDPTWT_solutionEENS_14default_deleteIS5_EEEENS_9allocatorIS8_EEE26__swap_out_circular_bufferERNS_14__split_bufferIS8_RSA_EE, symObjAddr: 0x62298, symBinAddr: 0x100065D98, symSize: 0x118 }
  - { offsetInCU: 0x6CBFA, offset: 0x6CBFA, size: 0x8, addend: 0x0, symName: __ZNSt3__16vectorImNS_9allocatorImEEE26__swap_out_circular_bufferERNS_14__split_bufferImRS2_EE, symObjAddr: 0x637B8, symBinAddr: 0x1000672B8, symSize: 0x118 }
  - { offsetInCU: 0x6CC87, offset: 0x6CC87, size: 0x8, addend: 0x0, symName: __ZNKSt3__16chrono15__duration_castINS0_8durationIxNS_5ratioILl1ELl1000000000EEEEENS2_IdNS3_ILl1ELl1EEEEES4_Lb1ELb0EEclB7v160006ERKS5_, symObjAddr: 0x647A0, symBinAddr: 0x1000682A0, symSize: 0x50 }
  - { offsetInCU: 0x6EEA6, offset: 0x6EEA6, size: 0x8, addend: 0x0, symName: __ZN15boost_swap_impl16invoke_swap_implINSt3__112basic_stringIcNS1_11char_traitsIcEENS1_9allocatorIcEEEEEEvRT_S9_, symObjAddr: 0x3A33C, symBinAddr: 0x10003DE3C, symSize: 0x2C }
  - { offsetInCU: 0x6EF5F, offset: 0x6EF5F, size: 0x8, addend: 0x0, symName: __Z5parseNSt3__112basic_stringIcNS_11char_traitsIcEENS_9allocatorIcEEEE, symObjAddr: 0x0, symBinAddr: 0x100003B00, symSize: 0x9F4 }
  - { offsetInCU: 0x6F1D9, offset: 0x6F1D9, size: 0x8, addend: 0x0, symName: __ZNSt3__114basic_ifstreamIcNS_11char_traitsIcEEEC1ERKNS_12basic_stringIcS2_NS_9allocatorIcEEEEj, symObjAddr: 0x9F4, symBinAddr: 0x1000044F4, symSize: 0x16C }
  - { offsetInCU: 0x6F223, offset: 0x6F223, size: 0x8, addend: 0x0, symName: __ZNKSt3__114basic_ifstreamIcNS_11char_traitsIcEEE7is_openEv, symObjAddr: 0xB60, symBinAddr: 0x100004660, symSize: 0x2C }
  - { offsetInCU: 0x6F24B, offset: 0x6F24B, size: 0x8, addend: 0x0, symName: __ZNSt3__113basic_ostreamIcNS_11char_traitsIcEEElsB7v160006EPFRS3_S4_E, symObjAddr: 0xC20, symBinAddr: 0x100004720, symSize: 0x2C }
  - { offsetInCU: 0x6F27F, offset: 0x6F27F, size: 0x8, addend: 0x0, symName: __ZN4NodeC1Eiiicii, symObjAddr: 0xCA4, symBinAddr: 0x1000047A4, symSize: 0x5C }
  - { offsetInCU: 0x6F2FD, offset: 0x6F2FD, size: 0x8, addend: 0x0, symName: __ZN7VehicleC1EiP4NodeS1_, symObjAddr: 0xD00, symBinAddr: 0x100004800, symSize: 0x44 }
  - { offsetInCU: 0x6F351, offset: 0x6F351, size: 0x8, addend: 0x0, symName: __ZNSt3__16vectorIiNS_9allocatorIiEEEC1Em, symObjAddr: 0xD44, symBinAddr: 0x100004844, symSize: 0x34 }
  - { offsetInCU: 0x6F38C, offset: 0x6F38C, size: 0x8, addend: 0x0, symName: __ZNSt3__16vectorIP4NodeNS_9allocatorIS2_EEEC1B7v160006Ev, symObjAddr: 0xD78, symBinAddr: 0x100004878, symSize: 0x2C }
  - { offsetInCU: 0x6F3B6, offset: 0x6F3B6, size: 0x8, addend: 0x0, symName: __ZNSt3__112basic_stringIcNS_11char_traitsIcEENS_9allocatorIcEEEC1B7v160006Ev, symObjAddr: 0xDA4, symBinAddr: 0x1000048A4, symSize: 0x2C }
  - { offsetInCU: 0x6F3E0, offset: 0x6F3E0, size: 0x8, addend: 0x0, symName: __ZNKSt3__19basic_iosIcNS_11char_traitsIcEEEcvbB7v160006Ev, symObjAddr: 0x10D8, symBinAddr: 0x100004BD8, symSize: 0x2C }
  - { offsetInCU: 0x6F406, offset: 0x6F406, size: 0x8, addend: 0x0, symName: __ZNSt3__112basic_stringIcNS_11char_traitsIcEENS_9allocatorIcEEEixB7v160006Em, symObjAddr: 0x1104, symBinAddr: 0x100004C04, symSize: 0x30 }
  - { offsetInCU: 0x6F43B, offset: 0x6F43B, size: 0x8, addend: 0x0, symName: __ZNSt3__16vectorIiNS_9allocatorIiEEEixB7v160006Em, symObjAddr: 0x1134, symBinAddr: 0x100004C34, symSize: 0x24 }
  - { offsetInCU: 0x6F472, offset: 0x6F472, size: 0x8, addend: 0x0, symName: __ZNSt3__16vectorIP4NodeNS_9allocatorIS2_EEE9push_backB7v160006EOS2_, symObjAddr: 0x1158, symBinAddr: 0x100004C58, symSize: 0x6C }
  - { offsetInCU: 0x6F4A9, offset: 0x6F4A9, size: 0x8, addend: 0x0, symName: __ZNSt3__16vectorI7RequestNS_9allocatorIS1_EEEC1B7v160006Ev, symObjAddr: 0x11C4, symBinAddr: 0x100004CC4, symSize: 0x2C }
  - { offsetInCU: 0x6F4D3, offset: 0x6F4D3, size: 0x8, addend: 0x0, symName: __ZNSt3__16vectorI7RequestNS_9allocatorIS1_EEE7reserveEm, symObjAddr: 0x11F0, symBinAddr: 0x100004CF0, symSize: 0xE8 }
  - { offsetInCU: 0x6F52F, offset: 0x6F52F, size: 0x8, addend: 0x0, symName: __ZNKSt3__16vectorIP4NodeNS_9allocatorIS2_EEE4sizeB7v160006Ev, symObjAddr: 0x12D8, symBinAddr: 0x100004DD8, symSize: 0x28 }
  - { offsetInCU: 0x6F555, offset: 0x6F555, size: 0x8, addend: 0x0, symName: __ZNSt3__16vectorIP4NodeNS_9allocatorIS2_EEEixB7v160006Em, symObjAddr: 0x1300, symBinAddr: 0x100004E00, symSize: 0x24 }
  - { offsetInCU: 0x6F58C, offset: 0x6F58C, size: 0x8, addend: 0x0, symName: __ZNSt3__16vectorI7RequestNS_9allocatorIS1_EEE12emplace_backIJRiRP4NodeS6_S9_EEERS1_DpOT_, symObjAddr: 0x1324, symBinAddr: 0x100004E24, symSize: 0x98 }
  - { offsetInCU: 0x6F60A, offset: 0x6F60A, size: 0x8, addend: 0x0, symName: __ZNSt3__16vectorI7RequestNS_9allocatorIS1_EEEC1ERKS4_, symObjAddr: 0x13BC, symBinAddr: 0x100004EBC, symSize: 0x34 }
  - { offsetInCU: 0x6F645, offset: 0x6F645, size: 0x8, addend: 0x0, symName: __ZN6PDPTWTC1EP4NodeiP7VehicleiNSt3__16vectorI7RequestNS4_9allocatorIS6_EEEES1_i, symObjAddr: 0x13F0, symBinAddr: 0x100004EF0, symSize: 0x64 }
  - { offsetInCU: 0x6F6D2, offset: 0x6F6D2, size: 0x8, addend: 0x0, symName: __ZNSt3__16vectorI7RequestNS_9allocatorIS1_EEED1B7v160006Ev, symObjAddr: 0x1454, symBinAddr: 0x100004F54, symSize: 0x2C }
  - { offsetInCU: 0x6F6FC, offset: 0x6F6FC, size: 0x8, addend: 0x0, symName: __ZNSt3__16vectorIP4NodeNS_9allocatorIS2_EEED1B7v160006Ev, symObjAddr: 0x1480, symBinAddr: 0x100004F80, symSize: 0x2C }
  - { offsetInCU: 0x6F726, offset: 0x6F726, size: 0x8, addend: 0x0, symName: __ZNSt3__16vectorIiNS_9allocatorIiEEED1B7v160006Ev, symObjAddr: 0x14AC, symBinAddr: 0x100004FAC, symSize: 0x2C }
  - { offsetInCU: 0x6F756, offset: 0x6F756, size: 0x8, addend: 0x0, symName: __ZNSt3__114basic_ifstreamIcNS_11char_traitsIcEEED1Ev, symObjAddr: 0x14D8, symBinAddr: 0x100004FD8, symSize: 0x40 }
  - { offsetInCU: 0x6F782, offset: 0x6F782, size: 0x8, addend: 0x0, symName: __Z4Alg2PK7RequestR15PDPTWT_solution, symObjAddr: 0x1518, symBinAddr: 0x100005018, symSize: 0x29C }
  - { offsetInCU: 0x6F847, offset: 0x6F847, size: 0x8, addend: 0x0, symName: __ZN15PDPTWT_solutionC1ERKS_, symObjAddr: 0x17B4, symBinAddr: 0x1000052B4, symSize: 0x34 }
  - { offsetInCU: 0x6F87C, offset: 0x6F87C, size: 0x8, addend: 0x0, symName: __ZNSt3__114numeric_limitsIdE3maxB7v160006Ev, symObjAddr: 0x17E8, symBinAddr: 0x1000052E8, symSize: 0x14 }
  - { offsetInCU: 0x6F890, offset: 0x6F890, size: 0x8, addend: 0x0, symName: __ZNKSt3__16vectorI5RouteNS_9allocatorIS1_EEE4sizeB7v160006Ev, symObjAddr: 0x17FC, symBinAddr: 0x1000052FC, symSize: 0x28 }
  - { offsetInCU: 0x6F8B6, offset: 0x6F8B6, size: 0x8, addend: 0x0, symName: __ZNSt3__16vectorI5RouteNS_9allocatorIS1_EEEixB7v160006Em, symObjAddr: 0x1824, symBinAddr: 0x100005324, symSize: 0x24 }
  - { offsetInCU: 0x6F8ED, offset: 0x6F8ED, size: 0x8, addend: 0x0, symName: __ZNKSt3__16vectorI4StopNS_9allocatorIS1_EEE4sizeB7v160006Ev, symObjAddr: 0x1848, symBinAddr: 0x100005348, symSize: 0x28 }
  - { offsetInCU: 0x6F913, offset: 0x6F913, size: 0x8, addend: 0x0, symName: __ZN5Route11insert_stopEiP4NodePK7Requestb, symObjAddr: 0x1870, symBinAddr: 0x100005370, symSize: 0xA0 }
  - { offsetInCU: 0x6F971, offset: 0x6F971, size: 0x8, addend: 0x0, symName: __ZN15PDPTWT_solutionaSERKS_, symObjAddr: 0x1910, symBinAddr: 0x100005410, symSize: 0x5C }
  - { offsetInCU: 0x6F9A2, offset: 0x6F9A2, size: 0x8, addend: 0x0, symName: __ZNK15PDPTWT_solution7getCostEv, symObjAddr: 0x196C, symBinAddr: 0x10000546C, symSize: 0x16C }
  - { offsetInCU: 0x6FA1C, offset: 0x6FA1C, size: 0x8, addend: 0x0, symName: __ZN5Route10erase_stopEi, symObjAddr: 0x1AD8, symBinAddr: 0x1000055D8, symSize: 0x6C }
  - { offsetInCU: 0x6FA50, offset: 0x6FA50, size: 0x8, addend: 0x0, symName: __ZNSt3__16vectorIcNS_9allocatorIcEEEixB7v160006Em, symObjAddr: 0x1B44, symBinAddr: 0x100005644, symSize: 0x24 }
  - { offsetInCU: 0x6FA87, offset: 0x6FA87, size: 0x8, addend: 0x0, symName: __ZN15PDPTWT_solutionD1Ev, symObjAddr: 0x1B68, symBinAddr: 0x100005668, symSize: 0x2C }
  - { offsetInCU: 0x6FAB2, offset: 0x6FAB2, size: 0x8, addend: 0x0, symName: __Z4Alg3PK7RequestR15PDPTWT_solution, symObjAddr: 0x1B94, symBinAddr: 0x100005694, symSize: 0x450 }
  - { offsetInCU: 0x6FC05, offset: 0x6FC05, size: 0x8, addend: 0x0, symName: _main, symObjAddr: 0x1FE4, symBinAddr: 0x100005AE4, symSize: 0x828 }
  - { offsetInCU: 0x6FD33, offset: 0x6FD33, size: 0x8, addend: 0x0, symName: __ZNSt3__112basic_stringIcNS_11char_traitsIcEENS_9allocatorIcEEEC1B7v160006IDnEEPKc, symObjAddr: 0x280C, symBinAddr: 0x10000630C, symSize: 0x34 }
  - { offsetInCU: 0x6FD71, offset: 0x6FD71, size: 0x8, addend: 0x0, symName: __ZN7mlpalns5PALNSI6PDPTWT15PDPTWT_solutionEC1ERKS1_, symObjAddr: 0x2874, symBinAddr: 0x100006374, symSize: 0x34 }
  - { offsetInCU: 0x6FDF7, offset: 0x6FDF7, size: 0x8, addend: 0x0, symName: __ZN21PDPTWTSolutionCreatorC1Ev, symObjAddr: 0x28A8, symBinAddr: 0x1000063A8, symSize: 0x2C }
  - { offsetInCU: 0x6FE23, offset: 0x6FE23, size: 0x8, addend: 0x0, symName: __ZNSt3__123mersenne_twister_engineIjLm32ELm624ELm397ELm31ELj2567483615ELm11ELj4294967295ELm7ELj2636928640ELm15ELj4022730752ELm18ELj1812433253EEC1B7v160006Ej, symObjAddr: 0x28D4, symBinAddr: 0x1000063D4, symSize: 0x34 }
  - { offsetInCU: 0x6FE5B, offset: 0x6FE5B, size: 0x8, addend: 0x0, symName: __ZN21PDPTWTSolutionCreator23create_initial_solutionERK6PDPTWTRNSt3__123mersenne_twister_engineIjLm32ELm624ELm397ELm31ELj2567483615ELm11ELj4294967295ELm7ELj2636928640ELm15ELj4022730752ELm18ELj1812433253EEE, symObjAddr: 0x2908, symBinAddr: 0x100006408, symSize: 0x32C }
  - { offsetInCU: 0x6FF52, offset: 0x6FF52, size: 0x8, addend: 0x0, symName: __ZN15PDPTWT_solution14print_solutionEv, symObjAddr: 0x2C34, symBinAddr: 0x100006734, symSize: 0x4D4 }
  - { offsetInCU: 0x6FFE8, offset: 0x6FFE8, size: 0x8, addend: 0x0, symName: __ZN13RandomRemovalC1Ev, symObjAddr: 0x3108, symBinAddr: 0x100006C08, symSize: 0x2C }
  - { offsetInCU: 0x70012, offset: 0x70012, size: 0x8, addend: 0x0, symName: __ZN7mlpalns5PALNSI6PDPTWT15PDPTWT_solutionE18add_destroy_methodERNS_13DestroyMethodIS2_EENSt3__112basic_stringIcNS7_11char_traitsIcEENS7_9allocatorIcEEEE, symObjAddr: 0x3134, symBinAddr: 0x100006C34, symSize: 0x64 }
  - { offsetInCU: 0x70055, offset: 0x70055, size: 0x8, addend: 0x0, symName: __ZN17insert_w_transferC1Ev, symObjAddr: 0x3198, symBinAddr: 0x100006C98, symSize: 0x2C }
  - { offsetInCU: 0x70081, offset: 0x70081, size: 0x8, addend: 0x0, symName: __ZN7mlpalns5PALNSI6PDPTWT15PDPTWT_solutionE17add_repair_methodERNS_12RepairMethodIS2_EENSt3__112basic_stringIcNS7_11char_traitsIcEENS7_9allocatorIcEEEE, symObjAddr: 0x31C4, symBinAddr: 0x100006CC4, symSize: 0xC4 }
  - { offsetInCU: 0x700C4, offset: 0x700C4, size: 0x8, addend: 0x0, symName: __ZN11ShawRemovalC1Ev, symObjAddr: 0x3288, symBinAddr: 0x100006D88, symSize: 0x2C }
  - { offsetInCU: 0x700EE, offset: 0x700EE, size: 0x8, addend: 0x0, symName: __ZN12WorstRemovalC1Ev, symObjAddr: 0x32B4, symBinAddr: 0x100006DB4, symSize: 0x2C }
  - { offsetInCU: 0x7011A, offset: 0x7011A, size: 0x8, addend: 0x0, symName: __ZN18regret_k_insertionC1Ev, symObjAddr: 0x32E0, symBinAddr: 0x100006DE0, symSize: 0x2C }
  - { offsetInCU: 0x70144, offset: 0x70144, size: 0x8, addend: 0x0, symName: __ZN7mlpalns10ParametersC1ERKNSt3__112basic_stringIcNS1_11char_traitsIcEENS1_9allocatorIcEEEE, symObjAddr: 0x330C, symBinAddr: 0x100006E0C, symSize: 0x34 }
  - { offsetInCU: 0x7017C, offset: 0x7017C, size: 0x8, addend: 0x0, symName: __ZNSt3__110unique_ptrIN7mlpalns16AlgorithmVisitorI15PDPTWT_solutionEENS_14default_deleteIS4_EEEC1B7v160006I12DummyVisitorIS3_ENS5_ISA_EEvvEEONS0_IT_T0_EE, symObjAddr: 0x3380, symBinAddr: 0x100006E80, symSize: 0x34 }
  - { offsetInCU: 0x701C8, offset: 0x701C8, size: 0x8, addend: 0x0, symName: __ZNSt3__110unique_ptrI12DummyVisitorI15PDPTWT_solutionENS_14default_deleteIS3_EEED1B7v160006Ev, symObjAddr: 0x33B4, symBinAddr: 0x100006EB4, symSize: 0x2C }
  - { offsetInCU: 0x701F2, offset: 0x701F2, size: 0x8, addend: 0x0, symName: __ZN7mlpalns5PALNSI6PDPTWT15PDPTWT_solutionE21set_algorithm_visitorERNSt3__110unique_ptrINS_16AlgorithmVisitorIS2_EENS4_14default_deleteIS7_EEEE, symObjAddr: 0x33E0, symBinAddr: 0x100006EE0, symSize: 0x30 }
  - { offsetInCU: 0x70226, offset: 0x70226, size: 0x8, addend: 0x0, symName: __ZN7mlpalns5PALNSI6PDPTWT15PDPTWT_solutionE2goERKS2_jNS_10ParametersE, symObjAddr: 0x3410, symBinAddr: 0x100006F10, symSize: 0x108 }
  - { offsetInCU: 0x70277, offset: 0x70277, size: 0x8, addend: 0x0, symName: __ZN7mlpalns10ParametersC1ERKS0_, symObjAddr: 0x3518, symBinAddr: 0x100007018, symSize: 0x34 }
  - { offsetInCU: 0x702AC, offset: 0x702AC, size: 0x8, addend: 0x0, symName: __ZN7mlpalns10ParametersD1Ev, symObjAddr: 0x354C, symBinAddr: 0x10000704C, symSize: 0x2C }
  - { offsetInCU: 0x702D8, offset: 0x702D8, size: 0x8, addend: 0x0, symName: __ZNKSt3__16chrono8durationIxNS_5ratioILl1ELl1000000EEEE5countB7v160006Ev, symObjAddr: 0x3600, symBinAddr: 0x100007100, symSize: 0x18 }
  - { offsetInCU: 0x702FE, offset: 0x702FE, size: 0x8, addend: 0x0, symName: __ZNSt3__110unique_ptrIN7mlpalns16AlgorithmVisitorI15PDPTWT_solutionEENS_14default_deleteIS4_EEED1B7v160006Ev, symObjAddr: 0x3618, symBinAddr: 0x100007118, symSize: 0x2C }
  - { offsetInCU: 0x70328, offset: 0x70328, size: 0x8, addend: 0x0, symName: __ZN18regret_k_insertionD1Ev, symObjAddr: 0x3644, symBinAddr: 0x100007144, symSize: 0x2C }
  - { offsetInCU: 0x70354, offset: 0x70354, size: 0x8, addend: 0x0, symName: __ZN12WorstRemovalD1Ev, symObjAddr: 0x3670, symBinAddr: 0x100007170, symSize: 0x2C }
  - { offsetInCU: 0x70380, offset: 0x70380, size: 0x8, addend: 0x0, symName: __ZN11ShawRemovalD1Ev, symObjAddr: 0x369C, symBinAddr: 0x10000719C, symSize: 0x2C }
  - { offsetInCU: 0x703AC, offset: 0x703AC, size: 0x8, addend: 0x0, symName: __ZN17insert_w_transferD1Ev, symObjAddr: 0x36C8, symBinAddr: 0x1000071C8, symSize: 0x2C }
  - { offsetInCU: 0x703D8, offset: 0x703D8, size: 0x8, addend: 0x0, symName: __ZN13RandomRemovalD1Ev, symObjAddr: 0x36F4, symBinAddr: 0x1000071F4, symSize: 0x2C }
  - { offsetInCU: 0x70404, offset: 0x70404, size: 0x8, addend: 0x0, symName: __ZN7mlpalns5PALNSI6PDPTWT15PDPTWT_solutionED1Ev, symObjAddr: 0x3720, symBinAddr: 0x100007220, symSize: 0x2C }
  - { offsetInCU: 0x70430, offset: 0x70430, size: 0x8, addend: 0x0, symName: __ZN6PDPTWTD1Ev, symObjAddr: 0x374C, symBinAddr: 0x10000724C, symSize: 0x2C }
  - { offsetInCU: 0x7045C, offset: 0x7045C, size: 0x8, addend: 0x0, symName: __ZN4NodeC2Eiiicii, symObjAddr: 0x3778, symBinAddr: 0x100007278, symSize: 0x5C }
  - { offsetInCU: 0x704DA, offset: 0x704DA, size: 0x8, addend: 0x0, symName: __ZN7VehicleC2EiP4NodeS1_, symObjAddr: 0x37D4, symBinAddr: 0x1000072D4, symSize: 0x38 }
  - { offsetInCU: 0x7052E, offset: 0x7052E, size: 0x8, addend: 0x0, symName: __ZN6PDPTWTC2EP4NodeiP7VehicleiNSt3__16vectorI7RequestNS4_9allocatorIS6_EEEES1_i, symObjAddr: 0x380C, symBinAddr: 0x10000730C, symSize: 0x240 }
  - { offsetInCU: 0x70639, offset: 0x70639, size: 0x8, addend: 0x0, symName: __ZNSt3__16vectorI7RequestNS_9allocatorIS1_EEEaSB7v160006ERKS4_, symObjAddr: 0x3A4C, symBinAddr: 0x10000754C, symSize: 0x68 }
  - { offsetInCU: 0x70670, offset: 0x70670, size: 0x8, addend: 0x0, symName: __ZNSt3__16vectorI7RequestNS_9allocatorIS1_EEE19__copy_assign_allocB7v160006ERKS4_, symObjAddr: 0x3AB4, symBinAddr: 0x1000075B4, symSize: 0x2C }
  - { offsetInCU: 0x706A5, offset: 0x706A5, size: 0x8, addend: 0x0, symName: __ZNSt3__16vectorI7RequestNS_9allocatorIS1_EEE6assignIPS1_Li0EEEvT_S7_, symObjAddr: 0x3AE0, symBinAddr: 0x1000075E0, symSize: 0x17C }
  - { offsetInCU: 0x70744, offset: 0x70744, size: 0x8, addend: 0x0, symName: __ZNSt3__16vectorI7RequestNS_9allocatorIS1_EEE19__copy_assign_allocB7v160006ERKS4_NS_17integral_constantIbLb0EEE, symObjAddr: 0x3C5C, symBinAddr: 0x10000775C, symSize: 0x14 }
  - { offsetInCU: 0x70782, offset: 0x70782, size: 0x8, addend: 0x0, symName: __ZNKSt3__16vectorI7RequestNS_9allocatorIS1_EEE8capacityB7v160006Ev, symObjAddr: 0x3C9C, symBinAddr: 0x10000779C, symSize: 0x40 }
  - { offsetInCU: 0x707A8, offset: 0x707A8, size: 0x8, addend: 0x0, symName: __ZNKSt3__16vectorI7RequestNS_9allocatorIS1_EEE4sizeB7v160006Ev, symObjAddr: 0x3CDC, symBinAddr: 0x1000077DC, symSize: 0x28 }
  - { offsetInCU: 0x707CE, offset: 0x707CE, size: 0x8, addend: 0x0, symName: __ZNSt3__16vectorI7RequestNS_9allocatorIS1_EEE18__construct_at_endIPS1_Li0EEEvT_S7_m, symObjAddr: 0x3D94, symBinAddr: 0x100007894, symSize: 0x8C }
  - { offsetInCU: 0x70841, offset: 0x70841, size: 0x8, addend: 0x0, symName: __ZNSt3__16vectorI7RequestNS_9allocatorIS1_EEE17__destruct_at_endB7v160006EPS1_, symObjAddr: 0x3E20, symBinAddr: 0x100007920, symSize: 0x60 }
  - { offsetInCU: 0x70885, offset: 0x70885, size: 0x8, addend: 0x0, symName: __ZNSt3__16vectorI7RequestNS_9allocatorIS1_EEE13__vdeallocateEv, symObjAddr: 0x3E80, symBinAddr: 0x100007980, symSize: 0x8C }
  - { offsetInCU: 0x708AD, offset: 0x708AD, size: 0x8, addend: 0x0, symName: __ZNSt3__16vectorI7RequestNS_9allocatorIS1_EEE11__vallocateB7v160006Em, symObjAddr: 0x3F0C, symBinAddr: 0x100007A0C, symSize: 0xAC }
  - { offsetInCU: 0x708F1, offset: 0x708F1, size: 0x8, addend: 0x0, symName: __ZNKSt3__16vectorI7RequestNS_9allocatorIS1_EEE11__recommendB7v160006Em, symObjAddr: 0x3FB8, symBinAddr: 0x100007AB8, symSize: 0xB4 }
  - { offsetInCU: 0x70946, offset: 0x70946, size: 0x8, addend: 0x0, symName: __ZNKSt3__16vectorI7RequestNS_9allocatorIS1_EEE9__end_capB7v160006Ev, symObjAddr: 0x40A4, symBinAddr: 0x100007BA4, symSize: 0x28 }
  - { offsetInCU: 0x7096C, offset: 0x7096C, size: 0x8, addend: 0x0, symName: __ZNKSt3__117__compressed_pairIP7RequestNS_9allocatorIS1_EEE5firstB7v160006Ev, symObjAddr: 0x40CC, symBinAddr: 0x100007BCC, symSize: 0x24 }
  - { offsetInCU: 0x70992, offset: 0x70992, size: 0x8, addend: 0x0, symName: __ZNKSt3__122__compressed_pair_elemIP7RequestLi0ELb0EE5__getB7v160006Ev, symObjAddr: 0x40F0, symBinAddr: 0x100007BF0, symSize: 0x14 }
  - { offsetInCU: 0x709E0, offset: 0x709E0, size: 0x8, addend: 0x0, symName: __ZNKSt3__114__copy_trivialclB7v160006I7RequestS2_Li0EEENS_4pairIPT_PT0_EES5_S5_S7_, symObjAddr: 0x42DC, symBinAddr: 0x100007DDC, symSize: 0x48 }
  - { offsetInCU: 0x70A4E, offset: 0x70A4E, size: 0x8, addend: 0x0, symName: __ZNSt3__14pairIP7RequestS2_EC1B7v160006IRS2_S2_LPv0EEEOT_OT0_, symObjAddr: 0x44A4, symBinAddr: 0x100007FA4, symSize: 0x3C }
  - { offsetInCU: 0x70AAC, offset: 0x70AAC, size: 0x8, addend: 0x0, symName: __ZNSt3__14pairIP7RequestS2_EC2B7v160006IRS2_S2_LPv0EEEOT_OT0_, symObjAddr: 0x44E0, symBinAddr: 0x100007FE0, symSize: 0x34 }
  - { offsetInCU: 0x70B0A, offset: 0x70B0A, size: 0x8, addend: 0x0, symName: __ZNSt3__118__unwrap_iter_implIP7RequestLb1EE8__unwrapB7v160006ES2_, symObjAddr: 0x4514, symBinAddr: 0x100008014, symSize: 0x24 }
  - { offsetInCU: 0x70B2F, offset: 0x70B2F, size: 0x8, addend: 0x0, symName: __ZNSt3__14pairIP7RequestS2_EC1B7v160006IS2_S2_LPv0EEEOT_OT0_, symObjAddr: 0x454C, symBinAddr: 0x10000804C, symSize: 0x3C }
  - { offsetInCU: 0x70B8D, offset: 0x70B8D, size: 0x8, addend: 0x0, symName: __ZNSt3__14pairIP7RequestS2_EC2B7v160006IS2_S2_LPv0EEEOT_OT0_, symObjAddr: 0x4588, symBinAddr: 0x100008088, symSize: 0x34 }
  - { offsetInCU: 0x70BEB, offset: 0x70BEB, size: 0x8, addend: 0x0, symName: __ZNSt3__118__unwrap_iter_implIP7RequestLb1EE8__rewrapB7v160006ES2_S2_, symObjAddr: 0x45BC, symBinAddr: 0x1000080BC, symSize: 0x50 }
  - { offsetInCU: 0x70C3C, offset: 0x70C3C, size: 0x8, addend: 0x0, symName: __ZNSt3__16vectorI7RequestNS_9allocatorIS1_EEE21_ConstructTransactionC1B7v160006ERS4_m, symObjAddr: 0x4618, symBinAddr: 0x100008118, symSize: 0x3C }
  - { offsetInCU: 0x70C84, offset: 0x70C84, size: 0x8, addend: 0x0, symName: __ZNSt3__16vectorI7RequestNS_9allocatorIS1_EEE7__allocB7v160006Ev, symObjAddr: 0x4748, symBinAddr: 0x100008248, symSize: 0x28 }
  - { offsetInCU: 0x70CAA, offset: 0x70CAA, size: 0x8, addend: 0x0, symName: __ZNSt3__16vectorI7RequestNS_9allocatorIS1_EEE21_ConstructTransactionD1B7v160006Ev, symObjAddr: 0x4770, symBinAddr: 0x100008270, symSize: 0x2C }
  - { offsetInCU: 0x70CD4, offset: 0x70CD4, size: 0x8, addend: 0x0, symName: __ZNSt3__16vectorI7RequestNS_9allocatorIS1_EEE21_ConstructTransactionC2B7v160006ERS4_m, symObjAddr: 0x479C, symBinAddr: 0x10000829C, symSize: 0x44 }
  - { offsetInCU: 0x70D1C, offset: 0x70D1C, size: 0x8, addend: 0x0, symName: __ZNSt3__129_AllocatorDestroyRangeReverseINS_9allocatorI7RequestEEPS2_EC1B7v160006ERS3_RS4_S7_, symObjAddr: 0x482C, symBinAddr: 0x10000832C, symSize: 0x44 }
  - { offsetInCU: 0x70D73, offset: 0x70D73, size: 0x8, addend: 0x0, symName: __ZNSt3__116allocator_traitsINS_9allocatorI7RequestEEE9constructB7v160006IS2_JRS2_EvEEvRS3_PT_DpOT0_, symObjAddr: 0x4870, symBinAddr: 0x100008370, symSize: 0x34 }
  - { offsetInCU: 0x70DCA, offset: 0x70DCA, size: 0x8, addend: 0x0, symName: __ZNSt3__128__exception_guard_exceptionsINS_29_AllocatorDestroyRangeReverseINS_9allocatorI7RequestEEPS3_EEE10__completeB7v160006Ev, symObjAddr: 0x48A4, symBinAddr: 0x1000083A4, symSize: 0x1C }
  - { offsetInCU: 0x70DF0, offset: 0x70DF0, size: 0x8, addend: 0x0, symName: __ZNSt3__128__exception_guard_exceptionsINS_29_AllocatorDestroyRangeReverseINS_9allocatorI7RequestEEPS3_EEED1B7v160006Ev, symObjAddr: 0x48C0, symBinAddr: 0x1000083C0, symSize: 0x2C }
  - { offsetInCU: 0x70E1A, offset: 0x70E1A, size: 0x8, addend: 0x0, symName: __ZNSt3__128__exception_guard_exceptionsINS_29_AllocatorDestroyRangeReverseINS_9allocatorI7RequestEEPS3_EEEC1B7v160006ES6_, symObjAddr: 0x48EC, symBinAddr: 0x1000083EC, symSize: 0x34 }
  - { offsetInCU: 0x70E53, offset: 0x70E53, size: 0x8, addend: 0x0, symName: __ZNSt3__128__exception_guard_exceptionsINS_29_AllocatorDestroyRangeReverseINS_9allocatorI7RequestEEPS3_EEEC2B7v160006ES6_, symObjAddr: 0x4920, symBinAddr: 0x100008420, symSize: 0x30 }
  - { offsetInCU: 0x70E8C, offset: 0x70E8C, size: 0x8, addend: 0x0, symName: __ZNSt3__129_AllocatorDestroyRangeReverseINS_9allocatorI7RequestEEPS2_EC2B7v160006ERS3_RS4_S7_, symObjAddr: 0x4950, symBinAddr: 0x100008450, symSize: 0x38 }
  - { offsetInCU: 0x70EE3, offset: 0x70EE3, size: 0x8, addend: 0x0, symName: __ZNSt3__19allocatorI7RequestE9constructB7v160006IS1_JRS1_EEEvPT_DpOT0_, symObjAddr: 0x4988, symBinAddr: 0x100008488, symSize: 0x30 }
  - { offsetInCU: 0x70F39, offset: 0x70F39, size: 0x8, addend: 0x0, symName: __ZNSt3__128__exception_guard_exceptionsINS_29_AllocatorDestroyRangeReverseINS_9allocatorI7RequestEEPS3_EEED2B7v160006Ev, symObjAddr: 0x49B8, symBinAddr: 0x1000084B8, symSize: 0x50 }
  - { offsetInCU: 0x70F63, offset: 0x70F63, size: 0x8, addend: 0x0, symName: __ZNKSt3__129_AllocatorDestroyRangeReverseINS_9allocatorI7RequestEEPS2_EclB7v160006Ev, symObjAddr: 0x4A08, symBinAddr: 0x100008508, symSize: 0x68 }
  - { offsetInCU: 0x70F89, offset: 0x70F89, size: 0x8, addend: 0x0, symName: __ZNSt3__116reverse_iteratorIP7RequestEC1B7v160006ES2_, symObjAddr: 0x4AE0, symBinAddr: 0x1000085E0, symSize: 0x34 }
  - { offsetInCU: 0x70FC1, offset: 0x70FC1, size: 0x8, addend: 0x0, symName: __ZNSt3__116allocator_traitsINS_9allocatorI7RequestEEE7destroyB7v160006IS2_vEEvRS3_PT_, symObjAddr: 0x4B5C, symBinAddr: 0x10000865C, symSize: 0x2C }
  - { offsetInCU: 0x70FFE, offset: 0x70FFE, size: 0x8, addend: 0x0, symName: __ZNSt3__116reverse_iteratorIP7RequestEppB7v160006Ev, symObjAddr: 0x4BAC, symBinAddr: 0x1000086AC, symSize: 0x20 }
  - { offsetInCU: 0x71024, offset: 0x71024, size: 0x8, addend: 0x0, symName: __ZNKSt3__116reverse_iteratorIP7RequestE4baseB7v160006Ev, symObjAddr: 0x4BCC, symBinAddr: 0x1000086CC, symSize: 0x18 }
  - { offsetInCU: 0x7104A, offset: 0x7104A, size: 0x8, addend: 0x0, symName: __ZNSt3__19allocatorI7RequestE7destroyB7v160006EPS1_, symObjAddr: 0x4BE4, symBinAddr: 0x1000086E4, symSize: 0x14 }
  - { offsetInCU: 0x71084, offset: 0x71084, size: 0x8, addend: 0x0, symName: __ZNSt3__119__to_address_helperINS_16reverse_iteratorIP7RequestEEvE6__callB7v160006ERKS4_, symObjAddr: 0x4BF8, symBinAddr: 0x1000086F8, symSize: 0x38 }
  - { offsetInCU: 0x710A7, offset: 0x710A7, size: 0x8, addend: 0x0, symName: __ZNKSt3__116reverse_iteratorIP7RequestEptB7v160006Ev, symObjAddr: 0x4C30, symBinAddr: 0x100008730, symSize: 0x24 }
  - { offsetInCU: 0x710CD, offset: 0x710CD, size: 0x8, addend: 0x0, symName: __ZNKSt3__116reverse_iteratorIP7RequestEdeB7v160006Ev, symObjAddr: 0x4C54, symBinAddr: 0x100008754, symSize: 0x28 }
  - { offsetInCU: 0x71101, offset: 0x71101, size: 0x8, addend: 0x0, symName: __ZNSt3__116reverse_iteratorIP7RequestEC2B7v160006ES2_, symObjAddr: 0x4C7C, symBinAddr: 0x10000877C, symSize: 0x28 }
  - { offsetInCU: 0x71139, offset: 0x71139, size: 0x8, addend: 0x0, symName: __ZNSt3__117__compressed_pairIP7RequestNS_9allocatorIS1_EEE6secondB7v160006Ev, symObjAddr: 0x4CA4, symBinAddr: 0x1000087A4, symSize: 0x24 }
  - { offsetInCU: 0x7115F, offset: 0x7115F, size: 0x8, addend: 0x0, symName: __ZNSt3__122__compressed_pair_elemINS_9allocatorI7RequestEELi1ELb1EE5__getB7v160006Ev, symObjAddr: 0x4CC8, symBinAddr: 0x1000087C8, symSize: 0x14 }
  - { offsetInCU: 0x71185, offset: 0x71185, size: 0x8, addend: 0x0, symName: __ZNSt3__16vectorI7RequestNS_9allocatorIS1_EEE21_ConstructTransactionD2B7v160006Ev, symObjAddr: 0x4CDC, symBinAddr: 0x1000087DC, symSize: 0x20 }
  - { offsetInCU: 0x711AF, offset: 0x711AF, size: 0x8, addend: 0x0, symName: __ZNSt3__16vectorI7RequestNS_9allocatorIS1_EEE27__invalidate_iterators_pastB7v160006EPS1_, symObjAddr: 0x4CFC, symBinAddr: 0x1000087FC, symSize: 0x14 }
  - { offsetInCU: 0x711E6, offset: 0x711E6, size: 0x8, addend: 0x0, symName: __ZNSt3__16vectorI7RequestNS_9allocatorIS1_EEE22__base_destruct_at_endB7v160006EPS1_, symObjAddr: 0x4D10, symBinAddr: 0x100008810, symSize: 0x8C }
  - { offsetInCU: 0x7122A, offset: 0x7122A, size: 0x8, addend: 0x0, symName: __ZNKSt3__16vectorI7RequestNS_9allocatorIS1_EEE17__annotate_shrinkB7v160006Em, symObjAddr: 0x4D9C, symBinAddr: 0x10000889C, symSize: 0xB4 }
  - { offsetInCU: 0x7125F, offset: 0x7125F, size: 0x8, addend: 0x0, symName: __ZNKSt3__16vectorI7RequestNS_9allocatorIS1_EEE31__annotate_contiguous_containerB7v160006EPKvS6_S6_S6_, symObjAddr: 0x4E50, symBinAddr: 0x100008950, symSize: 0x20 }
  - { offsetInCU: 0x712B5, offset: 0x712B5, size: 0x8, addend: 0x0, symName: __ZNKSt3__16vectorI7RequestNS_9allocatorIS1_EEE4dataB7v160006Ev, symObjAddr: 0x4E70, symBinAddr: 0x100008970, symSize: 0x28 }
  - { offsetInCU: 0x712DB, offset: 0x712DB, size: 0x8, addend: 0x0, symName: __ZNSt3__16vectorI7RequestNS_9allocatorIS1_EEE5clearB7v160006Ev, symObjAddr: 0x4E98, symBinAddr: 0x100008998, symSize: 0x54 }
  - { offsetInCU: 0x71310, offset: 0x71310, size: 0x8, addend: 0x0, symName: __ZNSt3__116allocator_traitsINS_9allocatorI7RequestEEE10deallocateB7v160006ERS3_PS2_m, symObjAddr: 0x4EEC, symBinAddr: 0x1000089EC, symSize: 0x34 }
  - { offsetInCU: 0x71352, offset: 0x71352, size: 0x8, addend: 0x0, symName: __ZNSt3__16vectorI7RequestNS_9allocatorIS1_EEE9__end_capB7v160006Ev, symObjAddr: 0x4F20, symBinAddr: 0x100008A20, symSize: 0x28 }
  - { offsetInCU: 0x71378, offset: 0x71378, size: 0x8, addend: 0x0, symName: __ZNSt3__16vectorI7RequestNS_9allocatorIS1_EEE7__clearB7v160006Ev, symObjAddr: 0x4F48, symBinAddr: 0x100008A48, symSize: 0x28 }
  - { offsetInCU: 0x7139E, offset: 0x7139E, size: 0x8, addend: 0x0, symName: __ZNSt3__19allocatorI7RequestE10deallocateB7v160006EPS1_m, symObjAddr: 0x4F70, symBinAddr: 0x100008A70, symSize: 0x40 }
  - { offsetInCU: 0x713E0, offset: 0x713E0, size: 0x8, addend: 0x0, symName: __ZNSt3__117__compressed_pairIP7RequestNS_9allocatorIS1_EEE5firstB7v160006Ev, symObjAddr: 0x50D8, symBinAddr: 0x100008BD8, symSize: 0x24 }
  - { offsetInCU: 0x71406, offset: 0x71406, size: 0x8, addend: 0x0, symName: __ZNSt3__122__compressed_pair_elemIP7RequestLi0ELb0EE5__getB7v160006Ev, symObjAddr: 0x50FC, symBinAddr: 0x100008BFC, symSize: 0x14 }
  - { offsetInCU: 0x7142C, offset: 0x7142C, size: 0x8, addend: 0x0, symName: __ZNKSt3__16vectorI7RequestNS_9allocatorIS1_EEE8max_sizeEv, symObjAddr: 0x5110, symBinAddr: 0x100008C10, symSize: 0x60 }
  - { offsetInCU: 0x71454, offset: 0x71454, size: 0x8, addend: 0x0, symName: __ZNKSt3__16vectorI7RequestNS_9allocatorIS1_EEE20__throw_length_errorB7v160006Ev, symObjAddr: 0x5170, symBinAddr: 0x100008C70, symSize: 0x1C }
  - { offsetInCU: 0x7147A, offset: 0x7147A, size: 0x8, addend: 0x0, symName: __ZNKSt3__16vectorI7RequestNS_9allocatorIS1_EEE14__annotate_newB7v160006Em, symObjAddr: 0x51CC, symBinAddr: 0x100008CCC, symSize: 0xAC }
  - { offsetInCU: 0x714BA, offset: 0x714BA, size: 0x8, addend: 0x0, symName: __ZNSt3__116allocator_traitsINS_9allocatorI7RequestEEE8max_sizeB7v160006IS3_vEEmRKS3_, symObjAddr: 0x52A4, symBinAddr: 0x100008DA4, symSize: 0x24 }
  - { offsetInCU: 0x714E8, offset: 0x714E8, size: 0x8, addend: 0x0, symName: __ZNKSt3__16vectorI7RequestNS_9allocatorIS1_EEE7__allocB7v160006Ev, symObjAddr: 0x52C8, symBinAddr: 0x100008DC8, symSize: 0x28 }
  - { offsetInCU: 0x7150E, offset: 0x7150E, size: 0x8, addend: 0x0, symName: __ZNSt3__114numeric_limitsIlE3maxB7v160006Ev, symObjAddr: 0x52F0, symBinAddr: 0x100008DF0, symSize: 0x14 }
  - { offsetInCU: 0x7152D, offset: 0x7152D, size: 0x8, addend: 0x0, symName: __ZNKSt3__16__lessImmEclB7v160006ERKmS3_, symObjAddr: 0x5358, symBinAddr: 0x100008E58, symSize: 0x34 }
  - { offsetInCU: 0x71573, offset: 0x71573, size: 0x8, addend: 0x0, symName: __ZNKSt3__19allocatorI7RequestE8max_sizeB7v160006Ev, symObjAddr: 0x538C, symBinAddr: 0x100008E8C, symSize: 0x14 }
  - { offsetInCU: 0x71599, offset: 0x71599, size: 0x8, addend: 0x0, symName: __ZNKSt3__117__compressed_pairIP7RequestNS_9allocatorIS1_EEE6secondB7v160006Ev, symObjAddr: 0x53A0, symBinAddr: 0x100008EA0, symSize: 0x24 }
  - { offsetInCU: 0x715BF, offset: 0x715BF, size: 0x8, addend: 0x0, symName: __ZNKSt3__122__compressed_pair_elemINS_9allocatorI7RequestEELi1ELb1EE5__getB7v160006Ev, symObjAddr: 0x53C4, symBinAddr: 0x100008EC4, symSize: 0x14 }
  - { offsetInCU: 0x715E5, offset: 0x715E5, size: 0x8, addend: 0x0, symName: __ZNSt3__123__libcpp_numeric_limitsIlLb1EE3maxB7v160006Ev, symObjAddr: 0x53D8, symBinAddr: 0x100008ED8, symSize: 0x8 }
  - { offsetInCU: 0x715F9, offset: 0x715F9, size: 0x8, addend: 0x0, symName: __ZNSt12length_errorC1B7v160006EPKc, symObjAddr: 0x5444, symBinAddr: 0x100008F44, symSize: 0x34 }
  - { offsetInCU: 0x71631, offset: 0x71631, size: 0x8, addend: 0x0, symName: __ZNSt12length_errorC2B7v160006EPKc, symObjAddr: 0x5478, symBinAddr: 0x100008F78, symSize: 0x4C }
  - { offsetInCU: 0x71669, offset: 0x71669, size: 0x8, addend: 0x0, symName: __ZNSt3__19allocatorI7RequestE8allocateB7v160006Em, symObjAddr: 0x54C4, symBinAddr: 0x100008FC4, symSize: 0x58 }
  - { offsetInCU: 0x7169D, offset: 0x7169D, size: 0x8, addend: 0x0, symName: __ZNSt3__114basic_ifstreamIcNS_11char_traitsIcEEED2Ev, symObjAddr: 0x5680, symBinAddr: 0x100009180, symSize: 0x64 }
  - { offsetInCU: 0x716D7, offset: 0x716D7, size: 0x8, addend: 0x0, symName: __ZTv0_n24_NSt3__114basic_ifstreamIcNS_11char_traitsIcEEED1Ev, symObjAddr: 0x56E4, symBinAddr: 0x1000091E4, symSize: 0x28 }
  - { offsetInCU: 0x716EE, offset: 0x716EE, size: 0x8, addend: 0x0, symName: __ZN15PDPTWT_solutionC2ERKS_, symObjAddr: 0x570C, symBinAddr: 0x10000920C, symSize: 0x88 }
  - { offsetInCU: 0x71723, offset: 0x71723, size: 0x8, addend: 0x0, symName: __ZNSt3__16vectorI5RouteNS_9allocatorIS1_EEEC1ERKS4_, symObjAddr: 0x5794, symBinAddr: 0x100009294, symSize: 0x34 }
  - { offsetInCU: 0x7175E, offset: 0x7175E, size: 0x8, addend: 0x0, symName: __ZNSt3__16vectorIcNS_9allocatorIcEEEC1ERKS3_, symObjAddr: 0x57C8, symBinAddr: 0x1000092C8, symSize: 0x34 }
  - { offsetInCU: 0x71799, offset: 0x71799, size: 0x8, addend: 0x0, symName: __ZNSt3__16vectorI5RouteNS_9allocatorIS1_EEED1B7v160006Ev, symObjAddr: 0x57FC, symBinAddr: 0x1000092FC, symSize: 0x2C }
  - { offsetInCU: 0x717C3, offset: 0x717C3, size: 0x8, addend: 0x0, symName: __ZNSt3__16vectorI5RouteNS_9allocatorIS1_EEEC2ERKS4_, symObjAddr: 0x5828, symBinAddr: 0x100009328, symSize: 0x114 }
  - { offsetInCU: 0x7182D, offset: 0x7182D, size: 0x8, addend: 0x0, symName: __ZNSt3__116allocator_traitsINS_9allocatorI5RouteEEE37select_on_container_copy_constructionB7v160006IS3_vvEES3_RKS3_, symObjAddr: 0x593C, symBinAddr: 0x10000943C, symSize: 0x10 }
  - { offsetInCU: 0x7185C, offset: 0x7185C, size: 0x8, addend: 0x0, symName: __ZNKSt3__16vectorI5RouteNS_9allocatorIS1_EEE7__allocB7v160006Ev, symObjAddr: 0x594C, symBinAddr: 0x10000944C, symSize: 0x28 }
  - { offsetInCU: 0x7188E, offset: 0x7188E, size: 0x8, addend: 0x0, symName: __ZNSt3__117__compressed_pairIP5RouteNS_9allocatorIS1_EEEC1B7v160006IDnS4_EEOT_OT0_, symObjAddr: 0x5974, symBinAddr: 0x100009474, symSize: 0x3C }
  - { offsetInCU: 0x718E6, offset: 0x718E6, size: 0x8, addend: 0x0, symName: __ZNSt3__16vectorI5RouteNS_9allocatorIS1_EEE16__destroy_vectorC1ERS4_, symObjAddr: 0x59F0, symBinAddr: 0x1000094F0, symSize: 0x34 }
  - { offsetInCU: 0x7191F, offset: 0x7191F, size: 0x8, addend: 0x0, symName: __ZNSt3__16vectorI5RouteNS_9allocatorIS1_EEE11__vallocateB7v160006Em, symObjAddr: 0x5A34, symBinAddr: 0x100009534, symSize: 0xAC }
  - { offsetInCU: 0x71963, offset: 0x71963, size: 0x8, addend: 0x0, symName: __ZNSt3__16vectorI5RouteNS_9allocatorIS1_EEE18__construct_at_endIPS1_Li0EEEvT_S7_m, symObjAddr: 0x5AE0, symBinAddr: 0x1000095E0, symSize: 0x8C }
  - { offsetInCU: 0x719D6, offset: 0x719D6, size: 0x8, addend: 0x0, symName: __ZNSt3__128__exception_guard_exceptionsINS_6vectorI5RouteNS_9allocatorIS2_EEE16__destroy_vectorEE10__completeB7v160006Ev, symObjAddr: 0x5B6C, symBinAddr: 0x10000966C, symSize: 0x1C }
  - { offsetInCU: 0x719FC, offset: 0x719FC, size: 0x8, addend: 0x0, symName: __ZNSt3__128__exception_guard_exceptionsINS_6vectorI5RouteNS_9allocatorIS2_EEE16__destroy_vectorEED1B7v160006Ev, symObjAddr: 0x5B88, symBinAddr: 0x100009688, symSize: 0x2C }
  - { offsetInCU: 0x71A26, offset: 0x71A26, size: 0x8, addend: 0x0, symName: __ZNKSt3__117__compressed_pairIP5RouteNS_9allocatorIS1_EEE6secondB7v160006Ev, symObjAddr: 0x5BB4, symBinAddr: 0x1000096B4, symSize: 0x24 }
  - { offsetInCU: 0x71A4C, offset: 0x71A4C, size: 0x8, addend: 0x0, symName: __ZNKSt3__122__compressed_pair_elemINS_9allocatorI5RouteEELi1ELb1EE5__getB7v160006Ev, symObjAddr: 0x5BD8, symBinAddr: 0x1000096D8, symSize: 0x14 }
  - { offsetInCU: 0x71A72, offset: 0x71A72, size: 0x8, addend: 0x0, symName: __ZNSt3__117__compressed_pairIP5RouteNS_9allocatorIS1_EEEC2B7v160006IDnS4_EEOT_OT0_, symObjAddr: 0x5BEC, symBinAddr: 0x1000096EC, symSize: 0x44 }
  - { offsetInCU: 0x71ACA, offset: 0x71ACA, size: 0x8, addend: 0x0, symName: __ZNSt3__122__compressed_pair_elemIP5RouteLi0ELb0EEC2B7v160006IDnvEEOT_, symObjAddr: 0x5C30, symBinAddr: 0x100009730, symSize: 0x1C }
  - { offsetInCU: 0x71B0C, offset: 0x71B0C, size: 0x8, addend: 0x0, symName: __ZNSt3__122__compressed_pair_elemINS_9allocatorI5RouteEELi1ELb1EEC2B7v160006IS3_vEEOT_, symObjAddr: 0x5C4C, symBinAddr: 0x10000974C, symSize: 0x18 }
  - { offsetInCU: 0x71B4E, offset: 0x71B4E, size: 0x8, addend: 0x0, symName: __ZNSt3__128__exception_guard_exceptionsINS_6vectorI5RouteNS_9allocatorIS2_EEE16__destroy_vectorEEC1B7v160006ES6_, symObjAddr: 0x5C64, symBinAddr: 0x100009764, symSize: 0x34 }
  - { offsetInCU: 0x71B86, offset: 0x71B86, size: 0x8, addend: 0x0, symName: __ZNSt3__128__exception_guard_exceptionsINS_6vectorI5RouteNS_9allocatorIS2_EEE16__destroy_vectorEEC2B7v160006ES6_, symObjAddr: 0x5C98, symBinAddr: 0x100009798, symSize: 0x24 }
  - { offsetInCU: 0x71BBE, offset: 0x71BBE, size: 0x8, addend: 0x0, symName: __ZNSt3__16vectorI5RouteNS_9allocatorIS1_EEE16__destroy_vectorC2ERS4_, symObjAddr: 0x5CBC, symBinAddr: 0x1000097BC, symSize: 0x20 }
  - { offsetInCU: 0x71BF7, offset: 0x71BF7, size: 0x8, addend: 0x0, symName: __ZNKSt3__16vectorI5RouteNS_9allocatorIS1_EEE8max_sizeEv, symObjAddr: 0x5CDC, symBinAddr: 0x1000097DC, symSize: 0x60 }
  - { offsetInCU: 0x71C1F, offset: 0x71C1F, size: 0x8, addend: 0x0, symName: __ZNKSt3__16vectorI5RouteNS_9allocatorIS1_EEE20__throw_length_errorB7v160006Ev, symObjAddr: 0x5D3C, symBinAddr: 0x10000983C, symSize: 0x1C }
  - { offsetInCU: 0x71C45, offset: 0x71C45, size: 0x8, addend: 0x0, symName: __ZNSt3__16vectorI5RouteNS_9allocatorIS1_EEE7__allocB7v160006Ev, symObjAddr: 0x5D98, symBinAddr: 0x100009898, symSize: 0x28 }
  - { offsetInCU: 0x71C6B, offset: 0x71C6B, size: 0x8, addend: 0x0, symName: __ZNSt3__16vectorI5RouteNS_9allocatorIS1_EEE9__end_capB7v160006Ev, symObjAddr: 0x5DC0, symBinAddr: 0x1000098C0, symSize: 0x28 }
  - { offsetInCU: 0x71C91, offset: 0x71C91, size: 0x8, addend: 0x0, symName: __ZNKSt3__16vectorI5RouteNS_9allocatorIS1_EEE14__annotate_newB7v160006Em, symObjAddr: 0x5DE8, symBinAddr: 0x1000098E8, symSize: 0xAC }
  - { offsetInCU: 0x71CC6, offset: 0x71CC6, size: 0x8, addend: 0x0, symName: __ZNSt3__116allocator_traitsINS_9allocatorI5RouteEEE8max_sizeB7v160006IS3_vEEmRKS3_, symObjAddr: 0x5E94, symBinAddr: 0x100009994, symSize: 0x24 }
  - { offsetInCU: 0x71CF4, offset: 0x71CF4, size: 0x8, addend: 0x0, symName: __ZNKSt3__19allocatorI5RouteE8max_sizeB7v160006Ev, symObjAddr: 0x5EB8, symBinAddr: 0x1000099B8, symSize: 0x14 }
  - { offsetInCU: 0x71D1A, offset: 0x71D1A, size: 0x8, addend: 0x0, symName: __ZNSt3__19allocatorI5RouteE8allocateB7v160006Em, symObjAddr: 0x5ECC, symBinAddr: 0x1000099CC, symSize: 0x58 }
  - { offsetInCU: 0x71D4E, offset: 0x71D4E, size: 0x8, addend: 0x0, symName: __ZNSt3__117__compressed_pairIP5RouteNS_9allocatorIS1_EEE6secondB7v160006Ev, symObjAddr: 0x5F24, symBinAddr: 0x100009A24, symSize: 0x24 }
  - { offsetInCU: 0x71D74, offset: 0x71D74, size: 0x8, addend: 0x0, symName: __ZNSt3__122__compressed_pair_elemINS_9allocatorI5RouteEELi1ELb1EE5__getB7v160006Ev, symObjAddr: 0x5F48, symBinAddr: 0x100009A48, symSize: 0x14 }
  - { offsetInCU: 0x71D9A, offset: 0x71D9A, size: 0x8, addend: 0x0, symName: __ZNSt3__117__compressed_pairIP5RouteNS_9allocatorIS1_EEE5firstB7v160006Ev, symObjAddr: 0x5F5C, symBinAddr: 0x100009A5C, symSize: 0x24 }
  - { offsetInCU: 0x71DC0, offset: 0x71DC0, size: 0x8, addend: 0x0, symName: __ZNSt3__122__compressed_pair_elemIP5RouteLi0ELb0EE5__getB7v160006Ev, symObjAddr: 0x5F80, symBinAddr: 0x100009A80, symSize: 0x14 }
  - { offsetInCU: 0x71DE6, offset: 0x71DE6, size: 0x8, addend: 0x0, symName: __ZNKSt3__16vectorI5RouteNS_9allocatorIS1_EEE31__annotate_contiguous_containerB7v160006EPKvS6_S6_S6_, symObjAddr: 0x5F94, symBinAddr: 0x100009A94, symSize: 0x20 }
  - { offsetInCU: 0x71E3C, offset: 0x71E3C, size: 0x8, addend: 0x0, symName: __ZNKSt3__16vectorI5RouteNS_9allocatorIS1_EEE4dataB7v160006Ev, symObjAddr: 0x5FB4, symBinAddr: 0x100009AB4, symSize: 0x28 }
  - { offsetInCU: 0x71E62, offset: 0x71E62, size: 0x8, addend: 0x0, symName: __ZNKSt3__16vectorI5RouteNS_9allocatorIS1_EEE8capacityB7v160006Ev, symObjAddr: 0x5FDC, symBinAddr: 0x100009ADC, symSize: 0x40 }
  - { offsetInCU: 0x71E88, offset: 0x71E88, size: 0x8, addend: 0x0, symName: __ZNKSt3__16vectorI5RouteNS_9allocatorIS1_EEE9__end_capB7v160006Ev, symObjAddr: 0x6030, symBinAddr: 0x100009B30, symSize: 0x28 }
  - { offsetInCU: 0x71EAE, offset: 0x71EAE, size: 0x8, addend: 0x0, symName: __ZNKSt3__117__compressed_pairIP5RouteNS_9allocatorIS1_EEE5firstB7v160006Ev, symObjAddr: 0x6058, symBinAddr: 0x100009B58, symSize: 0x24 }
  - { offsetInCU: 0x71ED4, offset: 0x71ED4, size: 0x8, addend: 0x0, symName: __ZNKSt3__122__compressed_pair_elemIP5RouteLi0ELb0EE5__getB7v160006Ev, symObjAddr: 0x607C, symBinAddr: 0x100009B7C, symSize: 0x14 }
  - { offsetInCU: 0x71F16, offset: 0x71F16, size: 0x8, addend: 0x0, symName: __ZNSt3__16vectorI5RouteNS_9allocatorIS1_EEE21_ConstructTransactionC1B7v160006ERS4_m, symObjAddr: 0x6090, symBinAddr: 0x100009B90, symSize: 0x3C }
  - { offsetInCU: 0x71F5E, offset: 0x71F5E, size: 0x8, addend: 0x0, symName: __ZNSt3__16vectorI5RouteNS_9allocatorIS1_EEE21_ConstructTransactionD1B7v160006Ev, symObjAddr: 0x61C0, symBinAddr: 0x100009CC0, symSize: 0x2C }
  - { offsetInCU: 0x71F88, offset: 0x71F88, size: 0x8, addend: 0x0, symName: __ZNSt3__16vectorI5RouteNS_9allocatorIS1_EEE21_ConstructTransactionC2B7v160006ERS4_m, symObjAddr: 0x61EC, symBinAddr: 0x100009CEC, symSize: 0x44 }
  - { offsetInCU: 0x71FD0, offset: 0x71FD0, size: 0x8, addend: 0x0, symName: __ZNSt3__129_AllocatorDestroyRangeReverseINS_9allocatorI5RouteEEPS2_EC1B7v160006ERS3_RS4_S7_, symObjAddr: 0x627C, symBinAddr: 0x100009D7C, symSize: 0x44 }
  - { offsetInCU: 0x72027, offset: 0x72027, size: 0x8, addend: 0x0, symName: __ZNSt3__116allocator_traitsINS_9allocatorI5RouteEEE9constructB7v160006IS2_JRS2_EvEEvRS3_PT_DpOT0_, symObjAddr: 0x62C0, symBinAddr: 0x100009DC0, symSize: 0x34 }
  - { offsetInCU: 0x7207E, offset: 0x7207E, size: 0x8, addend: 0x0, symName: __ZNSt3__128__exception_guard_exceptionsINS_29_AllocatorDestroyRangeReverseINS_9allocatorI5RouteEEPS3_EEE10__completeB7v160006Ev, symObjAddr: 0x62F4, symBinAddr: 0x100009DF4, symSize: 0x1C }
  - { offsetInCU: 0x720A4, offset: 0x720A4, size: 0x8, addend: 0x0, symName: __ZNSt3__128__exception_guard_exceptionsINS_29_AllocatorDestroyRangeReverseINS_9allocatorI5RouteEEPS3_EEED1B7v160006Ev, symObjAddr: 0x6310, symBinAddr: 0x100009E10, symSize: 0x2C }
  - { offsetInCU: 0x720CE, offset: 0x720CE, size: 0x8, addend: 0x0, symName: __ZNSt3__128__exception_guard_exceptionsINS_29_AllocatorDestroyRangeReverseINS_9allocatorI5RouteEEPS3_EEEC1B7v160006ES6_, symObjAddr: 0x633C, symBinAddr: 0x100009E3C, symSize: 0x34 }
  - { offsetInCU: 0x72107, offset: 0x72107, size: 0x8, addend: 0x0, symName: __ZNSt3__128__exception_guard_exceptionsINS_29_AllocatorDestroyRangeReverseINS_9allocatorI5RouteEEPS3_EEEC2B7v160006ES6_, symObjAddr: 0x6370, symBinAddr: 0x100009E70, symSize: 0x30 }
  - { offsetInCU: 0x72140, offset: 0x72140, size: 0x8, addend: 0x0, symName: __ZNSt3__129_AllocatorDestroyRangeReverseINS_9allocatorI5RouteEEPS2_EC2B7v160006ERS3_RS4_S7_, symObjAddr: 0x63A0, symBinAddr: 0x100009EA0, symSize: 0x38 }
  - { offsetInCU: 0x72197, offset: 0x72197, size: 0x8, addend: 0x0, symName: __ZNSt3__19allocatorI5RouteE9constructB7v160006IS1_JRS1_EEEvPT_DpOT0_, symObjAddr: 0x63D8, symBinAddr: 0x100009ED8, symSize: 0x30 }
  - { offsetInCU: 0x721ED, offset: 0x721ED, size: 0x8, addend: 0x0, symName: __ZN5RouteC1ERKS_, symObjAddr: 0x6408, symBinAddr: 0x100009F08, symSize: 0x34 }
  - { offsetInCU: 0x72222, offset: 0x72222, size: 0x8, addend: 0x0, symName: __ZN5RouteC2ERKS_, symObjAddr: 0x643C, symBinAddr: 0x100009F3C, symSize: 0x48 }
  - { offsetInCU: 0x72257, offset: 0x72257, size: 0x8, addend: 0x0, symName: __ZNSt3__16vectorI4StopNS_9allocatorIS1_EEEC1ERKS4_, symObjAddr: 0x6484, symBinAddr: 0x100009F84, symSize: 0x34 }
  - { offsetInCU: 0x72292, offset: 0x72292, size: 0x8, addend: 0x0, symName: __ZNSt3__16vectorI4StopNS_9allocatorIS1_EEEC2ERKS4_, symObjAddr: 0x64B8, symBinAddr: 0x100009FB8, symSize: 0x114 }
  - { offsetInCU: 0x722FC, offset: 0x722FC, size: 0x8, addend: 0x0, symName: __ZNSt3__116allocator_traitsINS_9allocatorI4StopEEE37select_on_container_copy_constructionB7v160006IS3_vvEES3_RKS3_, symObjAddr: 0x65CC, symBinAddr: 0x10000A0CC, symSize: 0x10 }
  - { offsetInCU: 0x7232B, offset: 0x7232B, size: 0x8, addend: 0x0, symName: __ZNKSt3__16vectorI4StopNS_9allocatorIS1_EEE7__allocB7v160006Ev, symObjAddr: 0x65DC, symBinAddr: 0x10000A0DC, symSize: 0x28 }
  - { offsetInCU: 0x72357, offset: 0x72357, size: 0x8, addend: 0x0, symName: __ZNSt3__117__compressed_pairIP4StopNS_9allocatorIS1_EEEC1B7v160006IDnS4_EEOT_OT0_, symObjAddr: 0x6604, symBinAddr: 0x10000A104, symSize: 0x3C }
  - { offsetInCU: 0x723AF, offset: 0x723AF, size: 0x8, addend: 0x0, symName: __ZNSt3__16vectorI4StopNS_9allocatorIS1_EEE16__destroy_vectorC1ERS4_, symObjAddr: 0x6680, symBinAddr: 0x10000A180, symSize: 0x34 }
  - { offsetInCU: 0x723E8, offset: 0x723E8, size: 0x8, addend: 0x0, symName: __ZNSt3__16vectorI4StopNS_9allocatorIS1_EEE11__vallocateB7v160006Em, symObjAddr: 0x66C4, symBinAddr: 0x10000A1C4, symSize: 0xB4 }
  - { offsetInCU: 0x7242C, offset: 0x7242C, size: 0x8, addend: 0x0, symName: __ZNSt3__16vectorI4StopNS_9allocatorIS1_EEE18__construct_at_endIPS1_Li0EEEvT_S7_m, symObjAddr: 0x6778, symBinAddr: 0x10000A278, symSize: 0x8C }
  - { offsetInCU: 0x7249F, offset: 0x7249F, size: 0x8, addend: 0x0, symName: __ZNSt3__128__exception_guard_exceptionsINS_6vectorI4StopNS_9allocatorIS2_EEE16__destroy_vectorEE10__completeB7v160006Ev, symObjAddr: 0x6804, symBinAddr: 0x10000A304, symSize: 0x1C }
  - { offsetInCU: 0x724C5, offset: 0x724C5, size: 0x8, addend: 0x0, symName: __ZNSt3__128__exception_guard_exceptionsINS_6vectorI4StopNS_9allocatorIS2_EEE16__destroy_vectorEED1B7v160006Ev, symObjAddr: 0x6820, symBinAddr: 0x10000A320, symSize: 0x2C }
  - { offsetInCU: 0x724EF, offset: 0x724EF, size: 0x8, addend: 0x0, symName: __ZNKSt3__117__compressed_pairIP4StopNS_9allocatorIS1_EEE6secondB7v160006Ev, symObjAddr: 0x684C, symBinAddr: 0x10000A34C, symSize: 0x24 }
  - { offsetInCU: 0x72515, offset: 0x72515, size: 0x8, addend: 0x0, symName: __ZNKSt3__122__compressed_pair_elemINS_9allocatorI4StopEELi1ELb1EE5__getB7v160006Ev, symObjAddr: 0x6870, symBinAddr: 0x10000A370, symSize: 0x14 }
  - { offsetInCU: 0x7253B, offset: 0x7253B, size: 0x8, addend: 0x0, symName: __ZNSt3__117__compressed_pairIP4StopNS_9allocatorIS1_EEEC2B7v160006IDnS4_EEOT_OT0_, symObjAddr: 0x6884, symBinAddr: 0x10000A384, symSize: 0x44 }
  - { offsetInCU: 0x72593, offset: 0x72593, size: 0x8, addend: 0x0, symName: __ZNSt3__122__compressed_pair_elemIP4StopLi0ELb0EEC2B7v160006IDnvEEOT_, symObjAddr: 0x68C8, symBinAddr: 0x10000A3C8, symSize: 0x1C }
  - { offsetInCU: 0x725D5, offset: 0x725D5, size: 0x8, addend: 0x0, symName: __ZNSt3__122__compressed_pair_elemINS_9allocatorI4StopEELi1ELb1EEC2B7v160006IS3_vEEOT_, symObjAddr: 0x68E4, symBinAddr: 0x10000A3E4, symSize: 0x18 }
  - { offsetInCU: 0x72617, offset: 0x72617, size: 0x8, addend: 0x0, symName: __ZNSt3__128__exception_guard_exceptionsINS_6vectorI4StopNS_9allocatorIS2_EEE16__destroy_vectorEEC1B7v160006ES6_, symObjAddr: 0x68FC, symBinAddr: 0x10000A3FC, symSize: 0x34 }
  - { offsetInCU: 0x7264F, offset: 0x7264F, size: 0x8, addend: 0x0, symName: __ZNSt3__128__exception_guard_exceptionsINS_6vectorI4StopNS_9allocatorIS2_EEE16__destroy_vectorEEC2B7v160006ES6_, symObjAddr: 0x6930, symBinAddr: 0x10000A430, symSize: 0x24 }
  - { offsetInCU: 0x72687, offset: 0x72687, size: 0x8, addend: 0x0, symName: __ZNSt3__16vectorI4StopNS_9allocatorIS1_EEE16__destroy_vectorC2ERS4_, symObjAddr: 0x6954, symBinAddr: 0x10000A454, symSize: 0x20 }
  - { offsetInCU: 0x726C0, offset: 0x726C0, size: 0x8, addend: 0x0, symName: __ZNKSt3__16vectorI4StopNS_9allocatorIS1_EEE8max_sizeEv, symObjAddr: 0x6974, symBinAddr: 0x10000A474, symSize: 0x60 }
  - { offsetInCU: 0x726E8, offset: 0x726E8, size: 0x8, addend: 0x0, symName: __ZNKSt3__16vectorI4StopNS_9allocatorIS1_EEE20__throw_length_errorB7v160006Ev, symObjAddr: 0x69D4, symBinAddr: 0x10000A4D4, symSize: 0x1C }
  - { offsetInCU: 0x7270E, offset: 0x7270E, size: 0x8, addend: 0x0, symName: __ZNSt3__16vectorI4StopNS_9allocatorIS1_EEE7__allocB7v160006Ev, symObjAddr: 0x6A30, symBinAddr: 0x10000A530, symSize: 0x28 }
  - { offsetInCU: 0x72734, offset: 0x72734, size: 0x8, addend: 0x0, symName: __ZNSt3__16vectorI4StopNS_9allocatorIS1_EEE9__end_capB7v160006Ev, symObjAddr: 0x6A58, symBinAddr: 0x10000A558, symSize: 0x28 }
  - { offsetInCU: 0x7275A, offset: 0x7275A, size: 0x8, addend: 0x0, symName: __ZNKSt3__16vectorI4StopNS_9allocatorIS1_EEE14__annotate_newB7v160006Em, symObjAddr: 0x6A80, symBinAddr: 0x10000A580, symSize: 0xC8 }
  - { offsetInCU: 0x7278F, offset: 0x7278F, size: 0x8, addend: 0x0, symName: __ZNSt3__116allocator_traitsINS_9allocatorI4StopEEE8max_sizeB7v160006IS3_vEEmRKS3_, symObjAddr: 0x6B48, symBinAddr: 0x10000A648, symSize: 0x24 }
  - { offsetInCU: 0x727BD, offset: 0x727BD, size: 0x8, addend: 0x0, symName: __ZNKSt3__19allocatorI4StopE8max_sizeB7v160006Ev, symObjAddr: 0x6B6C, symBinAddr: 0x10000A66C, symSize: 0x18 }
  - { offsetInCU: 0x727E3, offset: 0x727E3, size: 0x8, addend: 0x0, symName: __ZNSt3__19allocatorI4StopE8allocateB7v160006Em, symObjAddr: 0x6B84, symBinAddr: 0x10000A684, symSize: 0x5C }
  - { offsetInCU: 0x72817, offset: 0x72817, size: 0x8, addend: 0x0, symName: __ZNSt3__117__compressed_pairIP4StopNS_9allocatorIS1_EEE6secondB7v160006Ev, symObjAddr: 0x6BE0, symBinAddr: 0x10000A6E0, symSize: 0x24 }
  - { offsetInCU: 0x7283D, offset: 0x7283D, size: 0x8, addend: 0x0, symName: __ZNSt3__122__compressed_pair_elemINS_9allocatorI4StopEELi1ELb1EE5__getB7v160006Ev, symObjAddr: 0x6C04, symBinAddr: 0x10000A704, symSize: 0x14 }
  - { offsetInCU: 0x72863, offset: 0x72863, size: 0x8, addend: 0x0, symName: __ZNSt3__117__compressed_pairIP4StopNS_9allocatorIS1_EEE5firstB7v160006Ev, symObjAddr: 0x6C18, symBinAddr: 0x10000A718, symSize: 0x24 }
  - { offsetInCU: 0x72889, offset: 0x72889, size: 0x8, addend: 0x0, symName: __ZNSt3__122__compressed_pair_elemIP4StopLi0ELb0EE5__getB7v160006Ev, symObjAddr: 0x6C3C, symBinAddr: 0x10000A73C, symSize: 0x14 }
  - { offsetInCU: 0x728AF, offset: 0x728AF, size: 0x8, addend: 0x0, symName: __ZNKSt3__16vectorI4StopNS_9allocatorIS1_EEE31__annotate_contiguous_containerB7v160006EPKvS6_S6_S6_, symObjAddr: 0x6C50, symBinAddr: 0x10000A750, symSize: 0x20 }
  - { offsetInCU: 0x72905, offset: 0x72905, size: 0x8, addend: 0x0, symName: __ZNKSt3__16vectorI4StopNS_9allocatorIS1_EEE4dataB7v160006Ev, symObjAddr: 0x6C70, symBinAddr: 0x10000A770, symSize: 0x28 }
  - { offsetInCU: 0x7292B, offset: 0x7292B, size: 0x8, addend: 0x0, symName: __ZNKSt3__16vectorI4StopNS_9allocatorIS1_EEE8capacityB7v160006Ev, symObjAddr: 0x6C98, symBinAddr: 0x10000A798, symSize: 0x40 }
  - { offsetInCU: 0x72951, offset: 0x72951, size: 0x8, addend: 0x0, symName: __ZNKSt3__16vectorI4StopNS_9allocatorIS1_EEE9__end_capB7v160006Ev, symObjAddr: 0x6CEC, symBinAddr: 0x10000A7EC, symSize: 0x28 }
  - { offsetInCU: 0x72977, offset: 0x72977, size: 0x8, addend: 0x0, symName: __ZNKSt3__117__compressed_pairIP4StopNS_9allocatorIS1_EEE5firstB7v160006Ev, symObjAddr: 0x6D14, symBinAddr: 0x10000A814, symSize: 0x24 }
  - { offsetInCU: 0x7299D, offset: 0x7299D, size: 0x8, addend: 0x0, symName: __ZNKSt3__122__compressed_pair_elemIP4StopLi0ELb0EE5__getB7v160006Ev, symObjAddr: 0x6D38, symBinAddr: 0x10000A838, symSize: 0x14 }
  - { offsetInCU: 0x729DF, offset: 0x729DF, size: 0x8, addend: 0x0, symName: __ZNSt3__16vectorI4StopNS_9allocatorIS1_EEE21_ConstructTransactionC1B7v160006ERS4_m, symObjAddr: 0x6D4C, symBinAddr: 0x10000A84C, symSize: 0x3C }
  - { offsetInCU: 0x72A27, offset: 0x72A27, size: 0x8, addend: 0x0, symName: __ZNSt3__16vectorI4StopNS_9allocatorIS1_EEE21_ConstructTransactionD1B7v160006Ev, symObjAddr: 0x6E7C, symBinAddr: 0x10000A97C, symSize: 0x2C }
  - { offsetInCU: 0x72A51, offset: 0x72A51, size: 0x8, addend: 0x0, symName: __ZNSt3__16vectorI4StopNS_9allocatorIS1_EEE21_ConstructTransactionC2B7v160006ERS4_m, symObjAddr: 0x6EA8, symBinAddr: 0x10000A9A8, symSize: 0x4C }
  - { offsetInCU: 0x72A99, offset: 0x72A99, size: 0x8, addend: 0x0, symName: __ZNSt3__129_AllocatorDestroyRangeReverseINS_9allocatorI4StopEEPS2_EC1B7v160006ERS3_RS4_S7_, symObjAddr: 0x6F40, symBinAddr: 0x10000AA40, symSize: 0x44 }
  - { offsetInCU: 0x72AF0, offset: 0x72AF0, size: 0x8, addend: 0x0, symName: __ZNSt3__116allocator_traitsINS_9allocatorI4StopEEE9constructB7v160006IS2_JRS2_EvEEvRS3_PT_DpOT0_, symObjAddr: 0x6F84, symBinAddr: 0x10000AA84, symSize: 0x34 }
  - { offsetInCU: 0x72B47, offset: 0x72B47, size: 0x8, addend: 0x0, symName: __ZNSt3__128__exception_guard_exceptionsINS_29_AllocatorDestroyRangeReverseINS_9allocatorI4StopEEPS3_EEE10__completeB7v160006Ev, symObjAddr: 0x6FB8, symBinAddr: 0x10000AAB8, symSize: 0x1C }
  - { offsetInCU: 0x72B6D, offset: 0x72B6D, size: 0x8, addend: 0x0, symName: __ZNSt3__128__exception_guard_exceptionsINS_29_AllocatorDestroyRangeReverseINS_9allocatorI4StopEEPS3_EEED1B7v160006Ev, symObjAddr: 0x6FD4, symBinAddr: 0x10000AAD4, symSize: 0x2C }
  - { offsetInCU: 0x72B97, offset: 0x72B97, size: 0x8, addend: 0x0, symName: __ZNSt3__128__exception_guard_exceptionsINS_29_AllocatorDestroyRangeReverseINS_9allocatorI4StopEEPS3_EEEC1B7v160006ES6_, symObjAddr: 0x7000, symBinAddr: 0x10000AB00, symSize: 0x34 }
  - { offsetInCU: 0x72BD0, offset: 0x72BD0, size: 0x8, addend: 0x0, symName: __ZNSt3__128__exception_guard_exceptionsINS_29_AllocatorDestroyRangeReverseINS_9allocatorI4StopEEPS3_EEEC2B7v160006ES6_, symObjAddr: 0x7034, symBinAddr: 0x10000AB34, symSize: 0x30 }
  - { offsetInCU: 0x72C09, offset: 0x72C09, size: 0x8, addend: 0x0, symName: __ZNSt3__129_AllocatorDestroyRangeReverseINS_9allocatorI4StopEEPS2_EC2B7v160006ERS3_RS4_S7_, symObjAddr: 0x7064, symBinAddr: 0x10000AB64, symSize: 0x38 }
  - { offsetInCU: 0x72C60, offset: 0x72C60, size: 0x8, addend: 0x0, symName: __ZNSt3__19allocatorI4StopE9constructB7v160006IS1_JRS1_EEEvPT_DpOT0_, symObjAddr: 0x709C, symBinAddr: 0x10000AB9C, symSize: 0x30 }
  - { offsetInCU: 0x72CB6, offset: 0x72CB6, size: 0x8, addend: 0x0, symName: __ZNSt3__128__exception_guard_exceptionsINS_29_AllocatorDestroyRangeReverseINS_9allocatorI4StopEEPS3_EEED2B7v160006Ev, symObjAddr: 0x70CC, symBinAddr: 0x10000ABCC, symSize: 0x50 }
  - { offsetInCU: 0x72CE0, offset: 0x72CE0, size: 0x8, addend: 0x0, symName: __ZNKSt3__129_AllocatorDestroyRangeReverseINS_9allocatorI4StopEEPS2_EclB7v160006Ev, symObjAddr: 0x711C, symBinAddr: 0x10000AC1C, symSize: 0x68 }
  - { offsetInCU: 0x72D06, offset: 0x72D06, size: 0x8, addend: 0x0, symName: __ZNSt3__116reverse_iteratorIP4StopEC1B7v160006ES2_, symObjAddr: 0x71F4, symBinAddr: 0x10000ACF4, symSize: 0x34 }
  - { offsetInCU: 0x72D3E, offset: 0x72D3E, size: 0x8, addend: 0x0, symName: __ZNSt3__116allocator_traitsINS_9allocatorI4StopEEE7destroyB7v160006IS2_vEEvRS3_PT_, symObjAddr: 0x7270, symBinAddr: 0x10000AD70, symSize: 0x2C }
  - { offsetInCU: 0x72D7B, offset: 0x72D7B, size: 0x8, addend: 0x0, symName: __ZNSt3__116reverse_iteratorIP4StopEppB7v160006Ev, symObjAddr: 0x72C0, symBinAddr: 0x10000ADC0, symSize: 0x20 }
  - { offsetInCU: 0x72DA1, offset: 0x72DA1, size: 0x8, addend: 0x0, symName: __ZNKSt3__116reverse_iteratorIP4StopE4baseB7v160006Ev, symObjAddr: 0x72E0, symBinAddr: 0x10000ADE0, symSize: 0x18 }
  - { offsetInCU: 0x72DC7, offset: 0x72DC7, size: 0x8, addend: 0x0, symName: __ZNSt3__19allocatorI4StopE7destroyB7v160006EPS1_, symObjAddr: 0x72F8, symBinAddr: 0x10000ADF8, symSize: 0x14 }
  - { offsetInCU: 0x72E01, offset: 0x72E01, size: 0x8, addend: 0x0, symName: __ZNSt3__119__to_address_helperINS_16reverse_iteratorIP4StopEEvE6__callB7v160006ERKS4_, symObjAddr: 0x730C, symBinAddr: 0x10000AE0C, symSize: 0x38 }
  - { offsetInCU: 0x72E24, offset: 0x72E24, size: 0x8, addend: 0x0, symName: __ZNKSt3__116reverse_iteratorIP4StopEptB7v160006Ev, symObjAddr: 0x7344, symBinAddr: 0x10000AE44, symSize: 0x24 }
  - { offsetInCU: 0x72E4A, offset: 0x72E4A, size: 0x8, addend: 0x0, symName: __ZNKSt3__116reverse_iteratorIP4StopEdeB7v160006Ev, symObjAddr: 0x7368, symBinAddr: 0x10000AE68, symSize: 0x28 }
  - { offsetInCU: 0x72E7E, offset: 0x72E7E, size: 0x8, addend: 0x0, symName: __ZNSt3__116reverse_iteratorIP4StopEC2B7v160006ES2_, symObjAddr: 0x7390, symBinAddr: 0x10000AE90, symSize: 0x28 }
  - { offsetInCU: 0x72EB6, offset: 0x72EB6, size: 0x8, addend: 0x0, symName: __ZNSt3__16vectorI4StopNS_9allocatorIS1_EEE21_ConstructTransactionD2B7v160006Ev, symObjAddr: 0x73B8, symBinAddr: 0x10000AEB8, symSize: 0x20 }
  - { offsetInCU: 0x72EE0, offset: 0x72EE0, size: 0x8, addend: 0x0, symName: __ZNSt3__128__exception_guard_exceptionsINS_6vectorI4StopNS_9allocatorIS2_EEE16__destroy_vectorEED2B7v160006Ev, symObjAddr: 0x73D8, symBinAddr: 0x10000AED8, symSize: 0x50 }
  - { offsetInCU: 0x72F0A, offset: 0x72F0A, size: 0x8, addend: 0x0, symName: __ZNSt3__16vectorI4StopNS_9allocatorIS1_EEE16__destroy_vectorclB7v160006Ev, symObjAddr: 0x7428, symBinAddr: 0x10000AF28, symSize: 0x9C }
  - { offsetInCU: 0x72F30, offset: 0x72F30, size: 0x8, addend: 0x0, symName: __ZNKSt3__16vectorI4StopNS_9allocatorIS1_EEE17__annotate_deleteB7v160006Ev, symObjAddr: 0x74C4, symBinAddr: 0x10000AFC4, symSize: 0xD4 }
  - { offsetInCU: 0x72F56, offset: 0x72F56, size: 0x8, addend: 0x0, symName: __ZNSt3__16vectorI4StopNS_9allocatorIS1_EEE7__clearB7v160006Ev, symObjAddr: 0x75A8, symBinAddr: 0x10000B0A8, symSize: 0x28 }
  - { offsetInCU: 0x72F7C, offset: 0x72F7C, size: 0x8, addend: 0x0, symName: __ZNSt3__116allocator_traitsINS_9allocatorI4StopEEE10deallocateB7v160006ERS3_PS2_m, symObjAddr: 0x75D0, symBinAddr: 0x10000B0D0, symSize: 0x34 }
  - { offsetInCU: 0x72FBE, offset: 0x72FBE, size: 0x8, addend: 0x0, symName: __ZNSt3__16vectorI4StopNS_9allocatorIS1_EEE22__base_destruct_at_endB7v160006EPS1_, symObjAddr: 0x7604, symBinAddr: 0x10000B104, symSize: 0x8C }
  - { offsetInCU: 0x73002, offset: 0x73002, size: 0x8, addend: 0x0, symName: __ZNSt3__19allocatorI4StopE10deallocateB7v160006EPS1_m, symObjAddr: 0x7690, symBinAddr: 0x10000B190, symSize: 0x44 }
  - { offsetInCU: 0x73044, offset: 0x73044, size: 0x8, addend: 0x0, symName: __ZNSt3__128__exception_guard_exceptionsINS_29_AllocatorDestroyRangeReverseINS_9allocatorI5RouteEEPS3_EEED2B7v160006Ev, symObjAddr: 0x76D4, symBinAddr: 0x10000B1D4, symSize: 0x50 }
  - { offsetInCU: 0x7306E, offset: 0x7306E, size: 0x8, addend: 0x0, symName: __ZNKSt3__129_AllocatorDestroyRangeReverseINS_9allocatorI5RouteEEPS2_EclB7v160006Ev, symObjAddr: 0x7724, symBinAddr: 0x10000B224, symSize: 0x68 }
  - { offsetInCU: 0x73094, offset: 0x73094, size: 0x8, addend: 0x0, symName: __ZNSt3__116reverse_iteratorIP5RouteEC1B7v160006ES2_, symObjAddr: 0x77FC, symBinAddr: 0x10000B2FC, symSize: 0x34 }
  - { offsetInCU: 0x730CC, offset: 0x730CC, size: 0x8, addend: 0x0, symName: __ZNSt3__116allocator_traitsINS_9allocatorI5RouteEEE7destroyB7v160006IS2_vEEvRS3_PT_, symObjAddr: 0x7878, symBinAddr: 0x10000B378, symSize: 0x2C }
  - { offsetInCU: 0x73109, offset: 0x73109, size: 0x8, addend: 0x0, symName: __ZNSt3__116reverse_iteratorIP5RouteEppB7v160006Ev, symObjAddr: 0x78C8, symBinAddr: 0x10000B3C8, symSize: 0x20 }
  - { offsetInCU: 0x7312F, offset: 0x7312F, size: 0x8, addend: 0x0, symName: __ZNKSt3__116reverse_iteratorIP5RouteE4baseB7v160006Ev, symObjAddr: 0x78E8, symBinAddr: 0x10000B3E8, symSize: 0x18 }
  - { offsetInCU: 0x73155, offset: 0x73155, size: 0x8, addend: 0x0, symName: __ZNSt3__19allocatorI5RouteE7destroyB7v160006EPS1_, symObjAddr: 0x7900, symBinAddr: 0x10000B400, symSize: 0x28 }
  - { offsetInCU: 0x73189, offset: 0x73189, size: 0x8, addend: 0x0, symName: __ZN5RouteD1Ev, symObjAddr: 0x7928, symBinAddr: 0x10000B428, symSize: 0x2C }
  - { offsetInCU: 0x731B5, offset: 0x731B5, size: 0x8, addend: 0x0, symName: __ZN5RouteD2Ev, symObjAddr: 0x7954, symBinAddr: 0x10000B454, symSize: 0x30 }
  - { offsetInCU: 0x731E1, offset: 0x731E1, size: 0x8, addend: 0x0, symName: __ZNSt3__16vectorI4StopNS_9allocatorIS1_EEED1B7v160006Ev, symObjAddr: 0x7984, symBinAddr: 0x10000B484, symSize: 0x2C }
  - { offsetInCU: 0x7320B, offset: 0x7320B, size: 0x8, addend: 0x0, symName: __ZNSt3__16vectorI4StopNS_9allocatorIS1_EEED2B7v160006Ev, symObjAddr: 0x79B0, symBinAddr: 0x10000B4B0, symSize: 0x44 }
  - { offsetInCU: 0x7323B, offset: 0x7323B, size: 0x8, addend: 0x0, symName: __ZNSt3__119__to_address_helperINS_16reverse_iteratorIP5RouteEEvE6__callB7v160006ERKS4_, symObjAddr: 0x79F4, symBinAddr: 0x10000B4F4, symSize: 0x38 }
  - { offsetInCU: 0x7325E, offset: 0x7325E, size: 0x8, addend: 0x0, symName: __ZNKSt3__116reverse_iteratorIP5RouteEptB7v160006Ev, symObjAddr: 0x7A2C, symBinAddr: 0x10000B52C, symSize: 0x24 }
  - { offsetInCU: 0x73284, offset: 0x73284, size: 0x8, addend: 0x0, symName: __ZNKSt3__116reverse_iteratorIP5RouteEdeB7v160006Ev, symObjAddr: 0x7A50, symBinAddr: 0x10000B550, symSize: 0x28 }
  - { offsetInCU: 0x732B8, offset: 0x732B8, size: 0x8, addend: 0x0, symName: __ZNSt3__116reverse_iteratorIP5RouteEC2B7v160006ES2_, symObjAddr: 0x7A78, symBinAddr: 0x10000B578, symSize: 0x28 }
  - { offsetInCU: 0x732F0, offset: 0x732F0, size: 0x8, addend: 0x0, symName: __ZNSt3__16vectorI5RouteNS_9allocatorIS1_EEE21_ConstructTransactionD2B7v160006Ev, symObjAddr: 0x7AA0, symBinAddr: 0x10000B5A0, symSize: 0x20 }
  - { offsetInCU: 0x7331A, offset: 0x7331A, size: 0x8, addend: 0x0, symName: __ZNSt3__128__exception_guard_exceptionsINS_6vectorI5RouteNS_9allocatorIS2_EEE16__destroy_vectorEED2B7v160006Ev, symObjAddr: 0x7AC0, symBinAddr: 0x10000B5C0, symSize: 0x50 }
  - { offsetInCU: 0x73344, offset: 0x73344, size: 0x8, addend: 0x0, symName: __ZNSt3__16vectorI5RouteNS_9allocatorIS1_EEE16__destroy_vectorclB7v160006Ev, symObjAddr: 0x7B10, symBinAddr: 0x10000B610, symSize: 0x9C }
  - { offsetInCU: 0x7336A, offset: 0x7336A, size: 0x8, addend: 0x0, symName: __ZNKSt3__16vectorI5RouteNS_9allocatorIS1_EEE17__annotate_deleteB7v160006Ev, symObjAddr: 0x7BAC, symBinAddr: 0x10000B6AC, symSize: 0xB8 }
  - { offsetInCU: 0x73390, offset: 0x73390, size: 0x8, addend: 0x0, symName: __ZNSt3__16vectorI5RouteNS_9allocatorIS1_EEE7__clearB7v160006Ev, symObjAddr: 0x7C74, symBinAddr: 0x10000B774, symSize: 0x28 }
  - { offsetInCU: 0x733B6, offset: 0x733B6, size: 0x8, addend: 0x0, symName: __ZNSt3__116allocator_traitsINS_9allocatorI5RouteEEE10deallocateB7v160006ERS3_PS2_m, symObjAddr: 0x7C9C, symBinAddr: 0x10000B79C, symSize: 0x34 }
  - { offsetInCU: 0x733F8, offset: 0x733F8, size: 0x8, addend: 0x0, symName: __ZNSt3__16vectorI5RouteNS_9allocatorIS1_EEE22__base_destruct_at_endB7v160006EPS1_, symObjAddr: 0x7CD0, symBinAddr: 0x10000B7D0, symSize: 0x8C }
  - { offsetInCU: 0x7343C, offset: 0x7343C, size: 0x8, addend: 0x0, symName: __ZNSt3__19allocatorI5RouteE10deallocateB7v160006EPS1_m, symObjAddr: 0x7D5C, symBinAddr: 0x10000B85C, symSize: 0x40 }
  - { offsetInCU: 0x7347E, offset: 0x7347E, size: 0x8, addend: 0x0, symName: __ZNSt3__16vectorIcNS_9allocatorIcEEEC2ERKS3_, symObjAddr: 0x7D9C, symBinAddr: 0x10000B89C, symSize: 0x114 }
  - { offsetInCU: 0x734E8, offset: 0x734E8, size: 0x8, addend: 0x0, symName: __ZNSt3__116allocator_traitsINS_9allocatorIcEEE37select_on_container_copy_constructionB7v160006IS2_vvEES2_RKS2_, symObjAddr: 0x7EB0, symBinAddr: 0x10000B9B0, symSize: 0x10 }
  - { offsetInCU: 0x73517, offset: 0x73517, size: 0x8, addend: 0x0, symName: __ZNKSt3__16vectorIcNS_9allocatorIcEEE7__allocB7v160006Ev, symObjAddr: 0x7EC0, symBinAddr: 0x10000B9C0, symSize: 0x28 }
  - { offsetInCU: 0x73543, offset: 0x73543, size: 0x8, addend: 0x0, symName: __ZNSt3__117__compressed_pairIPcNS_9allocatorIcEEEC1B7v160006IDnS3_EEOT_OT0_, symObjAddr: 0x7EE8, symBinAddr: 0x10000B9E8, symSize: 0x3C }
  - { offsetInCU: 0x7359B, offset: 0x7359B, size: 0x8, addend: 0x0, symName: __ZNSt3__16vectorIcNS_9allocatorIcEEE16__destroy_vectorC1ERS3_, symObjAddr: 0x7F64, symBinAddr: 0x10000BA64, symSize: 0x34 }
  - { offsetInCU: 0x735D4, offset: 0x735D4, size: 0x8, addend: 0x0, symName: __ZNKSt3__16vectorIcNS_9allocatorIcEEE4sizeB7v160006Ev, symObjAddr: 0x7FA8, symBinAddr: 0x10000BAA8, symSize: 0x20 }
  - { offsetInCU: 0x735FA, offset: 0x735FA, size: 0x8, addend: 0x0, symName: __ZNSt3__16vectorIcNS_9allocatorIcEEE11__vallocateB7v160006Em, symObjAddr: 0x7FC8, symBinAddr: 0x10000BAC8, symSize: 0xAC }
  - { offsetInCU: 0x7363E, offset: 0x7363E, size: 0x8, addend: 0x0, symName: __ZNSt3__16vectorIcNS_9allocatorIcEEE18__construct_at_endIPcLi0EEEvT_S6_m, symObjAddr: 0x8074, symBinAddr: 0x10000BB74, symSize: 0x8C }
  - { offsetInCU: 0x736B1, offset: 0x736B1, size: 0x8, addend: 0x0, symName: __ZNSt3__128__exception_guard_exceptionsINS_6vectorIcNS_9allocatorIcEEE16__destroy_vectorEE10__completeB7v160006Ev, symObjAddr: 0x8100, symBinAddr: 0x10000BC00, symSize: 0x1C }
  - { offsetInCU: 0x736D7, offset: 0x736D7, size: 0x8, addend: 0x0, symName: __ZNSt3__128__exception_guard_exceptionsINS_6vectorIcNS_9allocatorIcEEE16__destroy_vectorEED1B7v160006Ev, symObjAddr: 0x811C, symBinAddr: 0x10000BC1C, symSize: 0x2C }
  - { offsetInCU: 0x73701, offset: 0x73701, size: 0x8, addend: 0x0, symName: __ZNKSt3__117__compressed_pairIPcNS_9allocatorIcEEE6secondB7v160006Ev, symObjAddr: 0x8148, symBinAddr: 0x10000BC48, symSize: 0x24 }
  - { offsetInCU: 0x73727, offset: 0x73727, size: 0x8, addend: 0x0, symName: __ZNKSt3__122__compressed_pair_elemINS_9allocatorIcEELi1ELb1EE5__getB7v160006Ev, symObjAddr: 0x816C, symBinAddr: 0x10000BC6C, symSize: 0x14 }
  - { offsetInCU: 0x7374D, offset: 0x7374D, size: 0x8, addend: 0x0, symName: __ZNSt3__117__compressed_pairIPcNS_9allocatorIcEEEC2B7v160006IDnS3_EEOT_OT0_, symObjAddr: 0x8180, symBinAddr: 0x10000BC80, symSize: 0x44 }
  - { offsetInCU: 0x737A5, offset: 0x737A5, size: 0x8, addend: 0x0, symName: __ZNSt3__122__compressed_pair_elemIPcLi0ELb0EEC2B7v160006IDnvEEOT_, symObjAddr: 0x81C4, symBinAddr: 0x10000BCC4, symSize: 0x1C }
  - { offsetInCU: 0x737E7, offset: 0x737E7, size: 0x8, addend: 0x0, symName: __ZNSt3__122__compressed_pair_elemINS_9allocatorIcEELi1ELb1EEC2B7v160006IS2_vEEOT_, symObjAddr: 0x81E0, symBinAddr: 0x10000BCE0, symSize: 0x18 }
  - { offsetInCU: 0x73829, offset: 0x73829, size: 0x8, addend: 0x0, symName: __ZNSt3__128__exception_guard_exceptionsINS_6vectorIcNS_9allocatorIcEEE16__destroy_vectorEEC1B7v160006ES5_, symObjAddr: 0x81F8, symBinAddr: 0x10000BCF8, symSize: 0x34 }
  - { offsetInCU: 0x73861, offset: 0x73861, size: 0x8, addend: 0x0, symName: __ZNSt3__128__exception_guard_exceptionsINS_6vectorIcNS_9allocatorIcEEE16__destroy_vectorEEC2B7v160006ES5_, symObjAddr: 0x822C, symBinAddr: 0x10000BD2C, symSize: 0x24 }
  - { offsetInCU: 0x73899, offset: 0x73899, size: 0x8, addend: 0x0, symName: __ZNSt3__16vectorIcNS_9allocatorIcEEE16__destroy_vectorC2ERS3_, symObjAddr: 0x8250, symBinAddr: 0x10000BD50, symSize: 0x20 }
  - { offsetInCU: 0x738D2, offset: 0x738D2, size: 0x8, addend: 0x0, symName: __ZNKSt3__16vectorIcNS_9allocatorIcEEE8max_sizeEv, symObjAddr: 0x8270, symBinAddr: 0x10000BD70, symSize: 0x60 }
  - { offsetInCU: 0x738FA, offset: 0x738FA, size: 0x8, addend: 0x0, symName: __ZNKSt3__16vectorIcNS_9allocatorIcEEE20__throw_length_errorB7v160006Ev, symObjAddr: 0x82D0, symBinAddr: 0x10000BDD0, symSize: 0x1C }
  - { offsetInCU: 0x73920, offset: 0x73920, size: 0x8, addend: 0x0, symName: __ZNSt3__16vectorIcNS_9allocatorIcEEE7__allocB7v160006Ev, symObjAddr: 0x832C, symBinAddr: 0x10000BE2C, symSize: 0x28 }
  - { offsetInCU: 0x73946, offset: 0x73946, size: 0x8, addend: 0x0, symName: __ZNSt3__16vectorIcNS_9allocatorIcEEE9__end_capB7v160006Ev, symObjAddr: 0x8354, symBinAddr: 0x10000BE54, symSize: 0x28 }
  - { offsetInCU: 0x7396C, offset: 0x7396C, size: 0x8, addend: 0x0, symName: __ZNKSt3__16vectorIcNS_9allocatorIcEEE14__annotate_newB7v160006Em, symObjAddr: 0x837C, symBinAddr: 0x10000BE7C, symSize: 0xAC }
  - { offsetInCU: 0x739A1, offset: 0x739A1, size: 0x8, addend: 0x0, symName: __ZNSt3__116allocator_traitsINS_9allocatorIcEEE8max_sizeB7v160006IS2_vEEmRKS2_, symObjAddr: 0x8428, symBinAddr: 0x10000BF28, symSize: 0x24 }
  - { offsetInCU: 0x739CF, offset: 0x739CF, size: 0x8, addend: 0x0, symName: __ZNKSt3__19allocatorIcE8max_sizeB7v160006Ev, symObjAddr: 0x844C, symBinAddr: 0x10000BF4C, symSize: 0x14 }
  - { offsetInCU: 0x739F5, offset: 0x739F5, size: 0x8, addend: 0x0, symName: __ZNSt3__19allocatorIcE8allocateB7v160006Em, symObjAddr: 0x8460, symBinAddr: 0x10000BF60, symSize: 0x58 }
  - { offsetInCU: 0x73A29, offset: 0x73A29, size: 0x8, addend: 0x0, symName: __ZNSt3__117__compressed_pairIPcNS_9allocatorIcEEE6secondB7v160006Ev, symObjAddr: 0x84B8, symBinAddr: 0x10000BFB8, symSize: 0x24 }
  - { offsetInCU: 0x73A4F, offset: 0x73A4F, size: 0x8, addend: 0x0, symName: __ZNSt3__122__compressed_pair_elemINS_9allocatorIcEELi1ELb1EE5__getB7v160006Ev, symObjAddr: 0x84DC, symBinAddr: 0x10000BFDC, symSize: 0x14 }
  - { offsetInCU: 0x73A75, offset: 0x73A75, size: 0x8, addend: 0x0, symName: __ZNSt3__117__compressed_pairIPcNS_9allocatorIcEEE5firstB7v160006Ev, symObjAddr: 0x84F0, symBinAddr: 0x10000BFF0, symSize: 0x24 }
  - { offsetInCU: 0x73A9B, offset: 0x73A9B, size: 0x8, addend: 0x0, symName: __ZNSt3__122__compressed_pair_elemIPcLi0ELb0EE5__getB7v160006Ev, symObjAddr: 0x8514, symBinAddr: 0x10000C014, symSize: 0x14 }
  - { offsetInCU: 0x73AC1, offset: 0x73AC1, size: 0x8, addend: 0x0, symName: __ZNKSt3__16vectorIcNS_9allocatorIcEEE31__annotate_contiguous_containerB7v160006EPKvS5_S5_S5_, symObjAddr: 0x8528, symBinAddr: 0x10000C028, symSize: 0x20 }
  - { offsetInCU: 0x73B17, offset: 0x73B17, size: 0x8, addend: 0x0, symName: __ZNKSt3__16vectorIcNS_9allocatorIcEEE4dataB7v160006Ev, symObjAddr: 0x8548, symBinAddr: 0x10000C048, symSize: 0x28 }
  - { offsetInCU: 0x73B3D, offset: 0x73B3D, size: 0x8, addend: 0x0, symName: __ZNKSt3__16vectorIcNS_9allocatorIcEEE8capacityB7v160006Ev, symObjAddr: 0x8570, symBinAddr: 0x10000C070, symSize: 0x38 }
  - { offsetInCU: 0x73B63, offset: 0x73B63, size: 0x8, addend: 0x0, symName: __ZNKSt3__16vectorIcNS_9allocatorIcEEE9__end_capB7v160006Ev, symObjAddr: 0x85BC, symBinAddr: 0x10000C0BC, symSize: 0x28 }
  - { offsetInCU: 0x73B89, offset: 0x73B89, size: 0x8, addend: 0x0, symName: __ZNKSt3__117__compressed_pairIPcNS_9allocatorIcEEE5firstB7v160006Ev, symObjAddr: 0x85E4, symBinAddr: 0x10000C0E4, symSize: 0x24 }
  - { offsetInCU: 0x73BAF, offset: 0x73BAF, size: 0x8, addend: 0x0, symName: __ZNKSt3__122__compressed_pair_elemIPcLi0ELb0EE5__getB7v160006Ev, symObjAddr: 0x8608, symBinAddr: 0x10000C108, symSize: 0x14 }
  - { offsetInCU: 0x73BF1, offset: 0x73BF1, size: 0x8, addend: 0x0, symName: __ZNSt3__16vectorIcNS_9allocatorIcEEE21_ConstructTransactionC1B7v160006ERS3_m, symObjAddr: 0x861C, symBinAddr: 0x10000C11C, symSize: 0x3C }
  - { offsetInCU: 0x73C39, offset: 0x73C39, size: 0x8, addend: 0x0, symName: __ZNSt3__16vectorIcNS_9allocatorIcEEE21_ConstructTransactionD1B7v160006Ev, symObjAddr: 0x874C, symBinAddr: 0x10000C24C, symSize: 0x2C }
  - { offsetInCU: 0x73C63, offset: 0x73C63, size: 0x8, addend: 0x0, symName: __ZNSt3__16vectorIcNS_9allocatorIcEEE21_ConstructTransactionC2B7v160006ERS3_m, symObjAddr: 0x8778, symBinAddr: 0x10000C278, symSize: 0x44 }
  - { offsetInCU: 0x73CAB, offset: 0x73CAB, size: 0x8, addend: 0x0, symName: __ZNSt3__129_AllocatorDestroyRangeReverseINS_9allocatorIcEEPcEC1B7v160006ERS2_RS3_S6_, symObjAddr: 0x8808, symBinAddr: 0x10000C308, symSize: 0x44 }
  - { offsetInCU: 0x73D02, offset: 0x73D02, size: 0x8, addend: 0x0, symName: __ZNSt3__116allocator_traitsINS_9allocatorIcEEE9constructB7v160006IcJRcEvEEvRS2_PT_DpOT0_, symObjAddr: 0x884C, symBinAddr: 0x10000C34C, symSize: 0x34 }
  - { offsetInCU: 0x73D59, offset: 0x73D59, size: 0x8, addend: 0x0, symName: __ZNSt3__128__exception_guard_exceptionsINS_29_AllocatorDestroyRangeReverseINS_9allocatorIcEEPcEEE10__completeB7v160006Ev, symObjAddr: 0x8880, symBinAddr: 0x10000C380, symSize: 0x1C }
  - { offsetInCU: 0x73D7F, offset: 0x73D7F, size: 0x8, addend: 0x0, symName: __ZNSt3__128__exception_guard_exceptionsINS_29_AllocatorDestroyRangeReverseINS_9allocatorIcEEPcEEED1B7v160006Ev, symObjAddr: 0x889C, symBinAddr: 0x10000C39C, symSize: 0x2C }
  - { offsetInCU: 0x73DA9, offset: 0x73DA9, size: 0x8, addend: 0x0, symName: __ZNSt3__128__exception_guard_exceptionsINS_29_AllocatorDestroyRangeReverseINS_9allocatorIcEEPcEEEC1B7v160006ES5_, symObjAddr: 0x88C8, symBinAddr: 0x10000C3C8, symSize: 0x34 }
  - { offsetInCU: 0x73DE2, offset: 0x73DE2, size: 0x8, addend: 0x0, symName: __ZNSt3__128__exception_guard_exceptionsINS_29_AllocatorDestroyRangeReverseINS_9allocatorIcEEPcEEEC2B7v160006ES5_, symObjAddr: 0x88FC, symBinAddr: 0x10000C3FC, symSize: 0x30 }
  - { offsetInCU: 0x73E1B, offset: 0x73E1B, size: 0x8, addend: 0x0, symName: __ZNSt3__129_AllocatorDestroyRangeReverseINS_9allocatorIcEEPcEC2B7v160006ERS2_RS3_S6_, symObjAddr: 0x892C, symBinAddr: 0x10000C42C, symSize: 0x38 }
  - { offsetInCU: 0x73E72, offset: 0x73E72, size: 0x8, addend: 0x0, symName: __ZNSt3__19allocatorIcE9constructB7v160006IcJRcEEEvPT_DpOT0_, symObjAddr: 0x8964, symBinAddr: 0x10000C464, symSize: 0x28 }
  - { offsetInCU: 0x73EC8, offset: 0x73EC8, size: 0x8, addend: 0x0, symName: __ZNSt3__128__exception_guard_exceptionsINS_29_AllocatorDestroyRangeReverseINS_9allocatorIcEEPcEEED2B7v160006Ev, symObjAddr: 0x898C, symBinAddr: 0x10000C48C, symSize: 0x50 }
  - { offsetInCU: 0x73EF2, offset: 0x73EF2, size: 0x8, addend: 0x0, symName: __ZNKSt3__129_AllocatorDestroyRangeReverseINS_9allocatorIcEEPcEclB7v160006Ev, symObjAddr: 0x89DC, symBinAddr: 0x10000C4DC, symSize: 0x68 }
  - { offsetInCU: 0x73F18, offset: 0x73F18, size: 0x8, addend: 0x0, symName: __ZNSt3__116reverse_iteratorIPcEC1B7v160006ES1_, symObjAddr: 0x8AB4, symBinAddr: 0x10000C5B4, symSize: 0x34 }
  - { offsetInCU: 0x73F50, offset: 0x73F50, size: 0x8, addend: 0x0, symName: __ZNSt3__116allocator_traitsINS_9allocatorIcEEE7destroyB7v160006IcvEEvRS2_PT_, symObjAddr: 0x8B30, symBinAddr: 0x10000C630, symSize: 0x2C }
  - { offsetInCU: 0x73F8D, offset: 0x73F8D, size: 0x8, addend: 0x0, symName: __ZNSt3__116reverse_iteratorIPcEppB7v160006Ev, symObjAddr: 0x8B80, symBinAddr: 0x10000C680, symSize: 0x20 }
  - { offsetInCU: 0x73FB3, offset: 0x73FB3, size: 0x8, addend: 0x0, symName: __ZNKSt3__116reverse_iteratorIPcE4baseB7v160006Ev, symObjAddr: 0x8BA0, symBinAddr: 0x10000C6A0, symSize: 0x18 }
  - { offsetInCU: 0x73FD9, offset: 0x73FD9, size: 0x8, addend: 0x0, symName: __ZNSt3__19allocatorIcE7destroyB7v160006EPc, symObjAddr: 0x8BB8, symBinAddr: 0x10000C6B8, symSize: 0x14 }
  - { offsetInCU: 0x74013, offset: 0x74013, size: 0x8, addend: 0x0, symName: __ZNSt3__119__to_address_helperINS_16reverse_iteratorIPcEEvE6__callB7v160006ERKS3_, symObjAddr: 0x8BCC, symBinAddr: 0x10000C6CC, symSize: 0x38 }
  - { offsetInCU: 0x74036, offset: 0x74036, size: 0x8, addend: 0x0, symName: __ZNKSt3__116reverse_iteratorIPcEptB7v160006Ev, symObjAddr: 0x8C04, symBinAddr: 0x10000C704, symSize: 0x24 }
  - { offsetInCU: 0x7405C, offset: 0x7405C, size: 0x8, addend: 0x0, symName: __ZNKSt3__116reverse_iteratorIPcEdeB7v160006Ev, symObjAddr: 0x8C28, symBinAddr: 0x10000C728, symSize: 0x28 }
  - { offsetInCU: 0x74090, offset: 0x74090, size: 0x8, addend: 0x0, symName: __ZNSt3__116reverse_iteratorIPcEC2B7v160006ES1_, symObjAddr: 0x8C50, symBinAddr: 0x10000C750, symSize: 0x28 }
  - { offsetInCU: 0x740C8, offset: 0x740C8, size: 0x8, addend: 0x0, symName: __ZNSt3__16vectorIcNS_9allocatorIcEEE21_ConstructTransactionD2B7v160006Ev, symObjAddr: 0x8C78, symBinAddr: 0x10000C778, symSize: 0x20 }
  - { offsetInCU: 0x740F2, offset: 0x740F2, size: 0x8, addend: 0x0, symName: __ZNSt3__128__exception_guard_exceptionsINS_6vectorIcNS_9allocatorIcEEE16__destroy_vectorEED2B7v160006Ev, symObjAddr: 0x8C98, symBinAddr: 0x10000C798, symSize: 0x50 }
  - { offsetInCU: 0x7411C, offset: 0x7411C, size: 0x8, addend: 0x0, symName: __ZNSt3__16vectorIcNS_9allocatorIcEEE16__destroy_vectorclB7v160006Ev, symObjAddr: 0x8CE8, symBinAddr: 0x10000C7E8, symSize: 0x9C }
  - { offsetInCU: 0x74142, offset: 0x74142, size: 0x8, addend: 0x0, symName: __ZNKSt3__16vectorIcNS_9allocatorIcEEE17__annotate_deleteB7v160006Ev, symObjAddr: 0x8D84, symBinAddr: 0x10000C884, symSize: 0xB8 }
  - { offsetInCU: 0x74168, offset: 0x74168, size: 0x8, addend: 0x0, symName: __ZNSt3__16vectorIcNS_9allocatorIcEEE7__clearB7v160006Ev, symObjAddr: 0x8E4C, symBinAddr: 0x10000C94C, symSize: 0x28 }
  - { offsetInCU: 0x7418E, offset: 0x7418E, size: 0x8, addend: 0x0, symName: __ZNSt3__116allocator_traitsINS_9allocatorIcEEE10deallocateB7v160006ERS2_Pcm, symObjAddr: 0x8E74, symBinAddr: 0x10000C974, symSize: 0x34 }
  - { offsetInCU: 0x741D0, offset: 0x741D0, size: 0x8, addend: 0x0, symName: __ZNSt3__16vectorIcNS_9allocatorIcEEE22__base_destruct_at_endB7v160006EPc, symObjAddr: 0x8EA8, symBinAddr: 0x10000C9A8, symSize: 0x8C }
  - { offsetInCU: 0x74214, offset: 0x74214, size: 0x8, addend: 0x0, symName: __ZNSt3__19allocatorIcE10deallocateB7v160006EPcm, symObjAddr: 0x8F34, symBinAddr: 0x10000CA34, symSize: 0x40 }
  - { offsetInCU: 0x74256, offset: 0x74256, size: 0x8, addend: 0x0, symName: __ZNSt3__16vectorI5RouteNS_9allocatorIS1_EEED2B7v160006Ev, symObjAddr: 0x8F74, symBinAddr: 0x10000CA74, symSize: 0x44 }
  - { offsetInCU: 0x74280, offset: 0x74280, size: 0x8, addend: 0x0, symName: __ZNSt3__123__libcpp_numeric_limitsIdLb1EE3maxB7v160006Ev, symObjAddr: 0x8FB8, symBinAddr: 0x10000CAB8, symSize: 0xC }
  - { offsetInCU: 0x74294, offset: 0x74294, size: 0x8, addend: 0x0, symName: __ZNSt3__16vectorI4StopNS_9allocatorIS1_EEE6insertENS_11__wrap_iterIPKS1_EEOS1_, symObjAddr: 0x8FC4, symBinAddr: 0x10000CAC4, symSize: 0x1BC }
  - { offsetInCU: 0x7430E, offset: 0x7430E, size: 0x8, addend: 0x0, symName: __ZNSt3__16vectorI4StopNS_9allocatorIS1_EEE5beginB7v160006Ev, symObjAddr: 0x9180, symBinAddr: 0x10000CC80, symSize: 0x30 }
  - { offsetInCU: 0x74336, offset: 0x74336, size: 0x8, addend: 0x0, symName: __ZNKSt3__111__wrap_iterIP4StopEplB7v160006El, symObjAddr: 0x91B0, symBinAddr: 0x10000CCB0, symSize: 0x3C }
  - { offsetInCU: 0x74384, offset: 0x74384, size: 0x8, addend: 0x0, symName: __ZNSt3__111__wrap_iterIPK4StopEC1B7v160006IPS1_EERKNS0_IT_EEPNS_9enable_ifIXsr14is_convertibleIS7_S3_EE5valueEvE4typeE, symObjAddr: 0x91EC, symBinAddr: 0x10000CCEC, symSize: 0x3C }
  - { offsetInCU: 0x743D0, offset: 0x743D0, size: 0x8, addend: 0x0, symName: __ZN4StopC1EP4NodePK7Requestb, symObjAddr: 0x9228, symBinAddr: 0x10000CD28, symSize: 0x50 }
  - { offsetInCU: 0x74424, offset: 0x74424, size: 0x8, addend: 0x0, symName: __ZNSt3__16vectorI4StopNS_9allocatorIS1_EEE22__construct_one_at_endB7v160006IJS1_EEEvDpOT_, symObjAddr: 0x92C0, symBinAddr: 0x10000CDC0, symSize: 0x90 }
  - { offsetInCU: 0x74473, offset: 0x74473, size: 0x8, addend: 0x0, symName: __ZNSt3__16vectorI4StopNS_9allocatorIS1_EEE12__move_rangeEPS1_S5_S5_, symObjAddr: 0x9350, symBinAddr: 0x10000CE50, symSize: 0x13C }
  - { offsetInCU: 0x7452F, offset: 0x7452F, size: 0x8, addend: 0x0, symName: __ZNKSt3__16vectorI4StopNS_9allocatorIS1_EEE11__recommendB7v160006Em, symObjAddr: 0x948C, symBinAddr: 0x10000CF8C, symSize: 0xB4 }
  - { offsetInCU: 0x74584, offset: 0x74584, size: 0x8, addend: 0x0, symName: __ZNSt3__114__split_bufferI4StopRNS_9allocatorIS1_EEEC1EmmS4_, symObjAddr: 0x9540, symBinAddr: 0x10000D040, symSize: 0x44 }
  - { offsetInCU: 0x745DA, offset: 0x745DA, size: 0x8, addend: 0x0, symName: __ZNSt3__114__split_bufferI4StopRNS_9allocatorIS1_EEE9push_backEOS1_, symObjAddr: 0x9584, symBinAddr: 0x10000D084, symSize: 0x260 }
  - { offsetInCU: 0x74652, offset: 0x74652, size: 0x8, addend: 0x0, symName: __ZNSt3__114__split_bufferI4StopRNS_9allocatorIS1_EEED1Ev, symObjAddr: 0x9938, symBinAddr: 0x10000D438, symSize: 0x2C }
  - { offsetInCU: 0x7467E, offset: 0x7467E, size: 0x8, addend: 0x0, symName: __ZNSt3__16vectorI4StopNS_9allocatorIS1_EEE11__make_iterB7v160006EPS1_, symObjAddr: 0x9964, symBinAddr: 0x10000D464, symSize: 0x34 }
  - { offsetInCU: 0x746B3, offset: 0x746B3, size: 0x8, addend: 0x0, symName: __ZNKSt3__111__wrap_iterIPK4StopE4baseB7v160006Ev, symObjAddr: 0x9998, symBinAddr: 0x10000D498, symSize: 0x18 }
  - { offsetInCU: 0x746D9, offset: 0x746D9, size: 0x8, addend: 0x0, symName: __ZNKSt3__111__wrap_iterIP4StopE4baseB7v160006Ev, symObjAddr: 0x99B0, symBinAddr: 0x10000D4B0, symSize: 0x18 }
  - { offsetInCU: 0x746FF, offset: 0x746FF, size: 0x8, addend: 0x0, symName: __ZNSt3__116allocator_traitsINS_9allocatorI4StopEEE9constructB7v160006IS2_JS2_EvEEvRS3_PT_DpOT0_, symObjAddr: 0x99C8, symBinAddr: 0x10000D4C8, symSize: 0x34 }
  - { offsetInCU: 0x74756, offset: 0x74756, size: 0x8, addend: 0x0, symName: __ZNSt3__19allocatorI4StopE9constructB7v160006IS1_JS1_EEEvPT_DpOT0_, symObjAddr: 0x99FC, symBinAddr: 0x10000D4FC, symSize: 0x30 }
  - { offsetInCU: 0x747D4, offset: 0x747D4, size: 0x8, addend: 0x0, symName: __ZNKSt3__123__move_backward_trivialclB7v160006I4StopS2_Li0EEENS_4pairIPT_PT0_EES5_S5_S7_, symObjAddr: 0x9C08, symBinAddr: 0x10000D708, symSize: 0x48 }
  - { offsetInCU: 0x74842, offset: 0x74842, size: 0x8, addend: 0x0, symName: __ZNSt3__14pairIP4StopS2_EC1B7v160006IRS2_S5_LPv0EEEOT_OT0_, symObjAddr: 0x9DE0, symBinAddr: 0x10000D8E0, symSize: 0x3C }
  - { offsetInCU: 0x748A0, offset: 0x748A0, size: 0x8, addend: 0x0, symName: __ZNSt3__14pairIP4StopS2_EC2B7v160006IRS2_S5_LPv0EEEOT_OT0_, symObjAddr: 0x9E1C, symBinAddr: 0x10000D91C, symSize: 0x34 }
  - { offsetInCU: 0x748FE, offset: 0x748FE, size: 0x8, addend: 0x0, symName: __ZNSt3__118__unwrap_iter_implIP4StopLb1EE8__unwrapB7v160006ES2_, symObjAddr: 0x9E50, symBinAddr: 0x10000D950, symSize: 0x24 }
  - { offsetInCU: 0x74929, offset: 0x74929, size: 0x8, addend: 0x0, symName: __ZNSt3__14pairIP4StopS2_EC1B7v160006IS2_S2_LPv0EEEOT_OT0_, symObjAddr: 0x9E74, symBinAddr: 0x10000D974, symSize: 0x3C }
  - { offsetInCU: 0x74987, offset: 0x74987, size: 0x8, addend: 0x0, symName: __ZNSt3__14pairIP4StopS2_EC2B7v160006IS2_S2_LPv0EEEOT_OT0_, symObjAddr: 0x9EB0, symBinAddr: 0x10000D9B0, symSize: 0x34 }
  - { offsetInCU: 0x749E5, offset: 0x749E5, size: 0x8, addend: 0x0, symName: __ZNSt3__118__unwrap_iter_implIP4StopLb1EE8__rewrapB7v160006ES2_S2_, symObjAddr: 0x9EE4, symBinAddr: 0x10000D9E4, symSize: 0x58 }
  - { offsetInCU: 0x74A1A, offset: 0x74A1A, size: 0x8, addend: 0x0, symName: __ZNSt3__114__split_bufferI4StopRNS_9allocatorIS1_EEEC2EmmS4_, symObjAddr: 0x9F3C, symBinAddr: 0x10000DA3C, symSize: 0xE0 }
  - { offsetInCU: 0x74A8D, offset: 0x74A8D, size: 0x8, addend: 0x0, symName: __ZNSt3__117__compressed_pairIP4StopRNS_9allocatorIS1_EEEC1B7v160006IDnS5_EEOT_OT0_, symObjAddr: 0xA01C, symBinAddr: 0x10000DB1C, symSize: 0x3C }
  - { offsetInCU: 0x74AE5, offset: 0x74AE5, size: 0x8, addend: 0x0, symName: __ZNSt3__114__split_bufferI4StopRNS_9allocatorIS1_EEE7__allocB7v160006Ev, symObjAddr: 0xA058, symBinAddr: 0x10000DB58, symSize: 0x28 }
  - { offsetInCU: 0x74B0B, offset: 0x74B0B, size: 0x8, addend: 0x0, symName: __ZNSt3__114__split_bufferI4StopRNS_9allocatorIS1_EEE9__end_capB7v160006Ev, symObjAddr: 0xA080, symBinAddr: 0x10000DB80, symSize: 0x28 }
  - { offsetInCU: 0x74B31, offset: 0x74B31, size: 0x8, addend: 0x0, symName: __ZNSt3__117__compressed_pairIP4StopRNS_9allocatorIS1_EEEC2B7v160006IDnS5_EEOT_OT0_, symObjAddr: 0xA0A8, symBinAddr: 0x10000DBA8, symSize: 0x48 }
  - { offsetInCU: 0x74B89, offset: 0x74B89, size: 0x8, addend: 0x0, symName: __ZNSt3__122__compressed_pair_elemIRNS_9allocatorI4StopEELi1ELb0EEC2B7v160006IS4_vEEOT_, symObjAddr: 0xA0F0, symBinAddr: 0x10000DBF0, symSize: 0x20 }
  - { offsetInCU: 0x74BCB, offset: 0x74BCB, size: 0x8, addend: 0x0, symName: __ZNSt3__117__compressed_pairIP4StopRNS_9allocatorIS1_EEE6secondB7v160006Ev, symObjAddr: 0xA110, symBinAddr: 0x10000DC10, symSize: 0x28 }
  - { offsetInCU: 0x74BF1, offset: 0x74BF1, size: 0x8, addend: 0x0, symName: __ZNSt3__122__compressed_pair_elemIRNS_9allocatorI4StopEELi1ELb0EE5__getB7v160006Ev, symObjAddr: 0xA138, symBinAddr: 0x10000DC38, symSize: 0x18 }
  - { offsetInCU: 0x74C17, offset: 0x74C17, size: 0x8, addend: 0x0, symName: __ZNSt3__117__compressed_pairIP4StopRNS_9allocatorIS1_EEE5firstB7v160006Ev, symObjAddr: 0xA150, symBinAddr: 0x10000DC50, symSize: 0x24 }
  - { offsetInCU: 0x74C3D, offset: 0x74C3D, size: 0x8, addend: 0x0, symName: __ZNSt3__114__split_bufferI4StopRNS_9allocatorIS1_EEE18__construct_at_endINS_13move_iteratorIPS1_EEEENS_9enable_ifIXsr27__is_cpp17_forward_iteratorIT_EE5valueEvE4typeESB_SB_, symObjAddr: 0xA1B4, symBinAddr: 0x10000DCB4, symSize: 0xFC }
  - { offsetInCU: 0x74C99, offset: 0x74C99, size: 0x8, addend: 0x0, symName: __ZNSt3__113move_iteratorIP4StopEC1B7v160006ES2_, symObjAddr: 0xA2B0, symBinAddr: 0x10000DDB0, symSize: 0x34 }
  - { offsetInCU: 0x74CDC, offset: 0x74CDC, size: 0x8, addend: 0x0, symName: __ZNKSt3__114__move_trivialclB7v160006I4StopS2_Li0EEENS_4pairIPT_PT0_EES5_S5_S7_, symObjAddr: 0xA45C, symBinAddr: 0x10000DF5C, symSize: 0x48 }
  - { offsetInCU: 0x74D4A, offset: 0x74D4A, size: 0x8, addend: 0x0, symName: __ZNSt3__14pairIP4StopS2_EC1B7v160006IRS2_S2_LPv0EEEOT_OT0_, symObjAddr: 0xA568, symBinAddr: 0x10000E068, symSize: 0x3C }
  - { offsetInCU: 0x74DA8, offset: 0x74DA8, size: 0x8, addend: 0x0, symName: __ZNSt3__14pairIP4StopS2_EC2B7v160006IRS2_S2_LPv0EEEOT_OT0_, symObjAddr: 0xA5A4, symBinAddr: 0x10000E0A4, symSize: 0x34 }
  - { offsetInCU: 0x74E12, offset: 0x74E12, size: 0x8, addend: 0x0, symName: __ZNSt3__114__split_bufferI4StopRNS_9allocatorIS1_EEE21_ConstructTransactionC1B7v160006EPPS1_m, symObjAddr: 0xA614, symBinAddr: 0x10000E114, symSize: 0x3C }
  - { offsetInCU: 0x74E58, offset: 0x74E58, size: 0x8, addend: 0x0, symName: __ZNKSt3__113move_iteratorIP4StopEdeB7v160006Ev, symObjAddr: 0xA650, symBinAddr: 0x10000E150, symSize: 0x18 }
  - { offsetInCU: 0x74E7E, offset: 0x74E7E, size: 0x8, addend: 0x0, symName: __ZNSt3__113move_iteratorIP4StopEppB7v160006Ev, symObjAddr: 0xA668, symBinAddr: 0x10000E168, symSize: 0x20 }
  - { offsetInCU: 0x74EA4, offset: 0x74EA4, size: 0x8, addend: 0x0, symName: __ZNSt3__114__split_bufferI4StopRNS_9allocatorIS1_EEE21_ConstructTransactionD1B7v160006Ev, symObjAddr: 0xA688, symBinAddr: 0x10000E188, symSize: 0x2C }
  - { offsetInCU: 0x74ECE, offset: 0x74ECE, size: 0x8, addend: 0x0, symName: __ZNKSt3__113move_iteratorIP4StopE4baseB7v160006Ev, symObjAddr: 0xA72C, symBinAddr: 0x10000E22C, symSize: 0x18 }
  - { offsetInCU: 0x74EF4, offset: 0x74EF4, size: 0x8, addend: 0x0, symName: __ZNSt3__114__split_bufferI4StopRNS_9allocatorIS1_EEE21_ConstructTransactionC2B7v160006EPPS1_m, symObjAddr: 0xA744, symBinAddr: 0x10000E244, symSize: 0x4C }
  - { offsetInCU: 0x74F3A, offset: 0x74F3A, size: 0x8, addend: 0x0, symName: __ZNSt3__114__split_bufferI4StopRNS_9allocatorIS1_EEE21_ConstructTransactionD2B7v160006Ev, symObjAddr: 0xA790, symBinAddr: 0x10000E290, symSize: 0x20 }
  - { offsetInCU: 0x74F64, offset: 0x74F64, size: 0x8, addend: 0x0, symName: __ZNSt3__113move_iteratorIP4StopEC2B7v160006ES2_, symObjAddr: 0xA7B0, symBinAddr: 0x10000E2B0, symSize: 0x20 }
  - { offsetInCU: 0x74FC4, offset: 0x74FC4, size: 0x8, addend: 0x0, symName: __ZNKSt3__111__move_loopINS_17_ClassicAlgPolicyEEclB7v160006INS_16reverse_iteratorIP4StopEES7_S7_EENS_4pairIT_T1_EES9_T0_SA_, symObjAddr: 0xAB80, symBinAddr: 0x10000E680, symSize: 0xA8 }
  - { offsetInCU: 0x75035, offset: 0x75035, size: 0x8, addend: 0x0, symName: __ZNSt3__18_IterOpsINS_17_ClassicAlgPolicyEE11__iter_moveB7v160006IRNS_16reverse_iteratorIP4StopEEEENS_9enable_ifIXsr12is_referenceIDTdeclsr3stdE7declvalIRT_EEEEE5valueEDTclsr3stdE4movedeclsr3stdE7declvalISB_EEEEE4typeEOSA_, symObjAddr: 0xAD74, symBinAddr: 0x10000E874, symSize: 0x28 }
  - { offsetInCU: 0x75063, offset: 0x75063, size: 0x8, addend: 0x0, symName: __ZNSt3__18_IterOpsINS_17_ClassicAlgPolicyEE25__validate_iter_referenceB7v160006IRNS_16reverse_iteratorIP4StopEEEEvv, symObjAddr: 0xAD9C, symBinAddr: 0x10000E89C, symSize: 0x4 }
  - { offsetInCU: 0x75081, offset: 0x75081, size: 0x8, addend: 0x0, symName: __ZNSt3__118__unwrap_iter_implINS_16reverse_iteratorIP4StopEELb0EE8__unwrapB7v160006ES4_, symObjAddr: 0xADA0, symBinAddr: 0x10000E8A0, symSize: 0x24 }
  - { offsetInCU: 0x750AC, offset: 0x750AC, size: 0x8, addend: 0x0, symName: __ZNSt3__14pairINS_16reverse_iteratorIP4StopEES4_EC1B7v160006IS4_S4_LPv0EEEOT_OT0_, symObjAddr: 0xADC4, symBinAddr: 0x10000E8C4, symSize: 0x3C }
  - { offsetInCU: 0x7510A, offset: 0x7510A, size: 0x8, addend: 0x0, symName: __ZNSt3__14pairINS_16reverse_iteratorIP4StopEES4_EC2B7v160006IS4_S4_LPv0EEEOT_OT0_, symObjAddr: 0xAE00, symBinAddr: 0x10000E900, symSize: 0x34 }
  - { offsetInCU: 0x75168, offset: 0x75168, size: 0x8, addend: 0x0, symName: __ZNSt3__118__unwrap_iter_implINS_16reverse_iteratorIP4StopEELb0EE8__rewrapB7v160006ES4_S4_, symObjAddr: 0xAE34, symBinAddr: 0x10000E934, symSize: 0x2C }
  - { offsetInCU: 0x75199, offset: 0x75199, size: 0x8, addend: 0x0, symName: __ZNSt3__114__split_bufferI4StopRNS_9allocatorIS1_EEED2Ev, symObjAddr: 0xAE60, symBinAddr: 0x10000E960, symSize: 0x8C }
  - { offsetInCU: 0x751C5, offset: 0x751C5, size: 0x8, addend: 0x0, symName: __ZNSt3__114__split_bufferI4StopRNS_9allocatorIS1_EEE5clearB7v160006Ev, symObjAddr: 0xAEEC, symBinAddr: 0x10000E9EC, symSize: 0x28 }
  - { offsetInCU: 0x751EB, offset: 0x751EB, size: 0x8, addend: 0x0, symName: __ZNKSt3__114__split_bufferI4StopRNS_9allocatorIS1_EEE8capacityB7v160006Ev, symObjAddr: 0xAF14, symBinAddr: 0x10000EA14, symSize: 0x40 }
  - { offsetInCU: 0x75211, offset: 0x75211, size: 0x8, addend: 0x0, symName: __ZNSt3__114__split_bufferI4StopRNS_9allocatorIS1_EEE17__destruct_at_endB7v160006EPS1_, symObjAddr: 0xAF54, symBinAddr: 0x10000EA54, symSize: 0x2C }
  - { offsetInCU: 0x75245, offset: 0x75245, size: 0x8, addend: 0x0, symName: __ZNSt3__114__split_bufferI4StopRNS_9allocatorIS1_EEE17__destruct_at_endB7v160006EPS1_NS_17integral_constantIbLb0EEE, symObjAddr: 0xAF80, symBinAddr: 0x10000EA80, symSize: 0x80 }
  - { offsetInCU: 0x75286, offset: 0x75286, size: 0x8, addend: 0x0, symName: __ZNKSt3__114__split_bufferI4StopRNS_9allocatorIS1_EEE9__end_capB7v160006Ev, symObjAddr: 0xB000, symBinAddr: 0x10000EB00, symSize: 0x28 }
  - { offsetInCU: 0x752AC, offset: 0x752AC, size: 0x8, addend: 0x0, symName: __ZNKSt3__117__compressed_pairIP4StopRNS_9allocatorIS1_EEE5firstB7v160006Ev, symObjAddr: 0xB028, symBinAddr: 0x10000EB28, symSize: 0x24 }
  - { offsetInCU: 0x752D2, offset: 0x752D2, size: 0x8, addend: 0x0, symName: __ZNSt3__111__wrap_iterIP4StopEC1B7v160006EPKvS2_, symObjAddr: 0xB04C, symBinAddr: 0x10000EB4C, symSize: 0x3C }
  - { offsetInCU: 0x75318, offset: 0x75318, size: 0x8, addend: 0x0, symName: __ZNSt3__111__wrap_iterIP4StopEC2B7v160006EPKvS2_, symObjAddr: 0xB088, symBinAddr: 0x10000EB88, symSize: 0x24 }
  - { offsetInCU: 0x7535E, offset: 0x7535E, size: 0x8, addend: 0x0, symName: __ZNSt3__111__wrap_iterIP4StopEpLB7v160006El, symObjAddr: 0xB0AC, symBinAddr: 0x10000EBAC, symSize: 0x30 }
  - { offsetInCU: 0x75392, offset: 0x75392, size: 0x8, addend: 0x0, symName: __ZNSt3__111__wrap_iterIPK4StopEC2B7v160006IPS1_EERKNS0_IT_EEPNS_9enable_ifIXsr14is_convertibleIS7_S3_EE5valueEvE4typeE, symObjAddr: 0xB0DC, symBinAddr: 0x10000EBDC, symSize: 0x40 }
  - { offsetInCU: 0x753DE, offset: 0x753DE, size: 0x8, addend: 0x0, symName: __ZN4StopC2EP4NodePK7Requestb, symObjAddr: 0xB11C, symBinAddr: 0x10000EC1C, symSize: 0x44 }
  - { offsetInCU: 0x75432, offset: 0x75432, size: 0x8, addend: 0x0, symName: __ZNSt3__16vectorI5RouteNS_9allocatorIS1_EEEaSB7v160006ERKS4_, symObjAddr: 0xB160, symBinAddr: 0x10000EC60, symSize: 0x68 }
  - { offsetInCU: 0x75469, offset: 0x75469, size: 0x8, addend: 0x0, symName: __ZNSt3__16vectorIcNS_9allocatorIcEEEaSB7v160006ERKS3_, symObjAddr: 0xB1C8, symBinAddr: 0x10000ECC8, symSize: 0x68 }
  - { offsetInCU: 0x754A0, offset: 0x754A0, size: 0x8, addend: 0x0, symName: __ZNSt3__16vectorI5RouteNS_9allocatorIS1_EEE19__copy_assign_allocB7v160006ERKS4_, symObjAddr: 0xB230, symBinAddr: 0x10000ED30, symSize: 0x2C }
  - { offsetInCU: 0x754D5, offset: 0x754D5, size: 0x8, addend: 0x0, symName: __ZNSt3__16vectorI5RouteNS_9allocatorIS1_EEE6assignIPS1_Li0EEEvT_S7_, symObjAddr: 0xB25C, symBinAddr: 0x10000ED5C, symSize: 0x17C }
  - { offsetInCU: 0x75574, offset: 0x75574, size: 0x8, addend: 0x0, symName: __ZNSt3__16vectorI5RouteNS_9allocatorIS1_EEE19__copy_assign_allocB7v160006ERKS4_NS_17integral_constantIbLb0EEE, symObjAddr: 0xB3D8, symBinAddr: 0x10000EED8, symSize: 0x14 }
  - { offsetInCU: 0x755B2, offset: 0x755B2, size: 0x8, addend: 0x0, symName: __ZNSt3__16vectorI5RouteNS_9allocatorIS1_EEE17__destruct_at_endB7v160006EPS1_, symObjAddr: 0xB4A8, symBinAddr: 0x10000EFA8, symSize: 0x60 }
  - { offsetInCU: 0x755F6, offset: 0x755F6, size: 0x8, addend: 0x0, symName: __ZNSt3__16vectorI5RouteNS_9allocatorIS1_EEE13__vdeallocateEv, symObjAddr: 0xB508, symBinAddr: 0x10000F008, symSize: 0x8C }
  - { offsetInCU: 0x7561E, offset: 0x7561E, size: 0x8, addend: 0x0, symName: __ZNKSt3__16vectorI5RouteNS_9allocatorIS1_EEE11__recommendB7v160006Em, symObjAddr: 0xB594, symBinAddr: 0x10000F094, symSize: 0xB4 }
  - { offsetInCU: 0x7569B, offset: 0x7569B, size: 0x8, addend: 0x0, symName: __ZNKSt3__111__copy_loopINS_17_ClassicAlgPolicyEEclB7v160006IP5RouteS5_S5_EENS_4pairIT_T1_EES7_T0_S8_, symObjAddr: 0xB844, symBinAddr: 0x10000F344, symSize: 0x88 }
  - { offsetInCU: 0x75706, offset: 0x75706, size: 0x8, addend: 0x0, symName: __ZN5RouteaSERKS_, symObjAddr: 0xB990, symBinAddr: 0x10000F490, symSize: 0x48 }
  - { offsetInCU: 0x75737, offset: 0x75737, size: 0x8, addend: 0x0, symName: __ZNSt3__16vectorI4StopNS_9allocatorIS1_EEEaSB7v160006ERKS4_, symObjAddr: 0xB9D8, symBinAddr: 0x10000F4D8, symSize: 0x68 }
  - { offsetInCU: 0x7576E, offset: 0x7576E, size: 0x8, addend: 0x0, symName: __ZNSt3__16vectorI4StopNS_9allocatorIS1_EEE19__copy_assign_allocB7v160006ERKS4_, symObjAddr: 0xBA40, symBinAddr: 0x10000F540, symSize: 0x2C }
  - { offsetInCU: 0x757A3, offset: 0x757A3, size: 0x8, addend: 0x0, symName: __ZNSt3__16vectorI4StopNS_9allocatorIS1_EEE6assignIPS1_Li0EEEvT_S7_, symObjAddr: 0xBA6C, symBinAddr: 0x10000F56C, symSize: 0x17C }
  - { offsetInCU: 0x75842, offset: 0x75842, size: 0x8, addend: 0x0, symName: __ZNSt3__16vectorI4StopNS_9allocatorIS1_EEE19__copy_assign_allocB7v160006ERKS4_NS_17integral_constantIbLb0EEE, symObjAddr: 0xBBE8, symBinAddr: 0x10000F6E8, symSize: 0x14 }
  - { offsetInCU: 0x75880, offset: 0x75880, size: 0x8, addend: 0x0, symName: __ZNSt3__16vectorI4StopNS_9allocatorIS1_EEE17__destruct_at_endB7v160006EPS1_, symObjAddr: 0xBCB8, symBinAddr: 0x10000F7B8, symSize: 0x60 }
  - { offsetInCU: 0x758C4, offset: 0x758C4, size: 0x8, addend: 0x0, symName: __ZNSt3__16vectorI4StopNS_9allocatorIS1_EEE13__vdeallocateEv, symObjAddr: 0xBD18, symBinAddr: 0x10000F818, symSize: 0x8C }
  - { offsetInCU: 0x758EC, offset: 0x758EC, size: 0x8, addend: 0x0, symName: __ZNKSt3__114__copy_trivialclB7v160006I4StopS2_Li0EEENS_4pairIPT_PT0_EES5_S5_S7_, symObjAddr: 0xBF38, symBinAddr: 0x10000FA38, symSize: 0x48 }
  - { offsetInCU: 0x75954, offset: 0x75954, size: 0x8, addend: 0x0, symName: __ZNSt3__16vectorI4StopNS_9allocatorIS1_EEE27__invalidate_iterators_pastB7v160006EPS1_, symObjAddr: 0xBF80, symBinAddr: 0x10000FA80, symSize: 0x14 }
  - { offsetInCU: 0x7598B, offset: 0x7598B, size: 0x8, addend: 0x0, symName: __ZNKSt3__16vectorI4StopNS_9allocatorIS1_EEE17__annotate_shrinkB7v160006Em, symObjAddr: 0xBF94, symBinAddr: 0x10000FA94, symSize: 0xD0 }
  - { offsetInCU: 0x759C0, offset: 0x759C0, size: 0x8, addend: 0x0, symName: __ZNSt3__16vectorI4StopNS_9allocatorIS1_EEE5clearB7v160006Ev, symObjAddr: 0xC064, symBinAddr: 0x10000FB64, symSize: 0x4C }
  - { offsetInCU: 0x759F5, offset: 0x759F5, size: 0x8, addend: 0x0, symName: __ZNSt3__118__unwrap_iter_implIP5RouteLb1EE8__unwrapB7v160006ES2_, symObjAddr: 0xC0B0, symBinAddr: 0x10000FBB0, symSize: 0x24 }
  - { offsetInCU: 0x75A20, offset: 0x75A20, size: 0x8, addend: 0x0, symName: __ZNSt3__14pairIP5RouteS2_EC1B7v160006IS2_S2_LPv0EEEOT_OT0_, symObjAddr: 0xC0D4, symBinAddr: 0x10000FBD4, symSize: 0x3C }
  - { offsetInCU: 0x75A7E, offset: 0x75A7E, size: 0x8, addend: 0x0, symName: __ZNSt3__14pairIP5RouteS2_EC2B7v160006IS2_S2_LPv0EEEOT_OT0_, symObjAddr: 0xC110, symBinAddr: 0x10000FC10, symSize: 0x34 }
  - { offsetInCU: 0x75ADC, offset: 0x75ADC, size: 0x8, addend: 0x0, symName: __ZNSt3__118__unwrap_iter_implIP5RouteLb1EE8__rewrapB7v160006ES2_S2_, symObjAddr: 0xC144, symBinAddr: 0x10000FC44, symSize: 0x50 }
  - { offsetInCU: 0x75B11, offset: 0x75B11, size: 0x8, addend: 0x0, symName: __ZNSt3__16vectorI5RouteNS_9allocatorIS1_EEE27__invalidate_iterators_pastB7v160006EPS1_, symObjAddr: 0xC194, symBinAddr: 0x10000FC94, symSize: 0x14 }
  - { offsetInCU: 0x75B48, offset: 0x75B48, size: 0x8, addend: 0x0, symName: __ZNKSt3__16vectorI5RouteNS_9allocatorIS1_EEE17__annotate_shrinkB7v160006Em, symObjAddr: 0xC1A8, symBinAddr: 0x10000FCA8, symSize: 0xB4 }
  - { offsetInCU: 0x75B7D, offset: 0x75B7D, size: 0x8, addend: 0x0, symName: __ZNSt3__16vectorI5RouteNS_9allocatorIS1_EEE5clearB7v160006Ev, symObjAddr: 0xC25C, symBinAddr: 0x10000FD5C, symSize: 0x54 }
  - { offsetInCU: 0x75BB2, offset: 0x75BB2, size: 0x8, addend: 0x0, symName: __ZNSt3__16vectorIcNS_9allocatorIcEEE19__copy_assign_allocB7v160006ERKS3_, symObjAddr: 0xC2B0, symBinAddr: 0x10000FDB0, symSize: 0x2C }
  - { offsetInCU: 0x75BE7, offset: 0x75BE7, size: 0x8, addend: 0x0, symName: __ZNSt3__16vectorIcNS_9allocatorIcEEE6assignIPcLi0EEEvT_S6_, symObjAddr: 0xC2DC, symBinAddr: 0x10000FDDC, symSize: 0x17C }
  - { offsetInCU: 0x75C86, offset: 0x75C86, size: 0x8, addend: 0x0, symName: __ZNSt3__16vectorIcNS_9allocatorIcEEE19__copy_assign_allocB7v160006ERKS3_NS_17integral_constantIbLb0EEE, symObjAddr: 0xC458, symBinAddr: 0x10000FF58, symSize: 0x14 }
  - { offsetInCU: 0x75CC4, offset: 0x75CC4, size: 0x8, addend: 0x0, symName: __ZNSt3__16vectorIcNS_9allocatorIcEEE17__destruct_at_endB7v160006EPc, symObjAddr: 0xC528, symBinAddr: 0x100010028, symSize: 0x60 }
  - { offsetInCU: 0x75D08, offset: 0x75D08, size: 0x8, addend: 0x0, symName: __ZNSt3__16vectorIcNS_9allocatorIcEEE13__vdeallocateEv, symObjAddr: 0xC588, symBinAddr: 0x100010088, symSize: 0x8C }
  - { offsetInCU: 0x75D30, offset: 0x75D30, size: 0x8, addend: 0x0, symName: __ZNKSt3__16vectorIcNS_9allocatorIcEEE11__recommendB7v160006Em, symObjAddr: 0xC614, symBinAddr: 0x100010114, symSize: 0xB4 }
  - { offsetInCU: 0x75DA2, offset: 0x75DA2, size: 0x8, addend: 0x0, symName: __ZNKSt3__114__copy_trivialclB7v160006IccLi0EEENS_4pairIPT_PT0_EES4_S4_S6_, symObjAddr: 0xC8BC, symBinAddr: 0x1000103BC, symSize: 0x48 }
  - { offsetInCU: 0x75E10, offset: 0x75E10, size: 0x8, addend: 0x0, symName: __ZNSt3__14pairIPcS1_EC1B7v160006IRS1_S1_LPv0EEEOT_OT0_, symObjAddr: 0xCA7C, symBinAddr: 0x10001057C, symSize: 0x3C }
  - { offsetInCU: 0x75E6E, offset: 0x75E6E, size: 0x8, addend: 0x0, symName: __ZNSt3__14pairIPcS1_EC2B7v160006IRS1_S1_LPv0EEEOT_OT0_, symObjAddr: 0xCAB8, symBinAddr: 0x1000105B8, symSize: 0x34 }
  - { offsetInCU: 0x75ECC, offset: 0x75ECC, size: 0x8, addend: 0x0, symName: __ZNSt3__118__unwrap_iter_implIPcLb1EE8__unwrapB7v160006ES1_, symObjAddr: 0xCAEC, symBinAddr: 0x1000105EC, symSize: 0x24 }
  - { offsetInCU: 0x75EF1, offset: 0x75EF1, size: 0x8, addend: 0x0, symName: __ZNSt3__14pairIPcS1_EC1B7v160006IS1_S1_LPv0EEEOT_OT0_, symObjAddr: 0xCB10, symBinAddr: 0x100010610, symSize: 0x3C }
  - { offsetInCU: 0x75F4F, offset: 0x75F4F, size: 0x8, addend: 0x0, symName: __ZNSt3__14pairIPcS1_EC2B7v160006IS1_S1_LPv0EEEOT_OT0_, symObjAddr: 0xCB4C, symBinAddr: 0x10001064C, symSize: 0x34 }
  - { offsetInCU: 0x75FAD, offset: 0x75FAD, size: 0x8, addend: 0x0, symName: __ZNSt3__118__unwrap_iter_implIPcLb1EE8__rewrapB7v160006ES1_S1_, symObjAddr: 0xCB80, symBinAddr: 0x100010680, symSize: 0x48 }
  - { offsetInCU: 0x75FE2, offset: 0x75FE2, size: 0x8, addend: 0x0, symName: __ZNSt3__16vectorIcNS_9allocatorIcEEE27__invalidate_iterators_pastB7v160006EPc, symObjAddr: 0xCBC8, symBinAddr: 0x1000106C8, symSize: 0x14 }
  - { offsetInCU: 0x76019, offset: 0x76019, size: 0x8, addend: 0x0, symName: __ZNKSt3__16vectorIcNS_9allocatorIcEEE17__annotate_shrinkB7v160006Em, symObjAddr: 0xCBDC, symBinAddr: 0x1000106DC, symSize: 0xB4 }
  - { offsetInCU: 0x7604E, offset: 0x7604E, size: 0x8, addend: 0x0, symName: __ZNSt3__16vectorIcNS_9allocatorIcEEE5clearB7v160006Ev, symObjAddr: 0xCC90, symBinAddr: 0x100010790, symSize: 0x54 }
  - { offsetInCU: 0x76083, offset: 0x76083, size: 0x8, addend: 0x0, symName: __ZNKSt3__16vectorI5RouteNS_9allocatorIS1_EEEixB7v160006Em, symObjAddr: 0xCCE4, symBinAddr: 0x1000107E4, symSize: 0x24 }
  - { offsetInCU: 0x760BA, offset: 0x760BA, size: 0x8, addend: 0x0, symName: __ZNK5Route14calculate_costEv, symObjAddr: 0xCD08, symBinAddr: 0x100010808, symSize: 0xD8 }
  - { offsetInCU: 0x7610A, offset: 0x7610A, size: 0x8, addend: 0x0, symName: __ZNKSt3__16vectorIcNS_9allocatorIcEEEixB7v160006Em, symObjAddr: 0xCDE0, symBinAddr: 0x1000108E0, symSize: 0x24 }
  - { offsetInCU: 0x76141, offset: 0x76141, size: 0x8, addend: 0x0, symName: __ZNK15PDPTWT_solution11is_feasibleEv, symObjAddr: 0xCE04, symBinAddr: 0x100010904, symSize: 0xEC }
  - { offsetInCU: 0x76167, offset: 0x76167, size: 0x8, addend: 0x0, symName: __ZNK6PDPTWT12get_distanceEP4NodeS1_, symObjAddr: 0xCEF0, symBinAddr: 0x1000109F0, symSize: 0x40 }
  - { offsetInCU: 0x761A9, offset: 0x761A9, size: 0x8, addend: 0x0, symName: __ZNKSt3__16vectorI4StopNS_9allocatorIS1_EEEixB7v160006Em, symObjAddr: 0xCF30, symBinAddr: 0x100010A30, symSize: 0x2C }
  - { offsetInCU: 0x761E0, offset: 0x761E0, size: 0x8, addend: 0x0, symName: __ZNK15PDPTWT_solution13_timing_checkEv, symObjAddr: 0xCF5C, symBinAddr: 0x100010A5C, symSize: 0xBC }
  - { offsetInCU: 0x76222, offset: 0x76222, size: 0x8, addend: 0x0, symName: __ZNK15PDPTWT_solution16_structure_checkEv, symObjAddr: 0xD018, symBinAddr: 0x100010B18, symSize: 0x130 }
  - { offsetInCU: 0x76264, offset: 0x76264, size: 0x8, addend: 0x0, symName: __ZNK15PDPTWT_solution17_precedence_checkEv, symObjAddr: 0xD148, symBinAddr: 0x100010C48, symSize: 0x44C }
  - { offsetInCU: 0x76365, offset: 0x76365, size: 0x8, addend: 0x0, symName: __ZNK15PDPTWT_solution15_capacity_checkEv, symObjAddr: 0xD594, symBinAddr: 0x100011094, symSize: 0x1A4 }
  - { offsetInCU: 0x763E3, offset: 0x763E3, size: 0x8, addend: 0x0, symName: __ZNK5Route12check_timingEv, symObjAddr: 0xD738, symBinAddr: 0x100011238, symSize: 0x184 }
  - { offsetInCU: 0x76433, offset: 0x76433, size: 0x8, addend: 0x0, symName: __ZNKSt3__16vectorI4StopNS_9allocatorIS1_EEE5frontB7v160006Ev, symObjAddr: 0xD8BC, symBinAddr: 0x1000113BC, symSize: 0x18 }
  - { offsetInCU: 0x76459, offset: 0x76459, size: 0x8, addend: 0x0, symName: __ZNKSt3__16vectorI4StopNS_9allocatorIS1_EEE4backB7v160006Ev, symObjAddr: 0xD8D4, symBinAddr: 0x1000113D4, symSize: 0x1C }
  - { offsetInCU: 0x7647F, offset: 0x7647F, size: 0x8, addend: 0x0, symName: __ZNSt3__16vectorI4StopNS_9allocatorIS1_EEEixB7v160006Em, symObjAddr: 0xD8F0, symBinAddr: 0x1000113F0, symSize: 0x2C }
  - { offsetInCU: 0x764B6, offset: 0x764B6, size: 0x8, addend: 0x0, symName: __ZNK5Route16get_arrival_timeERK4Stop, symObjAddr: 0xD91C, symBinAddr: 0x10001141C, symSize: 0x174 }
  - { offsetInCU: 0x76514, offset: 0x76514, size: 0x8, addend: 0x0, symName: __ZNK4StopeqES_, symObjAddr: 0xDA90, symBinAddr: 0x100011590, symSize: 0xB4 }
  - { offsetInCU: 0x76549, offset: 0x76549, size: 0x8, addend: 0x0, symName: __ZN4Stop15get_load_changeEv, symObjAddr: 0xDB44, symBinAddr: 0x100011644, symSize: 0x84 }
  - { offsetInCU: 0x7656F, offset: 0x7656F, size: 0x8, addend: 0x0, symName: __ZNSt3__16vectorI4StopNS_9allocatorIS1_EEE5eraseB7v160006ENS_11__wrap_iterIPKS1_EE, symObjAddr: 0xDBC8, symBinAddr: 0x1000116C8, symSize: 0xAC }
  - { offsetInCU: 0x765C4, offset: 0x765C4, size: 0x8, addend: 0x0, symName: __ZNKSt3__16vectorI4StopNS_9allocatorIS1_EEE6cbeginB7v160006Ev, symObjAddr: 0xDCBC, symBinAddr: 0x1000117BC, symSize: 0x2C }
  - { offsetInCU: 0x765EA, offset: 0x765EA, size: 0x8, addend: 0x0, symName: __ZNKSt3__16vectorI4StopNS_9allocatorIS1_EEE5beginB7v160006Ev, symObjAddr: 0xDCE8, symBinAddr: 0x1000117E8, symSize: 0x30 }
  - { offsetInCU: 0x76612, offset: 0x76612, size: 0x8, addend: 0x0, symName: __ZNKSt3__16vectorI4StopNS_9allocatorIS1_EEE11__make_iterB7v160006EPKS1_, symObjAddr: 0xDD18, symBinAddr: 0x100011818, symSize: 0x34 }
  - { offsetInCU: 0x76647, offset: 0x76647, size: 0x8, addend: 0x0, symName: __ZNSt3__111__wrap_iterIPK4StopEC1B7v160006EPKvS3_, symObjAddr: 0xDD4C, symBinAddr: 0x10001184C, symSize: 0x3C }
  - { offsetInCU: 0x7668D, offset: 0x7668D, size: 0x8, addend: 0x0, symName: __ZNSt3__111__wrap_iterIPK4StopEC2B7v160006EPKvS3_, symObjAddr: 0xDD88, symBinAddr: 0x100011888, symSize: 0x24 }
  - { offsetInCU: 0x766D3, offset: 0x766D3, size: 0x8, addend: 0x0, symName: __ZN15PDPTWT_solutionD2Ev, symObjAddr: 0xDDAC, symBinAddr: 0x1000118AC, symSize: 0x3C }
  - { offsetInCU: 0x766FF, offset: 0x766FF, size: 0x8, addend: 0x0, symName: __ZNSt3__16vectorIcNS_9allocatorIcEEED1B7v160006Ev, symObjAddr: 0xDDE8, symBinAddr: 0x1000118E8, symSize: 0x2C }
  - { offsetInCU: 0x76729, offset: 0x76729, size: 0x8, addend: 0x0, symName: __ZNSt3__16vectorIcNS_9allocatorIcEEED2B7v160006Ev, symObjAddr: 0xDE14, symBinAddr: 0x100011914, symSize: 0x44 }
  - { offsetInCU: 0x76753, offset: 0x76753, size: 0x8, addend: 0x0, symName: __ZN21PDPTWTSolutionCreatorC2Ev, symObjAddr: 0xDE58, symBinAddr: 0x100011958, symSize: 0x44 }
  - { offsetInCU: 0x7677F, offset: 0x7677F, size: 0x8, addend: 0x0, symName: __ZN7mlpalns22InitialSolutionCreatorI15PDPTWT_solution6PDPTWTEC2Ev, symObjAddr: 0xDE9C, symBinAddr: 0x10001199C, symSize: 0x24 }
  - { offsetInCU: 0x767AB, offset: 0x767AB, size: 0x8, addend: 0x0, symName: __ZNSt3__16vectorIPK7RequestNS_9allocatorIS3_EEEC1B7v160006Ev, symObjAddr: 0xDEC0, symBinAddr: 0x1000119C0, symSize: 0x2C }
  - { offsetInCU: 0x767D5, offset: 0x767D5, size: 0x8, addend: 0x0, symName: __ZN15PDPTWT_solutionC1ERK6PDPTWT, symObjAddr: 0xDEEC, symBinAddr: 0x1000119EC, symSize: 0x34 }
  - { offsetInCU: 0x7680D, offset: 0x7680D, size: 0x8, addend: 0x0, symName: __ZNKSt3__16vectorI7RequestNS_9allocatorIS1_EEEixB7v160006Em, symObjAddr: 0xDF20, symBinAddr: 0x100011A20, symSize: 0x24 }
  - { offsetInCU: 0x76844, offset: 0x76844, size: 0x8, addend: 0x0, symName: __ZNSt3__16vectorIPK7RequestNS_9allocatorIS3_EEE9push_backB7v160006ERKS3_, symObjAddr: 0xDF44, symBinAddr: 0x100011A44, symSize: 0x6C }
  - { offsetInCU: 0x7687B, offset: 0x7687B, size: 0x8, addend: 0x0, symName: __ZNKSt3__16vectorIPK7RequestNS_9allocatorIS3_EEE4sizeB7v160006Ev, symObjAddr: 0xDFB0, symBinAddr: 0x100011AB0, symSize: 0x28 }
  - { offsetInCU: 0x768A1, offset: 0x768A1, size: 0x8, addend: 0x0, symName: __ZNSt3__16vectorIPK7RequestNS_9allocatorIS3_EEEixB7v160006Em, symObjAddr: 0xDFD8, symBinAddr: 0x100011AD8, symSize: 0x24 }
  - { offsetInCU: 0x768DE, offset: 0x768DE, size: 0x8, addend: 0x0, symName: __ZN15PDPTWT_solutionaSEOS_, symObjAddr: 0xDFFC, symBinAddr: 0x100011AFC, symSize: 0x5C }
  - { offsetInCU: 0x7690F, offset: 0x7690F, size: 0x8, addend: 0x0, symName: __ZNSt3__16vectorIPK7RequestNS_9allocatorIS3_EEED1B7v160006Ev, symObjAddr: 0xE058, symBinAddr: 0x100011B58, symSize: 0x2C }
  - { offsetInCU: 0x76939, offset: 0x76939, size: 0x8, addend: 0x0, symName: __ZNSt3__16vectorIPK7RequestNS_9allocatorIS3_EEEC2B7v160006Ev, symObjAddr: 0xE084, symBinAddr: 0x100011B84, symSize: 0x58 }
  - { offsetInCU: 0x76969, offset: 0x76969, size: 0x8, addend: 0x0, symName: __ZNSt3__117__compressed_pairIPPK7RequestNS_9allocatorIS3_EEEC1B7v160006IDnNS_18__default_init_tagEEEOT_OT0_, symObjAddr: 0xE0DC, symBinAddr: 0x100011BDC, symSize: 0x3C }
  - { offsetInCU: 0x769C1, offset: 0x769C1, size: 0x8, addend: 0x0, symName: __ZNSt3__117__compressed_pairIPPK7RequestNS_9allocatorIS3_EEEC2B7v160006IDnNS_18__default_init_tagEEEOT_OT0_, symObjAddr: 0xE128, symBinAddr: 0x100011C28, symSize: 0x40 }
  - { offsetInCU: 0x76A19, offset: 0x76A19, size: 0x8, addend: 0x0, symName: __ZNSt3__122__compressed_pair_elemIPPK7RequestLi0ELb0EEC2B7v160006IDnvEEOT_, symObjAddr: 0xE168, symBinAddr: 0x100011C68, symSize: 0x1C }
  - { offsetInCU: 0x76A5B, offset: 0x76A5B, size: 0x8, addend: 0x0, symName: __ZNSt3__122__compressed_pair_elemINS_9allocatorIPK7RequestEELi1ELb1EEC2B7v160006ENS_18__default_init_tagE, symObjAddr: 0xE184, symBinAddr: 0x100011C84, symSize: 0x2C }
  - { offsetInCU: 0x76A90, offset: 0x76A90, size: 0x8, addend: 0x0, symName: __ZNSt3__19allocatorIPK7RequestEC2B7v160006Ev, symObjAddr: 0xE1B0, symBinAddr: 0x100011CB0, symSize: 0x2C }
  - { offsetInCU: 0x76ABA, offset: 0x76ABA, size: 0x8, addend: 0x0, symName: __ZNSt3__116__non_trivial_ifILb1ENS_9allocatorIPK7RequestEEEC2B7v160006Ev, symObjAddr: 0xE1DC, symBinAddr: 0x100011CDC, symSize: 0x14 }
  - { offsetInCU: 0x76AE4, offset: 0x76AE4, size: 0x8, addend: 0x0, symName: __ZN15PDPTWT_solutionC2ERK6PDPTWT, symObjAddr: 0xE1F0, symBinAddr: 0x100011CF0, symSize: 0x210 }
  - { offsetInCU: 0x76B86, offset: 0x76B86, size: 0x8, addend: 0x0, symName: __ZNSt3__16vectorI5RouteNS_9allocatorIS1_EEEC1B7v160006Ev, symObjAddr: 0xE400, symBinAddr: 0x100011F00, symSize: 0x2C }
  - { offsetInCU: 0x76BB0, offset: 0x76BB0, size: 0x8, addend: 0x0, symName: __ZNSt3__16vectorIcNS_9allocatorIcEEEC1B7v160006Ev, symObjAddr: 0xE42C, symBinAddr: 0x100011F2C, symSize: 0x2C }
  - { offsetInCU: 0x76BDA, offset: 0x76BDA, size: 0x8, addend: 0x0, symName: __ZN5RouteC1ERK6PDPTWT, symObjAddr: 0xE458, symBinAddr: 0x100011F58, symSize: 0x34 }
  - { offsetInCU: 0x76C12, offset: 0x76C12, size: 0x8, addend: 0x0, symName: __ZNSt3__16vectorI4StopNS_9allocatorIS1_EEE9push_backB7v160006ERKS1_, symObjAddr: 0xE48C, symBinAddr: 0x100011F8C, symSize: 0x6C }
  - { offsetInCU: 0x76C49, offset: 0x76C49, size: 0x8, addend: 0x0, symName: __ZNSt3__16vectorI5RouteNS_9allocatorIS1_EEE9push_backB7v160006ERKS1_, symObjAddr: 0xE4F8, symBinAddr: 0x100011FF8, symSize: 0x6C }
  - { offsetInCU: 0x76C80, offset: 0x76C80, size: 0x8, addend: 0x0, symName: __ZNSt3__16vectorIcNS_9allocatorIcEEE9push_backB7v160006EOc, symObjAddr: 0xE564, symBinAddr: 0x100012064, symSize: 0x6C }
  - { offsetInCU: 0x76CB7, offset: 0x76CB7, size: 0x8, addend: 0x0, symName: __ZNSt3__16vectorI5RouteNS_9allocatorIS1_EEEC2B7v160006Ev, symObjAddr: 0xE5D0, symBinAddr: 0x1000120D0, symSize: 0x54 }
  - { offsetInCU: 0x76CE1, offset: 0x76CE1, size: 0x8, addend: 0x0, symName: __ZNSt3__117__compressed_pairIP5RouteNS_9allocatorIS1_EEEC1B7v160006IDnNS_18__default_init_tagEEEOT_OT0_, symObjAddr: 0xE624, symBinAddr: 0x100012124, symSize: 0x3C }
  - { offsetInCU: 0x76D39, offset: 0x76D39, size: 0x8, addend: 0x0, symName: __ZNSt3__117__compressed_pairIP5RouteNS_9allocatorIS1_EEEC2B7v160006IDnNS_18__default_init_tagEEEOT_OT0_, symObjAddr: 0xE660, symBinAddr: 0x100012160, symSize: 0x40 }
  - { offsetInCU: 0x76D91, offset: 0x76D91, size: 0x8, addend: 0x0, symName: __ZNSt3__122__compressed_pair_elemINS_9allocatorI5RouteEELi1ELb1EEC2B7v160006ENS_18__default_init_tagE, symObjAddr: 0xE6A0, symBinAddr: 0x1000121A0, symSize: 0x2C }
  - { offsetInCU: 0x76DC6, offset: 0x76DC6, size: 0x8, addend: 0x0, symName: __ZNSt3__19allocatorI5RouteEC2B7v160006Ev, symObjAddr: 0xE6CC, symBinAddr: 0x1000121CC, symSize: 0x2C }
  - { offsetInCU: 0x76DF0, offset: 0x76DF0, size: 0x8, addend: 0x0, symName: __ZNSt3__116__non_trivial_ifILb1ENS_9allocatorI5RouteEEEC2B7v160006Ev, symObjAddr: 0xE6F8, symBinAddr: 0x1000121F8, symSize: 0x14 }
  - { offsetInCU: 0x76E1A, offset: 0x76E1A, size: 0x8, addend: 0x0, symName: __ZNSt3__16vectorIcNS_9allocatorIcEEEC2B7v160006Ev, symObjAddr: 0xE70C, symBinAddr: 0x10001220C, symSize: 0x54 }
  - { offsetInCU: 0x76E44, offset: 0x76E44, size: 0x8, addend: 0x0, symName: __ZNSt3__117__compressed_pairIPcNS_9allocatorIcEEEC1B7v160006IDnNS_18__default_init_tagEEEOT_OT0_, symObjAddr: 0xE760, symBinAddr: 0x100012260, symSize: 0x3C }
  - { offsetInCU: 0x76E9C, offset: 0x76E9C, size: 0x8, addend: 0x0, symName: __ZNSt3__117__compressed_pairIPcNS_9allocatorIcEEEC2B7v160006IDnNS_18__default_init_tagEEEOT_OT0_, symObjAddr: 0xE79C, symBinAddr: 0x10001229C, symSize: 0x40 }
  - { offsetInCU: 0x76EF4, offset: 0x76EF4, size: 0x8, addend: 0x0, symName: __ZNSt3__122__compressed_pair_elemINS_9allocatorIcEELi1ELb1EEC2B7v160006ENS_18__default_init_tagE, symObjAddr: 0xE7DC, symBinAddr: 0x1000122DC, symSize: 0x2C }
  - { offsetInCU: 0x76F29, offset: 0x76F29, size: 0x8, addend: 0x0, symName: __ZNSt3__19allocatorIcEC2B7v160006Ev, symObjAddr: 0xE808, symBinAddr: 0x100012308, symSize: 0x2C }
  - { offsetInCU: 0x76F53, offset: 0x76F53, size: 0x8, addend: 0x0, symName: __ZNSt3__116__non_trivial_ifILb1ENS_9allocatorIcEEEC2B7v160006Ev, symObjAddr: 0xE834, symBinAddr: 0x100012334, symSize: 0x14 }
  - { offsetInCU: 0x76F7D, offset: 0x76F7D, size: 0x8, addend: 0x0, symName: __ZN5RouteC2ERK6PDPTWT, symObjAddr: 0xE848, symBinAddr: 0x100012348, symSize: 0x3C }
  - { offsetInCU: 0x76FB5, offset: 0x76FB5, size: 0x8, addend: 0x0, symName: __ZNSt3__16vectorI4StopNS_9allocatorIS1_EEEC1B7v160006Ev, symObjAddr: 0xE884, symBinAddr: 0x100012384, symSize: 0x2C }
  - { offsetInCU: 0x76FDF, offset: 0x76FDF, size: 0x8, addend: 0x0, symName: __ZNSt3__16vectorI4StopNS_9allocatorIS1_EEEC2B7v160006Ev, symObjAddr: 0xE8B0, symBinAddr: 0x1000123B0, symSize: 0x54 }
  - { offsetInCU: 0x77009, offset: 0x77009, size: 0x8, addend: 0x0, symName: __ZNSt3__117__compressed_pairIP4StopNS_9allocatorIS1_EEEC1B7v160006IDnNS_18__default_init_tagEEEOT_OT0_, symObjAddr: 0xE904, symBinAddr: 0x100012404, symSize: 0x3C }
  - { offsetInCU: 0x77061, offset: 0x77061, size: 0x8, addend: 0x0, symName: __ZNSt3__117__compressed_pairIP4StopNS_9allocatorIS1_EEEC2B7v160006IDnNS_18__default_init_tagEEEOT_OT0_, symObjAddr: 0xE940, symBinAddr: 0x100012440, symSize: 0x40 }
  - { offsetInCU: 0x770B9, offset: 0x770B9, size: 0x8, addend: 0x0, symName: __ZNSt3__122__compressed_pair_elemINS_9allocatorI4StopEELi1ELb1EEC2B7v160006ENS_18__default_init_tagE, symObjAddr: 0xE980, symBinAddr: 0x100012480, symSize: 0x2C }
  - { offsetInCU: 0x770EE, offset: 0x770EE, size: 0x8, addend: 0x0, symName: __ZNSt3__19allocatorI4StopEC2B7v160006Ev, symObjAddr: 0xE9AC, symBinAddr: 0x1000124AC, symSize: 0x2C }
  - { offsetInCU: 0x77118, offset: 0x77118, size: 0x8, addend: 0x0, symName: __ZNSt3__116__non_trivial_ifILb1ENS_9allocatorI4StopEEEC2B7v160006Ev, symObjAddr: 0xE9D8, symBinAddr: 0x1000124D8, symSize: 0x14 }
  - { offsetInCU: 0x77142, offset: 0x77142, size: 0x8, addend: 0x0, symName: __ZNSt3__16vectorI4StopNS_9allocatorIS1_EEE22__construct_one_at_endB7v160006IJRKS1_EEEvDpOT_, symObjAddr: 0xE9EC, symBinAddr: 0x1000124EC, symSize: 0x90 }
  - { offsetInCU: 0x77191, offset: 0x77191, size: 0x8, addend: 0x0, symName: __ZNSt3__16vectorI4StopNS_9allocatorIS1_EEE21__push_back_slow_pathIRKS1_EEvOT_, symObjAddr: 0xEA7C, symBinAddr: 0x10001257C, symSize: 0xD8 }
  - { offsetInCU: 0x771EF, offset: 0x771EF, size: 0x8, addend: 0x0, symName: __ZNSt3__116allocator_traitsINS_9allocatorI4StopEEE9constructB7v160006IS2_JRKS2_EvEEvRS3_PT_DpOT0_, symObjAddr: 0xEB54, symBinAddr: 0x100012654, symSize: 0x34 }
  - { offsetInCU: 0x77246, offset: 0x77246, size: 0x8, addend: 0x0, symName: __ZNSt3__19allocatorI4StopE9constructB7v160006IS1_JRKS1_EEEvPT_DpOT0_, symObjAddr: 0xEB88, symBinAddr: 0x100012688, symSize: 0x30 }
  - { offsetInCU: 0x7729C, offset: 0x7729C, size: 0x8, addend: 0x0, symName: __ZNSt3__16vectorI5RouteNS_9allocatorIS1_EEE22__construct_one_at_endB7v160006IJRKS1_EEEvDpOT_, symObjAddr: 0xECD0, symBinAddr: 0x1000127D0, symSize: 0x90 }
  - { offsetInCU: 0x772EB, offset: 0x772EB, size: 0x8, addend: 0x0, symName: __ZNSt3__16vectorI5RouteNS_9allocatorIS1_EEE21__push_back_slow_pathIRKS1_EEvOT_, symObjAddr: 0xED60, symBinAddr: 0x100012860, symSize: 0xD8 }
  - { offsetInCU: 0x77349, offset: 0x77349, size: 0x8, addend: 0x0, symName: __ZNSt3__116allocator_traitsINS_9allocatorI5RouteEEE9constructB7v160006IS2_JRKS2_EvEEvRS3_PT_DpOT0_, symObjAddr: 0xEE38, symBinAddr: 0x100012938, symSize: 0x34 }
  - { offsetInCU: 0x773A0, offset: 0x773A0, size: 0x8, addend: 0x0, symName: __ZNSt3__19allocatorI5RouteE9constructB7v160006IS1_JRKS1_EEEvPT_DpOT0_, symObjAddr: 0xEE6C, symBinAddr: 0x10001296C, symSize: 0x30 }
  - { offsetInCU: 0x773F6, offset: 0x773F6, size: 0x8, addend: 0x0, symName: __ZNSt3__114__split_bufferI5RouteRNS_9allocatorIS1_EEEC1EmmS4_, symObjAddr: 0xEE9C, symBinAddr: 0x10001299C, symSize: 0x44 }
  - { offsetInCU: 0x7744C, offset: 0x7744C, size: 0x8, addend: 0x0, symName: __ZNSt3__114__split_bufferI5RouteRNS_9allocatorIS1_EEED1Ev, symObjAddr: 0xEFF8, symBinAddr: 0x100012AF8, symSize: 0x2C }
  - { offsetInCU: 0x77478, offset: 0x77478, size: 0x8, addend: 0x0, symName: __ZNSt3__114__split_bufferI5RouteRNS_9allocatorIS1_EEEC2EmmS4_, symObjAddr: 0xF024, symBinAddr: 0x100012B24, symSize: 0xD4 }
  - { offsetInCU: 0x774EB, offset: 0x774EB, size: 0x8, addend: 0x0, symName: __ZNSt3__117__compressed_pairIP5RouteRNS_9allocatorIS1_EEEC1B7v160006IDnS5_EEOT_OT0_, symObjAddr: 0xF0F8, symBinAddr: 0x100012BF8, symSize: 0x3C }
  - { offsetInCU: 0x77543, offset: 0x77543, size: 0x8, addend: 0x0, symName: __ZNSt3__114__split_bufferI5RouteRNS_9allocatorIS1_EEE7__allocB7v160006Ev, symObjAddr: 0xF134, symBinAddr: 0x100012C34, symSize: 0x28 }
  - { offsetInCU: 0x77569, offset: 0x77569, size: 0x8, addend: 0x0, symName: __ZNSt3__114__split_bufferI5RouteRNS_9allocatorIS1_EEE9__end_capB7v160006Ev, symObjAddr: 0xF15C, symBinAddr: 0x100012C5C, symSize: 0x28 }
  - { offsetInCU: 0x7758F, offset: 0x7758F, size: 0x8, addend: 0x0, symName: __ZNSt3__117__compressed_pairIP5RouteRNS_9allocatorIS1_EEEC2B7v160006IDnS5_EEOT_OT0_, symObjAddr: 0xF184, symBinAddr: 0x100012C84, symSize: 0x48 }
  - { offsetInCU: 0x775E7, offset: 0x775E7, size: 0x8, addend: 0x0, symName: __ZNSt3__122__compressed_pair_elemIRNS_9allocatorI5RouteEELi1ELb0EEC2B7v160006IS4_vEEOT_, symObjAddr: 0xF1CC, symBinAddr: 0x100012CCC, symSize: 0x20 }
  - { offsetInCU: 0x77629, offset: 0x77629, size: 0x8, addend: 0x0, symName: __ZNSt3__117__compressed_pairIP5RouteRNS_9allocatorIS1_EEE6secondB7v160006Ev, symObjAddr: 0xF1EC, symBinAddr: 0x100012CEC, symSize: 0x28 }
  - { offsetInCU: 0x7764F, offset: 0x7764F, size: 0x8, addend: 0x0, symName: __ZNSt3__122__compressed_pair_elemIRNS_9allocatorI5RouteEELi1ELb0EE5__getB7v160006Ev, symObjAddr: 0xF214, symBinAddr: 0x100012D14, symSize: 0x18 }
  - { offsetInCU: 0x77675, offset: 0x77675, size: 0x8, addend: 0x0, symName: __ZNSt3__117__compressed_pairIP5RouteRNS_9allocatorIS1_EEE5firstB7v160006Ev, symObjAddr: 0xF22C, symBinAddr: 0x100012D2C, symSize: 0x24 }
  - { offsetInCU: 0x7769B, offset: 0x7769B, size: 0x8, addend: 0x0, symName: __ZNSt3__129_AllocatorDestroyRangeReverseINS_9allocatorI5RouteEENS_16reverse_iteratorIPS2_EEEC1B7v160006ERS3_RS6_S9_, symObjAddr: 0xF3F4, symBinAddr: 0x100012EF4, symSize: 0x44 }
  - { offsetInCU: 0x776F8, offset: 0x776F8, size: 0x8, addend: 0x0, symName: __ZNSt3__116allocator_traitsINS_9allocatorI5RouteEEE9constructB7v160006IS2_JS2_EvEEvRS3_PT_DpOT0_, symObjAddr: 0xF438, symBinAddr: 0x100012F38, symSize: 0x34 }
  - { offsetInCU: 0x7774F, offset: 0x7774F, size: 0x8, addend: 0x0, symName: __ZNSt3__128__exception_guard_exceptionsINS_29_AllocatorDestroyRangeReverseINS_9allocatorI5RouteEENS_16reverse_iteratorIPS3_EEEEE10__completeB7v160006Ev, symObjAddr: 0xF46C, symBinAddr: 0x100012F6C, symSize: 0x1C }
  - { offsetInCU: 0x77775, offset: 0x77775, size: 0x8, addend: 0x0, symName: __ZNSt3__128__exception_guard_exceptionsINS_29_AllocatorDestroyRangeReverseINS_9allocatorI5RouteEENS_16reverse_iteratorIPS3_EEEEED1B7v160006Ev, symObjAddr: 0xF488, symBinAddr: 0x100012F88, symSize: 0x2C }
  - { offsetInCU: 0x7779F, offset: 0x7779F, size: 0x8, addend: 0x0, symName: __ZNSt3__128__exception_guard_exceptionsINS_29_AllocatorDestroyRangeReverseINS_9allocatorI5RouteEENS_16reverse_iteratorIPS3_EEEEEC1B7v160006ES8_, symObjAddr: 0xF4B4, symBinAddr: 0x100012FB4, symSize: 0x34 }
  - { offsetInCU: 0x777D8, offset: 0x777D8, size: 0x8, addend: 0x0, symName: __ZNSt3__128__exception_guard_exceptionsINS_29_AllocatorDestroyRangeReverseINS_9allocatorI5RouteEENS_16reverse_iteratorIPS3_EEEEEC2B7v160006ES8_, symObjAddr: 0xF4E8, symBinAddr: 0x100012FE8, symSize: 0x30 }
  - { offsetInCU: 0x77811, offset: 0x77811, size: 0x8, addend: 0x0, symName: __ZNSt3__129_AllocatorDestroyRangeReverseINS_9allocatorI5RouteEENS_16reverse_iteratorIPS2_EEEC2B7v160006ERS3_RS6_S9_, symObjAddr: 0xF518, symBinAddr: 0x100013018, symSize: 0x38 }
  - { offsetInCU: 0x77868, offset: 0x77868, size: 0x8, addend: 0x0, symName: __ZNSt3__19allocatorI5RouteE9constructB7v160006IS1_JS1_EEEvPT_DpOT0_, symObjAddr: 0xF550, symBinAddr: 0x100013050, symSize: 0x30 }
  - { offsetInCU: 0x778BE, offset: 0x778BE, size: 0x8, addend: 0x0, symName: __ZN5RouteC1EOS_, symObjAddr: 0xF580, symBinAddr: 0x100013080, symSize: 0x34 }
  - { offsetInCU: 0x778F3, offset: 0x778F3, size: 0x8, addend: 0x0, symName: __ZN5RouteC2EOS_, symObjAddr: 0xF5B4, symBinAddr: 0x1000130B4, symSize: 0x48 }
  - { offsetInCU: 0x77928, offset: 0x77928, size: 0x8, addend: 0x0, symName: __ZNSt3__16vectorI4StopNS_9allocatorIS1_EEEC1B7v160006EOS4_, symObjAddr: 0xF5FC, symBinAddr: 0x1000130FC, symSize: 0x34 }
  - { offsetInCU: 0x77963, offset: 0x77963, size: 0x8, addend: 0x0, symName: __ZNSt3__16vectorI4StopNS_9allocatorIS1_EEEC2B7v160006EOS4_, symObjAddr: 0xF630, symBinAddr: 0x100013130, symSize: 0xDC }
  - { offsetInCU: 0x7799E, offset: 0x7799E, size: 0x8, addend: 0x0, symName: __ZNSt3__128__exception_guard_exceptionsINS_29_AllocatorDestroyRangeReverseINS_9allocatorI5RouteEENS_16reverse_iteratorIPS3_EEEEED2B7v160006Ev, symObjAddr: 0xF720, symBinAddr: 0x100013220, symSize: 0x50 }
  - { offsetInCU: 0x779C8, offset: 0x779C8, size: 0x8, addend: 0x0, symName: __ZNKSt3__129_AllocatorDestroyRangeReverseINS_9allocatorI5RouteEENS_16reverse_iteratorIPS2_EEEclB7v160006Ev, symObjAddr: 0xF770, symBinAddr: 0x100013270, symSize: 0xB4 }
  - { offsetInCU: 0x779EF, offset: 0x779EF, size: 0x8, addend: 0x0, symName: __ZNSt3__116reverse_iteratorINS0_IP5RouteEEEC1B7v160006ES3_, symObjAddr: 0xF894, symBinAddr: 0x100013394, symSize: 0x3C }
  - { offsetInCU: 0x77A27, offset: 0x77A27, size: 0x8, addend: 0x0, symName: __ZNSt3__116reverse_iteratorINS0_IP5RouteEEEppB7v160006Ev, symObjAddr: 0xF954, symBinAddr: 0x100013454, symSize: 0x30 }
  - { offsetInCU: 0x77A4D, offset: 0x77A4D, size: 0x8, addend: 0x0, symName: __ZNKSt3__116reverse_iteratorINS0_IP5RouteEEE4baseB7v160006Ev, symObjAddr: 0xF984, symBinAddr: 0x100013484, symSize: 0x24 }
  - { offsetInCU: 0x77A79, offset: 0x77A79, size: 0x8, addend: 0x0, symName: __ZNSt3__119__to_address_helperINS_16reverse_iteratorINS1_IP5RouteEEEEvE6__callB7v160006ERKS5_, symObjAddr: 0xF9A8, symBinAddr: 0x1000134A8, symSize: 0x38 }
  - { offsetInCU: 0x77A9C, offset: 0x77A9C, size: 0x8, addend: 0x0, symName: __ZNKSt3__116reverse_iteratorINS0_IP5RouteEEEptB7v160006Ev, symObjAddr: 0xF9E0, symBinAddr: 0x1000134E0, symSize: 0x24 }
  - { offsetInCU: 0x77AC2, offset: 0x77AC2, size: 0x8, addend: 0x0, symName: __ZNKSt3__116reverse_iteratorINS0_IP5RouteEEEdeB7v160006Ev, symObjAddr: 0xFA04, symBinAddr: 0x100013504, symSize: 0x34 }
  - { offsetInCU: 0x77AF6, offset: 0x77AF6, size: 0x8, addend: 0x0, symName: __ZNSt3__116reverse_iteratorIP5RouteEmmB7v160006Ev, symObjAddr: 0xFA38, symBinAddr: 0x100013538, symSize: 0x20 }
  - { offsetInCU: 0x77B1C, offset: 0x77B1C, size: 0x8, addend: 0x0, symName: __ZNSt3__116reverse_iteratorINS0_IP5RouteEEEC2B7v160006ES3_, symObjAddr: 0xFA58, symBinAddr: 0x100013558, symSize: 0x2C }
  - { offsetInCU: 0x77B54, offset: 0x77B54, size: 0x8, addend: 0x0, symName: __ZNSt3__114__split_bufferI5RouteRNS_9allocatorIS1_EEED2Ev, symObjAddr: 0xFA84, symBinAddr: 0x100013584, symSize: 0x8C }
  - { offsetInCU: 0x77B80, offset: 0x77B80, size: 0x8, addend: 0x0, symName: __ZNSt3__114__split_bufferI5RouteRNS_9allocatorIS1_EEE5clearB7v160006Ev, symObjAddr: 0xFB10, symBinAddr: 0x100013610, symSize: 0x28 }
  - { offsetInCU: 0x77BA6, offset: 0x77BA6, size: 0x8, addend: 0x0, symName: __ZNKSt3__114__split_bufferI5RouteRNS_9allocatorIS1_EEE8capacityB7v160006Ev, symObjAddr: 0xFB38, symBinAddr: 0x100013638, symSize: 0x40 }
  - { offsetInCU: 0x77BCC, offset: 0x77BCC, size: 0x8, addend: 0x0, symName: __ZNSt3__114__split_bufferI5RouteRNS_9allocatorIS1_EEE17__destruct_at_endB7v160006EPS1_, symObjAddr: 0xFB78, symBinAddr: 0x100013678, symSize: 0x2C }
  - { offsetInCU: 0x77C00, offset: 0x77C00, size: 0x8, addend: 0x0, symName: __ZNSt3__114__split_bufferI5RouteRNS_9allocatorIS1_EEE17__destruct_at_endB7v160006EPS1_NS_17integral_constantIbLb0EEE, symObjAddr: 0xFBA4, symBinAddr: 0x1000136A4, symSize: 0x80 }
  - { offsetInCU: 0x77C41, offset: 0x77C41, size: 0x8, addend: 0x0, symName: __ZNKSt3__114__split_bufferI5RouteRNS_9allocatorIS1_EEE9__end_capB7v160006Ev, symObjAddr: 0xFC24, symBinAddr: 0x100013724, symSize: 0x28 }
  - { offsetInCU: 0x77C67, offset: 0x77C67, size: 0x8, addend: 0x0, symName: __ZNKSt3__117__compressed_pairIP5RouteRNS_9allocatorIS1_EEE5firstB7v160006Ev, symObjAddr: 0xFC4C, symBinAddr: 0x10001374C, symSize: 0x24 }
  - { offsetInCU: 0x77C93, offset: 0x77C93, size: 0x8, addend: 0x0, symName: __ZNSt3__16vectorIcNS_9allocatorIcEEE22__construct_one_at_endB7v160006IJcEEEvDpOT_, symObjAddr: 0xFC70, symBinAddr: 0x100013770, symSize: 0x90 }
  - { offsetInCU: 0x77CE2, offset: 0x77CE2, size: 0x8, addend: 0x0, symName: __ZNSt3__16vectorIcNS_9allocatorIcEEE21__push_back_slow_pathIcEEvOT_, symObjAddr: 0xFD00, symBinAddr: 0x100013800, symSize: 0xD8 }
  - { offsetInCU: 0x77D40, offset: 0x77D40, size: 0x8, addend: 0x0, symName: __ZNSt3__116allocator_traitsINS_9allocatorIcEEE9constructB7v160006IcJcEvEEvRS2_PT_DpOT0_, symObjAddr: 0xFDD8, symBinAddr: 0x1000138D8, symSize: 0x34 }
  - { offsetInCU: 0x77D97, offset: 0x77D97, size: 0x8, addend: 0x0, symName: __ZNSt3__19allocatorIcE9constructB7v160006IcJcEEEvPT_DpOT0_, symObjAddr: 0xFE0C, symBinAddr: 0x10001390C, symSize: 0x28 }
  - { offsetInCU: 0x77DED, offset: 0x77DED, size: 0x8, addend: 0x0, symName: __ZNSt3__114__split_bufferIcRNS_9allocatorIcEEEC1EmmS3_, symObjAddr: 0xFE34, symBinAddr: 0x100013934, symSize: 0x44 }
  - { offsetInCU: 0x77E43, offset: 0x77E43, size: 0x8, addend: 0x0, symName: __ZNSt3__114__split_bufferIcRNS_9allocatorIcEEED1Ev, symObjAddr: 0xFF90, symBinAddr: 0x100013A90, symSize: 0x2C }
  - { offsetInCU: 0x77E6F, offset: 0x77E6F, size: 0x8, addend: 0x0, symName: __ZNSt3__114__split_bufferIcRNS_9allocatorIcEEEC2EmmS3_, symObjAddr: 0xFFBC, symBinAddr: 0x100013ABC, symSize: 0xD4 }
  - { offsetInCU: 0x77EE2, offset: 0x77EE2, size: 0x8, addend: 0x0, symName: __ZNSt3__117__compressed_pairIPcRNS_9allocatorIcEEEC1B7v160006IDnS4_EEOT_OT0_, symObjAddr: 0x10090, symBinAddr: 0x100013B90, symSize: 0x3C }
  - { offsetInCU: 0x77F3A, offset: 0x77F3A, size: 0x8, addend: 0x0, symName: __ZNSt3__114__split_bufferIcRNS_9allocatorIcEEE7__allocB7v160006Ev, symObjAddr: 0x100CC, symBinAddr: 0x100013BCC, symSize: 0x28 }
  - { offsetInCU: 0x77F60, offset: 0x77F60, size: 0x8, addend: 0x0, symName: __ZNSt3__114__split_bufferIcRNS_9allocatorIcEEE9__end_capB7v160006Ev, symObjAddr: 0x100F4, symBinAddr: 0x100013BF4, symSize: 0x28 }
  - { offsetInCU: 0x77F86, offset: 0x77F86, size: 0x8, addend: 0x0, symName: __ZNSt3__117__compressed_pairIPcRNS_9allocatorIcEEEC2B7v160006IDnS4_EEOT_OT0_, symObjAddr: 0x1011C, symBinAddr: 0x100013C1C, symSize: 0x48 }
  - { offsetInCU: 0x77FDE, offset: 0x77FDE, size: 0x8, addend: 0x0, symName: __ZNSt3__122__compressed_pair_elemIRNS_9allocatorIcEELi1ELb0EEC2B7v160006IS3_vEEOT_, symObjAddr: 0x10164, symBinAddr: 0x100013C64, symSize: 0x20 }
  - { offsetInCU: 0x78020, offset: 0x78020, size: 0x8, addend: 0x0, symName: __ZNSt3__117__compressed_pairIPcRNS_9allocatorIcEEE6secondB7v160006Ev, symObjAddr: 0x10184, symBinAddr: 0x100013C84, symSize: 0x28 }
  - { offsetInCU: 0x78046, offset: 0x78046, size: 0x8, addend: 0x0, symName: __ZNSt3__122__compressed_pair_elemIRNS_9allocatorIcEELi1ELb0EE5__getB7v160006Ev, symObjAddr: 0x101AC, symBinAddr: 0x100013CAC, symSize: 0x18 }
  - { offsetInCU: 0x7806C, offset: 0x7806C, size: 0x8, addend: 0x0, symName: __ZNSt3__117__compressed_pairIPcRNS_9allocatorIcEEE5firstB7v160006Ev, symObjAddr: 0x101C4, symBinAddr: 0x100013CC4, symSize: 0x24 }
  - { offsetInCU: 0x780AF, offset: 0x780AF, size: 0x8, addend: 0x0, symName: __ZNKSt3__111__move_loopINS_17_ClassicAlgPolicyEEclB7v160006INS_16reverse_iteratorIPcEES6_S6_EENS_4pairIT_T1_EES8_T0_S9_, symObjAddr: 0x1058C, symBinAddr: 0x10001408C, symSize: 0xA0 }
  - { offsetInCU: 0x78120, offset: 0x78120, size: 0x8, addend: 0x0, symName: __ZNSt3__18_IterOpsINS_17_ClassicAlgPolicyEE11__iter_moveB7v160006IRNS_16reverse_iteratorIPcEEEENS_9enable_ifIXsr12is_referenceIDTdeclsr3stdE7declvalIRT_EEEEE5valueEDTclsr3stdE4movedeclsr3stdE7declvalISA_EEEEE4typeEOS9_, symObjAddr: 0x10778, symBinAddr: 0x100014278, symSize: 0x28 }
  - { offsetInCU: 0x7814E, offset: 0x7814E, size: 0x8, addend: 0x0, symName: __ZNSt3__18_IterOpsINS_17_ClassicAlgPolicyEE25__validate_iter_referenceB7v160006IRNS_16reverse_iteratorIPcEEEEvv, symObjAddr: 0x107A0, symBinAddr: 0x1000142A0, symSize: 0x4 }
  - { offsetInCU: 0x7816C, offset: 0x7816C, size: 0x8, addend: 0x0, symName: __ZNSt3__118__unwrap_iter_implINS_16reverse_iteratorIPcEELb0EE8__unwrapB7v160006ES3_, symObjAddr: 0x107A4, symBinAddr: 0x1000142A4, symSize: 0x24 }
  - { offsetInCU: 0x78197, offset: 0x78197, size: 0x8, addend: 0x0, symName: __ZNSt3__14pairINS_16reverse_iteratorIPcEES3_EC1B7v160006IS3_S3_LPv0EEEOT_OT0_, symObjAddr: 0x107C8, symBinAddr: 0x1000142C8, symSize: 0x3C }
  - { offsetInCU: 0x781F5, offset: 0x781F5, size: 0x8, addend: 0x0, symName: __ZNSt3__14pairINS_16reverse_iteratorIPcEES3_EC2B7v160006IS3_S3_LPv0EEEOT_OT0_, symObjAddr: 0x10804, symBinAddr: 0x100014304, symSize: 0x34 }
  - { offsetInCU: 0x78253, offset: 0x78253, size: 0x8, addend: 0x0, symName: __ZNSt3__118__unwrap_iter_implINS_16reverse_iteratorIPcEELb0EE8__rewrapB7v160006ES3_S3_, symObjAddr: 0x10838, symBinAddr: 0x100014338, symSize: 0x2C }
  - { offsetInCU: 0x78284, offset: 0x78284, size: 0x8, addend: 0x0, symName: __ZNSt3__114__split_bufferIcRNS_9allocatorIcEEED2Ev, symObjAddr: 0x10864, symBinAddr: 0x100014364, symSize: 0x8C }
  - { offsetInCU: 0x782B0, offset: 0x782B0, size: 0x8, addend: 0x0, symName: __ZNSt3__114__split_bufferIcRNS_9allocatorIcEEE5clearB7v160006Ev, symObjAddr: 0x108F0, symBinAddr: 0x1000143F0, symSize: 0x28 }
  - { offsetInCU: 0x782D6, offset: 0x782D6, size: 0x8, addend: 0x0, symName: __ZNKSt3__114__split_bufferIcRNS_9allocatorIcEEE8capacityB7v160006Ev, symObjAddr: 0x10918, symBinAddr: 0x100014418, symSize: 0x38 }
  - { offsetInCU: 0x782FC, offset: 0x782FC, size: 0x8, addend: 0x0, symName: __ZNSt3__114__split_bufferIcRNS_9allocatorIcEEE17__destruct_at_endB7v160006EPc, symObjAddr: 0x10950, symBinAddr: 0x100014450, symSize: 0x2C }
  - { offsetInCU: 0x78330, offset: 0x78330, size: 0x8, addend: 0x0, symName: __ZNSt3__114__split_bufferIcRNS_9allocatorIcEEE17__destruct_at_endB7v160006EPcNS_17integral_constantIbLb0EEE, symObjAddr: 0x1097C, symBinAddr: 0x10001447C, symSize: 0x80 }
  - { offsetInCU: 0x78371, offset: 0x78371, size: 0x8, addend: 0x0, symName: __ZNKSt3__114__split_bufferIcRNS_9allocatorIcEEE9__end_capB7v160006Ev, symObjAddr: 0x109FC, symBinAddr: 0x1000144FC, symSize: 0x28 }
  - { offsetInCU: 0x78397, offset: 0x78397, size: 0x8, addend: 0x0, symName: __ZNKSt3__117__compressed_pairIPcRNS_9allocatorIcEEE5firstB7v160006Ev, symObjAddr: 0x10A24, symBinAddr: 0x100014524, symSize: 0x24 }
  - { offsetInCU: 0x783BD, offset: 0x783BD, size: 0x8, addend: 0x0, symName: __ZNSt3__16vectorIPK7RequestNS_9allocatorIS3_EEE9__end_capB7v160006Ev, symObjAddr: 0x10A48, symBinAddr: 0x100014548, symSize: 0x28 }
  - { offsetInCU: 0x783E3, offset: 0x783E3, size: 0x8, addend: 0x0, symName: __ZNSt3__16vectorIPK7RequestNS_9allocatorIS3_EEE22__construct_one_at_endB7v160006IJRKS3_EEEvDpOT_, symObjAddr: 0x10A70, symBinAddr: 0x100014570, symSize: 0x90 }
  - { offsetInCU: 0x78432, offset: 0x78432, size: 0x8, addend: 0x0, symName: __ZNSt3__16vectorIPK7RequestNS_9allocatorIS3_EEE21__push_back_slow_pathIRKS3_EEvOT_, symObjAddr: 0x10B00, symBinAddr: 0x100014600, symSize: 0xD8 }
  - { offsetInCU: 0x78490, offset: 0x78490, size: 0x8, addend: 0x0, symName: __ZNSt3__117__compressed_pairIPPK7RequestNS_9allocatorIS3_EEE5firstB7v160006Ev, symObjAddr: 0x10BD8, symBinAddr: 0x1000146D8, symSize: 0x24 }
  - { offsetInCU: 0x784B6, offset: 0x784B6, size: 0x8, addend: 0x0, symName: __ZNSt3__122__compressed_pair_elemIPPK7RequestLi0ELb0EE5__getB7v160006Ev, symObjAddr: 0x10BFC, symBinAddr: 0x1000146FC, symSize: 0x14 }
  - { offsetInCU: 0x784F8, offset: 0x784F8, size: 0x8, addend: 0x0, symName: __ZNSt3__16vectorIPK7RequestNS_9allocatorIS3_EEE21_ConstructTransactionC1B7v160006ERS6_m, symObjAddr: 0x10C10, symBinAddr: 0x100014710, symSize: 0x3C }
  - { offsetInCU: 0x78540, offset: 0x78540, size: 0x8, addend: 0x0, symName: __ZNSt3__116allocator_traitsINS_9allocatorIPK7RequestEEE9constructB7v160006IS4_JRKS4_EvEEvRS5_PT_DpOT0_, symObjAddr: 0x10C4C, symBinAddr: 0x10001474C, symSize: 0x34 }
  - { offsetInCU: 0x78597, offset: 0x78597, size: 0x8, addend: 0x0, symName: __ZNSt3__16vectorIPK7RequestNS_9allocatorIS3_EEE7__allocB7v160006Ev, symObjAddr: 0x10C80, symBinAddr: 0x100014780, symSize: 0x28 }
  - { offsetInCU: 0x785BD, offset: 0x785BD, size: 0x8, addend: 0x0, symName: __ZNSt3__16vectorIPK7RequestNS_9allocatorIS3_EEE21_ConstructTransactionD1B7v160006Ev, symObjAddr: 0x10CBC, symBinAddr: 0x1000147BC, symSize: 0x2C }
  - { offsetInCU: 0x785E7, offset: 0x785E7, size: 0x8, addend: 0x0, symName: __ZNSt3__16vectorIPK7RequestNS_9allocatorIS3_EEE21_ConstructTransactionC2B7v160006ERS6_m, symObjAddr: 0x10CE8, symBinAddr: 0x1000147E8, symSize: 0x44 }
  - { offsetInCU: 0x7862F, offset: 0x7862F, size: 0x8, addend: 0x0, symName: __ZNSt3__19allocatorIPK7RequestE9constructB7v160006IS3_JRKS3_EEEvPT_DpOT0_, symObjAddr: 0x10D2C, symBinAddr: 0x10001482C, symSize: 0x28 }
  - { offsetInCU: 0x78685, offset: 0x78685, size: 0x8, addend: 0x0, symName: __ZNSt3__117__compressed_pairIPPK7RequestNS_9allocatorIS3_EEE6secondB7v160006Ev, symObjAddr: 0x10D54, symBinAddr: 0x100014854, symSize: 0x24 }
  - { offsetInCU: 0x786AB, offset: 0x786AB, size: 0x8, addend: 0x0, symName: __ZNSt3__122__compressed_pair_elemINS_9allocatorIPK7RequestEELi1ELb1EE5__getB7v160006Ev, symObjAddr: 0x10D78, symBinAddr: 0x100014878, symSize: 0x14 }
  - { offsetInCU: 0x786D1, offset: 0x786D1, size: 0x8, addend: 0x0, symName: __ZNSt3__16vectorIPK7RequestNS_9allocatorIS3_EEE21_ConstructTransactionD2B7v160006Ev, symObjAddr: 0x10D8C, symBinAddr: 0x10001488C, symSize: 0x20 }
  - { offsetInCU: 0x786FB, offset: 0x786FB, size: 0x8, addend: 0x0, symName: __ZNKSt3__16vectorIPK7RequestNS_9allocatorIS3_EEE11__recommendB7v160006Em, symObjAddr: 0x10DAC, symBinAddr: 0x1000148AC, symSize: 0xB4 }
  - { offsetInCU: 0x78750, offset: 0x78750, size: 0x8, addend: 0x0, symName: __ZNSt3__114__split_bufferIPK7RequestRNS_9allocatorIS3_EEEC1EmmS6_, symObjAddr: 0x10E60, symBinAddr: 0x100014960, symSize: 0x44 }
  - { offsetInCU: 0x787A6, offset: 0x787A6, size: 0x8, addend: 0x0, symName: __ZNSt3__114__split_bufferIPK7RequestRNS_9allocatorIS3_EEED1Ev, symObjAddr: 0x10FBC, symBinAddr: 0x100014ABC, symSize: 0x2C }
  - { offsetInCU: 0x787D2, offset: 0x787D2, size: 0x8, addend: 0x0, symName: __ZNKSt3__16vectorIPK7RequestNS_9allocatorIS3_EEE8max_sizeEv, symObjAddr: 0x10FE8, symBinAddr: 0x100014AE8, symSize: 0x60 }
  - { offsetInCU: 0x787FA, offset: 0x787FA, size: 0x8, addend: 0x0, symName: __ZNKSt3__16vectorIPK7RequestNS_9allocatorIS3_EEE20__throw_length_errorB7v160006Ev, symObjAddr: 0x11048, symBinAddr: 0x100014B48, symSize: 0x1C }
  - { offsetInCU: 0x78820, offset: 0x78820, size: 0x8, addend: 0x0, symName: __ZNKSt3__16vectorIPK7RequestNS_9allocatorIS3_EEE8capacityB7v160006Ev, symObjAddr: 0x11064, symBinAddr: 0x100014B64, symSize: 0x40 }
  - { offsetInCU: 0x78851, offset: 0x78851, size: 0x8, addend: 0x0, symName: __ZNSt3__116allocator_traitsINS_9allocatorIPK7RequestEEE8max_sizeB7v160006IS5_vEEmRKS5_, symObjAddr: 0x110A4, symBinAddr: 0x100014BA4, symSize: 0x24 }
  - { offsetInCU: 0x7887F, offset: 0x7887F, size: 0x8, addend: 0x0, symName: __ZNKSt3__16vectorIPK7RequestNS_9allocatorIS3_EEE7__allocB7v160006Ev, symObjAddr: 0x110C8, symBinAddr: 0x100014BC8, symSize: 0x28 }
  - { offsetInCU: 0x788A5, offset: 0x788A5, size: 0x8, addend: 0x0, symName: __ZNKSt3__19allocatorIPK7RequestE8max_sizeB7v160006Ev, symObjAddr: 0x110F0, symBinAddr: 0x100014BF0, symSize: 0x14 }
  - { offsetInCU: 0x788CB, offset: 0x788CB, size: 0x8, addend: 0x0, symName: __ZNKSt3__117__compressed_pairIPPK7RequestNS_9allocatorIS3_EEE6secondB7v160006Ev, symObjAddr: 0x11104, symBinAddr: 0x100014C04, symSize: 0x24 }
  - { offsetInCU: 0x788F1, offset: 0x788F1, size: 0x8, addend: 0x0, symName: __ZNKSt3__122__compressed_pair_elemINS_9allocatorIPK7RequestEELi1ELb1EE5__getB7v160006Ev, symObjAddr: 0x11128, symBinAddr: 0x100014C28, symSize: 0x14 }
  - { offsetInCU: 0x78917, offset: 0x78917, size: 0x8, addend: 0x0, symName: __ZNKSt3__16vectorIPK7RequestNS_9allocatorIS3_EEE9__end_capB7v160006Ev, symObjAddr: 0x1113C, symBinAddr: 0x100014C3C, symSize: 0x28 }
  - { offsetInCU: 0x7893D, offset: 0x7893D, size: 0x8, addend: 0x0, symName: __ZNKSt3__117__compressed_pairIPPK7RequestNS_9allocatorIS3_EEE5firstB7v160006Ev, symObjAddr: 0x11164, symBinAddr: 0x100014C64, symSize: 0x24 }
  - { offsetInCU: 0x78963, offset: 0x78963, size: 0x8, addend: 0x0, symName: __ZNKSt3__122__compressed_pair_elemIPPK7RequestLi0ELb0EE5__getB7v160006Ev, symObjAddr: 0x11188, symBinAddr: 0x100014C88, symSize: 0x14 }
  - { offsetInCU: 0x78989, offset: 0x78989, size: 0x8, addend: 0x0, symName: __ZNSt3__114__split_bufferIPK7RequestRNS_9allocatorIS3_EEEC2EmmS6_, symObjAddr: 0x1119C, symBinAddr: 0x100014C9C, symSize: 0xD4 }
  - { offsetInCU: 0x789FC, offset: 0x789FC, size: 0x8, addend: 0x0, symName: __ZNSt3__117__compressed_pairIPPK7RequestRNS_9allocatorIS3_EEEC1B7v160006IDnS7_EEOT_OT0_, symObjAddr: 0x11270, symBinAddr: 0x100014D70, symSize: 0x3C }
  - { offsetInCU: 0x78A54, offset: 0x78A54, size: 0x8, addend: 0x0, symName: __ZNSt3__114__split_bufferIPK7RequestRNS_9allocatorIS3_EEE7__allocB7v160006Ev, symObjAddr: 0x112EC, symBinAddr: 0x100014DEC, symSize: 0x28 }
  - { offsetInCU: 0x78A7A, offset: 0x78A7A, size: 0x8, addend: 0x0, symName: __ZNSt3__114__split_bufferIPK7RequestRNS_9allocatorIS3_EEE9__end_capB7v160006Ev, symObjAddr: 0x11314, symBinAddr: 0x100014E14, symSize: 0x28 }
  - { offsetInCU: 0x78AA0, offset: 0x78AA0, size: 0x8, addend: 0x0, symName: __ZNSt3__117__compressed_pairIPPK7RequestRNS_9allocatorIS3_EEEC2B7v160006IDnS7_EEOT_OT0_, symObjAddr: 0x1133C, symBinAddr: 0x100014E3C, symSize: 0x48 }
  - { offsetInCU: 0x78AF8, offset: 0x78AF8, size: 0x8, addend: 0x0, symName: __ZNSt3__122__compressed_pair_elemIRNS_9allocatorIPK7RequestEELi1ELb0EEC2B7v160006IS6_vEEOT_, symObjAddr: 0x11384, symBinAddr: 0x100014E84, symSize: 0x20 }
  - { offsetInCU: 0x78B3A, offset: 0x78B3A, size: 0x8, addend: 0x0, symName: __ZNSt3__19allocatorIPK7RequestE8allocateB7v160006Em, symObjAddr: 0x113A4, symBinAddr: 0x100014EA4, symSize: 0x58 }
  - { offsetInCU: 0x78B6E, offset: 0x78B6E, size: 0x8, addend: 0x0, symName: __ZNSt3__117__compressed_pairIPPK7RequestRNS_9allocatorIS3_EEE6secondB7v160006Ev, symObjAddr: 0x113FC, symBinAddr: 0x100014EFC, symSize: 0x28 }
  - { offsetInCU: 0x78B94, offset: 0x78B94, size: 0x8, addend: 0x0, symName: __ZNSt3__122__compressed_pair_elemIRNS_9allocatorIPK7RequestEELi1ELb0EE5__getB7v160006Ev, symObjAddr: 0x11424, symBinAddr: 0x100014F24, symSize: 0x18 }
  - { offsetInCU: 0x78BBA, offset: 0x78BBA, size: 0x8, addend: 0x0, symName: __ZNSt3__117__compressed_pairIPPK7RequestRNS_9allocatorIS3_EEE5firstB7v160006Ev, symObjAddr: 0x1143C, symBinAddr: 0x100014F3C, symSize: 0x24 }
  - { offsetInCU: 0x78BE0, offset: 0x78BE0, size: 0x8, addend: 0x0, symName: __ZNKSt3__16vectorIPK7RequestNS_9allocatorIS3_EEE17__annotate_deleteB7v160006Ev, symObjAddr: 0x11460, symBinAddr: 0x100014F60, symSize: 0xB8 }
  - { offsetInCU: 0x78C06, offset: 0x78C06, size: 0x8, addend: 0x0, symName: __ZNSt3__116reverse_iteratorIPPK7RequestEC1B7v160006ES4_, symObjAddr: 0x11590, symBinAddr: 0x100015090, symSize: 0x34 }
  - { offsetInCU: 0x78C3E, offset: 0x78C3E, size: 0x8, addend: 0x0, symName: __ZNKSt3__116reverse_iteratorIPPK7RequestE4baseB7v160006Ev, symObjAddr: 0x115C4, symBinAddr: 0x1000150C4, symSize: 0x18 }
  - { offsetInCU: 0x78C64, offset: 0x78C64, size: 0x8, addend: 0x0, symName: __ZNKSt3__16vectorIPK7RequestNS_9allocatorIS3_EEE14__annotate_newB7v160006Em, symObjAddr: 0x11618, symBinAddr: 0x100015118, symSize: 0xAC }
  - { offsetInCU: 0x78C99, offset: 0x78C99, size: 0x8, addend: 0x0, symName: __ZNKSt3__16vectorIPK7RequestNS_9allocatorIS3_EEE31__annotate_contiguous_containerB7v160006EPKvS8_S8_S8_, symObjAddr: 0x116D4, symBinAddr: 0x1000151D4, symSize: 0x20 }
  - { offsetInCU: 0x78CEF, offset: 0x78CEF, size: 0x8, addend: 0x0, symName: __ZNKSt3__16vectorIPK7RequestNS_9allocatorIS3_EEE4dataB7v160006Ev, symObjAddr: 0x116F4, symBinAddr: 0x1000151F4, symSize: 0x28 }
  - { offsetInCU: 0x78D32, offset: 0x78D32, size: 0x8, addend: 0x0, symName: __ZNKSt3__111__move_loopINS_17_ClassicAlgPolicyEEclB7v160006INS_16reverse_iteratorIPPK7RequestEES9_S9_EENS_4pairIT_T1_EESB_T0_SC_, symObjAddr: 0x11A0C, symBinAddr: 0x10001550C, symSize: 0xA0 }
  - { offsetInCU: 0x78DA9, offset: 0x78DA9, size: 0x8, addend: 0x0, symName: __ZNSt3__18_IterOpsINS_17_ClassicAlgPolicyEE11__iter_moveB7v160006IRNS_16reverse_iteratorIPPK7RequestEEEENS_9enable_ifIXsr12is_referenceIDTdeclsr3stdE7declvalIRT_EEEEE5valueEDTclsr3stdE4movedeclsr3stdE7declvalISD_EEEEE4typeEOSC_, symObjAddr: 0x11C40, symBinAddr: 0x100015740, symSize: 0x28 }
  - { offsetInCU: 0x78DD7, offset: 0x78DD7, size: 0x8, addend: 0x0, symName: __ZNKSt3__116reverse_iteratorIPPK7RequestEdeB7v160006Ev, symObjAddr: 0x11C68, symBinAddr: 0x100015768, symSize: 0x28 }
  - { offsetInCU: 0x78E0B, offset: 0x78E0B, size: 0x8, addend: 0x0, symName: __ZNSt3__116reverse_iteratorIPPK7RequestEppB7v160006Ev, symObjAddr: 0x11C90, symBinAddr: 0x100015790, symSize: 0x20 }
  - { offsetInCU: 0x78E31, offset: 0x78E31, size: 0x8, addend: 0x0, symName: __ZNSt3__18_IterOpsINS_17_ClassicAlgPolicyEE25__validate_iter_referenceB7v160006IRNS_16reverse_iteratorIPPK7RequestEEEEvv, symObjAddr: 0x11CB0, symBinAddr: 0x1000157B0, symSize: 0x4 }
  - { offsetInCU: 0x78E4F, offset: 0x78E4F, size: 0x8, addend: 0x0, symName: __ZNSt3__118__unwrap_iter_implINS_16reverse_iteratorIPPK7RequestEELb0EE8__unwrapB7v160006ES6_, symObjAddr: 0x11CB4, symBinAddr: 0x1000157B4, symSize: 0x24 }
  - { offsetInCU: 0x78E7A, offset: 0x78E7A, size: 0x8, addend: 0x0, symName: __ZNSt3__14pairINS_16reverse_iteratorIPPK7RequestEES6_EC1B7v160006IS6_S6_LPv0EEEOT_OT0_, symObjAddr: 0x11CD8, symBinAddr: 0x1000157D8, symSize: 0x3C }
  - { offsetInCU: 0x78ED8, offset: 0x78ED8, size: 0x8, addend: 0x0, symName: __ZNSt3__14pairINS_16reverse_iteratorIPPK7RequestEES6_EC2B7v160006IS6_S6_LPv0EEEOT_OT0_, symObjAddr: 0x11D14, symBinAddr: 0x100015814, symSize: 0x34 }
  - { offsetInCU: 0x78F36, offset: 0x78F36, size: 0x8, addend: 0x0, symName: __ZNSt3__118__unwrap_iter_implINS_16reverse_iteratorIPPK7RequestEELb0EE8__rewrapB7v160006ES6_S6_, symObjAddr: 0x11D48, symBinAddr: 0x100015848, symSize: 0x2C }
  - { offsetInCU: 0x78F67, offset: 0x78F67, size: 0x8, addend: 0x0, symName: __ZNSt3__116reverse_iteratorIPPK7RequestEC2B7v160006ES4_, symObjAddr: 0x11D74, symBinAddr: 0x100015874, symSize: 0x28 }
  - { offsetInCU: 0x78F9F, offset: 0x78F9F, size: 0x8, addend: 0x0, symName: __ZNSt3__114__split_bufferIPK7RequestRNS_9allocatorIS3_EEED2Ev, symObjAddr: 0x11D9C, symBinAddr: 0x10001589C, symSize: 0x8C }
  - { offsetInCU: 0x78FCB, offset: 0x78FCB, size: 0x8, addend: 0x0, symName: __ZNSt3__114__split_bufferIPK7RequestRNS_9allocatorIS3_EEE5clearB7v160006Ev, symObjAddr: 0x11E28, symBinAddr: 0x100015928, symSize: 0x28 }
  - { offsetInCU: 0x78FF1, offset: 0x78FF1, size: 0x8, addend: 0x0, symName: __ZNSt3__116allocator_traitsINS_9allocatorIPK7RequestEEE10deallocateB7v160006ERS5_PS4_m, symObjAddr: 0x11E50, symBinAddr: 0x100015950, symSize: 0x34 }
  - { offsetInCU: 0x79033, offset: 0x79033, size: 0x8, addend: 0x0, symName: __ZNKSt3__114__split_bufferIPK7RequestRNS_9allocatorIS3_EEE8capacityB7v160006Ev, symObjAddr: 0x11E84, symBinAddr: 0x100015984, symSize: 0x40 }
  - { offsetInCU: 0x79059, offset: 0x79059, size: 0x8, addend: 0x0, symName: __ZNSt3__114__split_bufferIPK7RequestRNS_9allocatorIS3_EEE17__destruct_at_endB7v160006EPS3_, symObjAddr: 0x11EC4, symBinAddr: 0x1000159C4, symSize: 0x2C }
  - { offsetInCU: 0x7908D, offset: 0x7908D, size: 0x8, addend: 0x0, symName: __ZNSt3__114__split_bufferIPK7RequestRNS_9allocatorIS3_EEE17__destruct_at_endB7v160006EPS3_NS_17integral_constantIbLb0EEE, symObjAddr: 0x11EF0, symBinAddr: 0x1000159F0, symSize: 0x80 }
  - { offsetInCU: 0x790CE, offset: 0x790CE, size: 0x8, addend: 0x0, symName: __ZNSt3__116allocator_traitsINS_9allocatorIPK7RequestEEE7destroyB7v160006IS4_vEEvRS5_PT_, symObjAddr: 0x11F70, symBinAddr: 0x100015A70, symSize: 0x2C }
  - { offsetInCU: 0x7910B, offset: 0x7910B, size: 0x8, addend: 0x0, symName: __ZNSt3__19allocatorIPK7RequestE7destroyB7v160006EPS3_, symObjAddr: 0x11F9C, symBinAddr: 0x100015A9C, symSize: 0x14 }
  - { offsetInCU: 0x7913F, offset: 0x7913F, size: 0x8, addend: 0x0, symName: __ZNSt3__19allocatorIPK7RequestE10deallocateB7v160006EPS3_m, symObjAddr: 0x11FB0, symBinAddr: 0x100015AB0, symSize: 0x40 }
  - { offsetInCU: 0x79181, offset: 0x79181, size: 0x8, addend: 0x0, symName: __ZNKSt3__114__split_bufferIPK7RequestRNS_9allocatorIS3_EEE9__end_capB7v160006Ev, symObjAddr: 0x11FF0, symBinAddr: 0x100015AF0, symSize: 0x28 }
  - { offsetInCU: 0x791A7, offset: 0x791A7, size: 0x8, addend: 0x0, symName: __ZNKSt3__117__compressed_pairIPPK7RequestRNS_9allocatorIS3_EEE5firstB7v160006Ev, symObjAddr: 0x12018, symBinAddr: 0x100015B18, symSize: 0x24 }
  - { offsetInCU: 0x791CD, offset: 0x791CD, size: 0x8, addend: 0x0, symName: __ZNSt3__16vectorI5RouteNS_9allocatorIS1_EEEaSB7v160006EOS4_, symObjAddr: 0x1203C, symBinAddr: 0x100015B3C, symSize: 0x34 }
  - { offsetInCU: 0x79204, offset: 0x79204, size: 0x8, addend: 0x0, symName: __ZNSt3__16vectorIcNS_9allocatorIcEEEaSB7v160006EOS3_, symObjAddr: 0x12070, symBinAddr: 0x100015B70, symSize: 0x34 }
  - { offsetInCU: 0x7923B, offset: 0x7923B, size: 0x8, addend: 0x0, symName: __ZNSt3__16vectorI5RouteNS_9allocatorIS1_EEE13__move_assignERS4_NS_17integral_constantIbLb1EEE, symObjAddr: 0x120A4, symBinAddr: 0x100015BA4, symSize: 0xAC }
  - { offsetInCU: 0x7927E, offset: 0x7927E, size: 0x8, addend: 0x0, symName: __ZNSt3__16vectorI5RouteNS_9allocatorIS1_EEE19__move_assign_allocB7v160006ERS4_, symObjAddr: 0x12150, symBinAddr: 0x100015C50, symSize: 0x2C }
  - { offsetInCU: 0x792B3, offset: 0x792B3, size: 0x8, addend: 0x0, symName: __ZNSt3__16vectorI5RouteNS_9allocatorIS1_EEE19__move_assign_allocB7v160006ERS4_NS_17integral_constantIbLb1EEE, symObjAddr: 0x12190, symBinAddr: 0x100015C90, symSize: 0x38 }
  - { offsetInCU: 0x792F4, offset: 0x792F4, size: 0x8, addend: 0x0, symName: __ZNSt3__16vectorIcNS_9allocatorIcEEE13__move_assignERS3_NS_17integral_constantIbLb1EEE, symObjAddr: 0x121C8, symBinAddr: 0x100015CC8, symSize: 0xAC }
  - { offsetInCU: 0x79337, offset: 0x79337, size: 0x8, addend: 0x0, symName: __ZNSt3__16vectorIcNS_9allocatorIcEEE19__move_assign_allocB7v160006ERS3_, symObjAddr: 0x12274, symBinAddr: 0x100015D74, symSize: 0x2C }
  - { offsetInCU: 0x7936C, offset: 0x7936C, size: 0x8, addend: 0x0, symName: __ZNSt3__16vectorIcNS_9allocatorIcEEE19__move_assign_allocB7v160006ERS3_NS_17integral_constantIbLb1EEE, symObjAddr: 0x122B4, symBinAddr: 0x100015DB4, symSize: 0x38 }
  - { offsetInCU: 0x793AD, offset: 0x793AD, size: 0x8, addend: 0x0, symName: __ZNSt3__16vectorIPK7RequestNS_9allocatorIS3_EEED2B7v160006Ev, symObjAddr: 0x122EC, symBinAddr: 0x100015DEC, symSize: 0x44 }
  - { offsetInCU: 0x793D7, offset: 0x793D7, size: 0x8, addend: 0x0, symName: __ZNSt3__16vectorIPK7RequestNS_9allocatorIS3_EEE16__destroy_vectorC1ERS6_, symObjAddr: 0x12330, symBinAddr: 0x100015E30, symSize: 0x34 }
  - { offsetInCU: 0x79410, offset: 0x79410, size: 0x8, addend: 0x0, symName: __ZNSt3__16vectorIPK7RequestNS_9allocatorIS3_EEE16__destroy_vectorclB7v160006Ev, symObjAddr: 0x12364, symBinAddr: 0x100015E64, symSize: 0x9C }
  - { offsetInCU: 0x79436, offset: 0x79436, size: 0x8, addend: 0x0, symName: __ZNSt3__16vectorIPK7RequestNS_9allocatorIS3_EEE16__destroy_vectorC2ERS6_, symObjAddr: 0x12400, symBinAddr: 0x100015F00, symSize: 0x20 }
  - { offsetInCU: 0x7946F, offset: 0x7946F, size: 0x8, addend: 0x0, symName: __ZNSt3__16vectorIPK7RequestNS_9allocatorIS3_EEE7__clearB7v160006Ev, symObjAddr: 0x12430, symBinAddr: 0x100015F30, symSize: 0x28 }
  - { offsetInCU: 0x79495, offset: 0x79495, size: 0x8, addend: 0x0, symName: __ZNSt3__16vectorIPK7RequestNS_9allocatorIS3_EEE22__base_destruct_at_endB7v160006EPS3_, symObjAddr: 0x12458, symBinAddr: 0x100015F58, symSize: 0x8C }
  - { offsetInCU: 0x794D9, offset: 0x794D9, size: 0x8, addend: 0x0, symName: __ZN13RandomRemovalC2Ev, symObjAddr: 0x124E4, symBinAddr: 0x100015FE4, symSize: 0xF4 }
  - { offsetInCU: 0x79503, offset: 0x79503, size: 0x8, addend: 0x0, symName: __ZN7mlpalns13DestroyMethodI15PDPTWT_solutionEC2Ev, symObjAddr: 0x125D8, symBinAddr: 0x1000160D8, symSize: 0x24 }
  - { offsetInCU: 0x7952D, offset: 0x7952D, size: 0x8, addend: 0x0, symName: __ZN12ConfigurableC2Ev, symObjAddr: 0x125FC, symBinAddr: 0x1000160FC, symSize: 0x40 }
  - { offsetInCU: 0x79559, offset: 0x79559, size: 0x8, addend: 0x0, symName: __ZN12Configurable13add_parameterENSt3__112basic_stringIcNS0_11char_traitsIcEENS0_9allocatorIcEEEEdddd, symObjAddr: 0x1263C, symBinAddr: 0x10001613C, symSize: 0xB8 }
  - { offsetInCU: 0x795C6, offset: 0x795C6, size: 0x8, addend: 0x0, symName: __ZN12ConfigurableD2Ev, symObjAddr: 0x126F4, symBinAddr: 0x1000161F4, symSize: 0x40 }
  - { offsetInCU: 0x795F0, offset: 0x795F0, size: 0x8, addend: 0x0, symName: __ZN7mlpalns13DestroyMethodI15PDPTWT_solutionED2Ev, symObjAddr: 0x12734, symBinAddr: 0x100016234, symSize: 0x14 }
  - { offsetInCU: 0x7961A, offset: 0x7961A, size: 0x8, addend: 0x0, symName: __ZN13RandomRemoval16destroy_solutionER15PDPTWT_solutionRNSt3__123mersenne_twister_engineIjLm32ELm624ELm397ELm31ELj2567483615ELm11ELj4294967295ELm7ELj2636928640ELm15ELj4022730752ELm18ELj1812433253EEE, symObjAddr: 0x12748, symBinAddr: 0x100016248, symSize: 0x158 }
  - { offsetInCU: 0x796BE, offset: 0x796BE, size: 0x8, addend: 0x0, symName: __ZNK13RandomRemoval5cloneEv, symObjAddr: 0x128A0, symBinAddr: 0x1000163A0, symSize: 0x48 }
  - { offsetInCU: 0x796E4, offset: 0x796E4, size: 0x8, addend: 0x0, symName: __ZN13RandomRemovalD0Ev, symObjAddr: 0x128E8, symBinAddr: 0x1000163E8, symSize: 0x30 }
  - { offsetInCU: 0x79710, offset: 0x79710, size: 0x8, addend: 0x0, symName: __ZThn8_N13RandomRemovalD1Ev, symObjAddr: 0x12918, symBinAddr: 0x100016418, symSize: 0x1C }
  - { offsetInCU: 0x79726, offset: 0x79726, size: 0x8, addend: 0x0, symName: __ZThn8_N13RandomRemovalD0Ev, symObjAddr: 0x12934, symBinAddr: 0x100016434, symSize: 0x18 }
  - { offsetInCU: 0x7973C, offset: 0x7973C, size: 0x8, addend: 0x0, symName: __ZN7mlpalns13DestroyMethodI15PDPTWT_solutionED1Ev, symObjAddr: 0x1294C, symBinAddr: 0x10001644C, symSize: 0x14 }
  - { offsetInCU: 0x79766, offset: 0x79766, size: 0x8, addend: 0x0, symName: __ZN7mlpalns13DestroyMethodI15PDPTWT_solutionED0Ev, symObjAddr: 0x12960, symBinAddr: 0x100016460, symSize: 0xC }
  - { offsetInCU: 0x79790, offset: 0x79790, size: 0x8, addend: 0x0, symName: __ZNSt3__13mapINS_12basic_stringIcNS_11char_traitsIcEENS_9allocatorIcEEEE9ParameterNS_4lessIS6_EENS4_INS_4pairIKS6_S7_EEEEEC1B7v160006Ev, symObjAddr: 0x1296C, symBinAddr: 0x10001646C, symSize: 0x2C }
  - { offsetInCU: 0x797BA, offset: 0x797BA, size: 0x8, addend: 0x0, symName: __ZN12ConfigurableD1Ev, symObjAddr: 0x12998, symBinAddr: 0x100016498, symSize: 0x2C }
  - { offsetInCU: 0x797E4, offset: 0x797E4, size: 0x8, addend: 0x0, symName: __ZN12ConfigurableD0Ev, symObjAddr: 0x129C4, symBinAddr: 0x1000164C4, symSize: 0x30 }
  - { offsetInCU: 0x7980E, offset: 0x7980E, size: 0x8, addend: 0x0, symName: __ZNSt3__13mapINS_12basic_stringIcNS_11char_traitsIcEENS_9allocatorIcEEEE9ParameterNS_4lessIS6_EENS4_INS_4pairIKS6_S7_EEEEEC2B7v160006Ev, symObjAddr: 0x129F4, symBinAddr: 0x1000164F4, symSize: 0x40 }
  - { offsetInCU: 0x79838, offset: 0x79838, size: 0x8, addend: 0x0, symName: __ZNSt3__119__map_value_compareINS_12basic_stringIcNS_11char_traitsIcEENS_9allocatorIcEEEENS_12__value_typeIS6_9ParameterEENS_4lessIS6_EELb1EEC1B7v160006ESB_, symObjAddr: 0x12A34, symBinAddr: 0x100016534, symSize: 0x2C }
  - { offsetInCU: 0x79871, offset: 0x79871, size: 0x8, addend: 0x0, symName: __ZNSt3__16__treeINS_12__value_typeINS_12basic_stringIcNS_11char_traitsIcEENS_9allocatorIcEEEE9ParameterEENS_19__map_value_compareIS7_S9_NS_4lessIS7_EELb1EEENS5_IS9_EEEC1ERKSD_, symObjAddr: 0x12A60, symBinAddr: 0x100016560, symSize: 0x34 }
  - { offsetInCU: 0x798AC, offset: 0x798AC, size: 0x8, addend: 0x0, symName: __ZNSt3__119__map_value_compareINS_12basic_stringIcNS_11char_traitsIcEENS_9allocatorIcEEEENS_12__value_typeIS6_9ParameterEENS_4lessIS6_EELb1EEC2B7v160006ESB_, symObjAddr: 0x12A94, symBinAddr: 0x100016594, symSize: 0x14 }
  - { offsetInCU: 0x798E5, offset: 0x798E5, size: 0x8, addend: 0x0, symName: __ZNSt3__16__treeINS_12__value_typeINS_12basic_stringIcNS_11char_traitsIcEENS_9allocatorIcEEEE9ParameterEENS_19__map_value_compareIS7_S9_NS_4lessIS7_EELb1EEENS5_IS9_EEEC2ERKSD_, symObjAddr: 0x12AA8, symBinAddr: 0x1000165A8, symSize: 0x7C }
  - { offsetInCU: 0x79920, offset: 0x79920, size: 0x8, addend: 0x0, symName: __ZNSt3__117__compressed_pairINS_15__tree_end_nodeIPNS_16__tree_node_baseIPvEEEENS_9allocatorINS_11__tree_nodeINS_12__value_typeINS_12basic_stringIcNS_11char_traitsIcEENS7_IcEEEE9ParameterEES3_EEEEEC1B7v160006ILb1EvEEv, symObjAddr: 0x12B24, symBinAddr: 0x100016624, symSize: 0x2C }
  - { offsetInCU: 0x7995B, offset: 0x7995B, size: 0x8, addend: 0x0, symName: __ZNSt3__117__compressed_pairImNS_19__map_value_compareINS_12basic_stringIcNS_11char_traitsIcEENS_9allocatorIcEEEENS_12__value_typeIS7_9ParameterEENS_4lessIS7_EELb1EEEEC1B7v160006IiRKSD_EEOT_OT0_, symObjAddr: 0x12B50, symBinAddr: 0x100016650, symSize: 0x3C }
  - { offsetInCU: 0x799B3, offset: 0x799B3, size: 0x8, addend: 0x0, symName: __ZNSt3__16__treeINS_12__value_typeINS_12basic_stringIcNS_11char_traitsIcEENS_9allocatorIcEEEE9ParameterEENS_19__map_value_compareIS7_S9_NS_4lessIS7_EELb1EEENS5_IS9_EEE10__end_nodeB7v160006Ev, symObjAddr: 0x12B8C, symBinAddr: 0x10001668C, symSize: 0x2C }
  - { offsetInCU: 0x799D9, offset: 0x799D9, size: 0x8, addend: 0x0, symName: __ZNSt3__16__treeINS_12__value_typeINS_12basic_stringIcNS_11char_traitsIcEENS_9allocatorIcEEEE9ParameterEENS_19__map_value_compareIS7_S9_NS_4lessIS7_EELb1EEENS5_IS9_EEE12__begin_nodeB7v160006Ev, symObjAddr: 0x12BB8, symBinAddr: 0x1000166B8, symSize: 0x14 }
  - { offsetInCU: 0x799FF, offset: 0x799FF, size: 0x8, addend: 0x0, symName: __ZNSt3__117__compressed_pairINS_15__tree_end_nodeIPNS_16__tree_node_baseIPvEEEENS_9allocatorINS_11__tree_nodeINS_12__value_typeINS_12basic_stringIcNS_11char_traitsIcEENS7_IcEEEE9ParameterEES3_EEEEEC2B7v160006ILb1EvEEv, symObjAddr: 0x12BCC, symBinAddr: 0x1000166CC, symSize: 0x34 }
  - { offsetInCU: 0x79A34, offset: 0x79A34, size: 0x8, addend: 0x0, symName: __ZNSt3__122__compressed_pair_elemINS_15__tree_end_nodeIPNS_16__tree_node_baseIPvEEEELi0ELb0EEC2B7v160006ENS_16__value_init_tagE, symObjAddr: 0x12C00, symBinAddr: 0x100016700, symSize: 0x2C }
  - { offsetInCU: 0x79A69, offset: 0x79A69, size: 0x8, addend: 0x0, symName: __ZNSt3__122__compressed_pair_elemINS_9allocatorINS_11__tree_nodeINS_12__value_typeINS_12basic_stringIcNS_11char_traitsIcEENS1_IcEEEE9ParameterEEPvEEEELi1ELb1EEC2B7v160006ENS_16__value_init_tagE, symObjAddr: 0x12C2C, symBinAddr: 0x10001672C, symSize: 0x2C }
  - { offsetInCU: 0x79A9E, offset: 0x79A9E, size: 0x8, addend: 0x0, symName: __ZNSt3__115__tree_end_nodeIPNS_16__tree_node_baseIPvEEEC1B7v160006Ev, symObjAddr: 0x12C58, symBinAddr: 0x100016758, symSize: 0x2C }
  - { offsetInCU: 0x79AC8, offset: 0x79AC8, size: 0x8, addend: 0x0, symName: __ZNSt3__115__tree_end_nodeIPNS_16__tree_node_baseIPvEEEC2B7v160006Ev, symObjAddr: 0x12C84, symBinAddr: 0x100016784, symSize: 0x18 }
  - { offsetInCU: 0x79AF2, offset: 0x79AF2, size: 0x8, addend: 0x0, symName: __ZNSt3__19allocatorINS_11__tree_nodeINS_12__value_typeINS_12basic_stringIcNS_11char_traitsIcEENS0_IcEEEE9ParameterEEPvEEEC2B7v160006Ev, symObjAddr: 0x12C9C, symBinAddr: 0x10001679C, symSize: 0x2C }
  - { offsetInCU: 0x79B1C, offset: 0x79B1C, size: 0x8, addend: 0x0, symName: __ZNSt3__116__non_trivial_ifILb1ENS_9allocatorINS_11__tree_nodeINS_12__value_typeINS_12basic_stringIcNS_11char_traitsIcEENS1_IcEEEE9ParameterEEPvEEEEEC2B7v160006Ev, symObjAddr: 0x12CC8, symBinAddr: 0x1000167C8, symSize: 0x14 }
  - { offsetInCU: 0x79B46, offset: 0x79B46, size: 0x8, addend: 0x0, symName: __ZNSt3__117__compressed_pairImNS_19__map_value_compareINS_12basic_stringIcNS_11char_traitsIcEENS_9allocatorIcEEEENS_12__value_typeIS7_9ParameterEENS_4lessIS7_EELb1EEEEC2B7v160006IiRKSD_EEOT_OT0_, symObjAddr: 0x12CDC, symBinAddr: 0x1000167DC, symSize: 0x44 }
  - { offsetInCU: 0x79B9E, offset: 0x79B9E, size: 0x8, addend: 0x0, symName: __ZNSt3__122__compressed_pair_elemImLi0ELb0EEC2B7v160006IivEEOT_, symObjAddr: 0x12D20, symBinAddr: 0x100016820, symSize: 0x24 }
  - { offsetInCU: 0x79BE0, offset: 0x79BE0, size: 0x8, addend: 0x0, symName: __ZNSt3__122__compressed_pair_elemINS_19__map_value_compareINS_12basic_stringIcNS_11char_traitsIcEENS_9allocatorIcEEEENS_12__value_typeIS7_9ParameterEENS_4lessIS7_EELb1EEELi1ELb1EEC2B7v160006IRKSD_vEEOT_, symObjAddr: 0x12D44, symBinAddr: 0x100016844, symSize: 0x18 }
  - { offsetInCU: 0x79C22, offset: 0x79C22, size: 0x8, addend: 0x0, symName: __ZNSt3__114pointer_traitsIPNS_15__tree_end_nodeIPNS_16__tree_node_baseIPvEEEEE10pointer_toB7v160006ERS6_, symObjAddr: 0x12D5C, symBinAddr: 0x10001685C, symSize: 0x14 }
  - { offsetInCU: 0x79C45, offset: 0x79C45, size: 0x8, addend: 0x0, symName: __ZNSt3__117__compressed_pairINS_15__tree_end_nodeIPNS_16__tree_node_baseIPvEEEENS_9allocatorINS_11__tree_nodeINS_12__value_typeINS_12basic_stringIcNS_11char_traitsIcEENS7_IcEEEE9ParameterEES3_EEEEE5firstB7v160006Ev, symObjAddr: 0x12D70, symBinAddr: 0x100016870, symSize: 0x24 }
  - { offsetInCU: 0x79C6B, offset: 0x79C6B, size: 0x8, addend: 0x0, symName: __ZNSt3__122__compressed_pair_elemINS_15__tree_end_nodeIPNS_16__tree_node_baseIPvEEEELi0ELb0EE5__getB7v160006Ev, symObjAddr: 0x12D94, symBinAddr: 0x100016894, symSize: 0x14 }
  - { offsetInCU: 0x79C91, offset: 0x79C91, size: 0x8, addend: 0x0, symName: __ZNSt3__13mapINS_12basic_stringIcNS_11char_traitsIcEENS_9allocatorIcEEEE9ParameterNS_4lessIS6_EENS4_INS_4pairIKS6_S7_EEEEEixERSB_, symObjAddr: 0x12DA8, symBinAddr: 0x1000168A8, symSize: 0x80 }
  - { offsetInCU: 0x79CDA, offset: 0x79CDA, size: 0x8, addend: 0x0, symName: __ZN9ParameteraSEOS_, symObjAddr: 0x12E28, symBinAddr: 0x100016928, symSize: 0x48 }
  - { offsetInCU: 0x79D0B, offset: 0x79D0B, size: 0x8, addend: 0x0, symName: __ZN9ParameterD1Ev, symObjAddr: 0x12E70, symBinAddr: 0x100016970, symSize: 0x2C }
  - { offsetInCU: 0x79D4F, offset: 0x79D4F, size: 0x8, addend: 0x0, symName: __ZNSt3__16__treeINS_12__value_typeINS_12basic_stringIcNS_11char_traitsIcEENS_9allocatorIcEEEE9ParameterEENS_19__map_value_compareIS7_S9_NS_4lessIS7_EELb1EEENS5_IS9_EEE25__emplace_unique_key_argsIS7_JRKNS_21piecewise_construct_tENS_5tupleIJRKS7_EEENSK_IJEEEEEENS_4pairINS_15__tree_iteratorIS9_PNS_11__tree_nodeIS9_PvEElEEbEERKT_DpOT0_, symObjAddr: 0x12E9C, symBinAddr: 0x10001699C, symSize: 0x100 }
  - { offsetInCU: 0x79E25, offset: 0x79E25, size: 0x8, addend: 0x0, symName: __ZNKSt3__115__tree_iteratorINS_12__value_typeINS_12basic_stringIcNS_11char_traitsIcEENS_9allocatorIcEEEE9ParameterEEPNS_11__tree_nodeIS9_PvEElEptB7v160006Ev, symObjAddr: 0x12FCC, symBinAddr: 0x100016ACC, symSize: 0x2C }
  - { offsetInCU: 0x79E4B, offset: 0x79E4B, size: 0x8, addend: 0x0, symName: __ZNSt3__112__value_typeINS_12basic_stringIcNS_11char_traitsIcEENS_9allocatorIcEEEE9ParameterE11__get_valueB7v160006Ev, symObjAddr: 0x12FF8, symBinAddr: 0x100016AF8, symSize: 0x24 }
  - { offsetInCU: 0x79E71, offset: 0x79E71, size: 0x8, addend: 0x0, symName: __ZNSt3__16__treeINS_12__value_typeINS_12basic_stringIcNS_11char_traitsIcEENS_9allocatorIcEEEE9ParameterEENS_19__map_value_compareIS7_S9_NS_4lessIS7_EELb1EEENS5_IS9_EEE12__find_equalIS7_EERPNS_16__tree_node_baseIPvEERPNS_15__tree_end_nodeISK_EERKT_, symObjAddr: 0x1301C, symBinAddr: 0x100016B1C, symSize: 0x184 }
  - { offsetInCU: 0x79EDE, offset: 0x79EDE, size: 0x8, addend: 0x0, symName: __ZNSt3__16__treeINS_12__value_typeINS_12basic_stringIcNS_11char_traitsIcEENS_9allocatorIcEEEE9ParameterEENS_19__map_value_compareIS7_S9_NS_4lessIS7_EELb1EEENS5_IS9_EEE16__construct_nodeIJRKNS_21piecewise_construct_tENS_5tupleIJRKS7_EEENSK_IJEEEEEENS_10unique_ptrINS_11__tree_nodeIS9_PvEENS_22__tree_node_destructorINS5_ISS_EEEEEEDpOT_, symObjAddr: 0x131A0, symBinAddr: 0x100016CA0, symSize: 0x120 }
  - { offsetInCU: 0x79F67, offset: 0x79F67, size: 0x8, addend: 0x0, symName: __ZNSt3__16__treeINS_12__value_typeINS_12basic_stringIcNS_11char_traitsIcEENS_9allocatorIcEEEE9ParameterEENS_19__map_value_compareIS7_S9_NS_4lessIS7_EELb1EEENS5_IS9_EEE16__insert_node_atEPNS_15__tree_end_nodeIPNS_16__tree_node_baseIPvEEEERSK_SK_, symObjAddr: 0x132C0, symBinAddr: 0x100016DC0, symSize: 0xCC }
  - { offsetInCU: 0x79FBC, offset: 0x79FBC, size: 0x8, addend: 0x0, symName: __ZNKSt3__110unique_ptrINS_11__tree_nodeINS_12__value_typeINS_12basic_stringIcNS_11char_traitsIcEENS_9allocatorIcEEEE9ParameterEEPvEENS_22__tree_node_destructorINS6_ISC_EEEEE3getB7v160006Ev, symObjAddr: 0x1338C, symBinAddr: 0x100016E8C, symSize: 0x28 }
  - { offsetInCU: 0x79FE2, offset: 0x79FE2, size: 0x8, addend: 0x0, symName: __ZNSt3__110unique_ptrINS_11__tree_nodeINS_12__value_typeINS_12basic_stringIcNS_11char_traitsIcEENS_9allocatorIcEEEE9ParameterEEPvEENS_22__tree_node_destructorINS6_ISC_EEEEE7releaseB7v160006Ev, symObjAddr: 0x133B4, symBinAddr: 0x100016EB4, symSize: 0x44 }
  - { offsetInCU: 0x7A017, offset: 0x7A017, size: 0x8, addend: 0x0, symName: __ZNSt3__110unique_ptrINS_11__tree_nodeINS_12__value_typeINS_12basic_stringIcNS_11char_traitsIcEENS_9allocatorIcEEEE9ParameterEEPvEENS_22__tree_node_destructorINS6_ISC_EEEEED1B7v160006Ev, symObjAddr: 0x133F8, symBinAddr: 0x100016EF8, symSize: 0x2C }
  - { offsetInCU: 0x7A041, offset: 0x7A041, size: 0x8, addend: 0x0, symName: __ZNSt3__115__tree_iteratorINS_12__value_typeINS_12basic_stringIcNS_11char_traitsIcEENS_9allocatorIcEEEE9ParameterEEPNS_11__tree_nodeIS9_PvEElEC1B7v160006ESD_, symObjAddr: 0x13424, symBinAddr: 0x100016F24, symSize: 0x34 }
  - { offsetInCU: 0x7A080, offset: 0x7A080, size: 0x8, addend: 0x0, symName: __ZNSt3__14pairINS_15__tree_iteratorINS_12__value_typeINS_12basic_stringIcNS_11char_traitsIcEENS_9allocatorIcEEEE9ParameterEEPNS_11__tree_nodeISA_PvEElEEbEC1B7v160006ISF_RbLSC_0EEEOT_OT0_, symObjAddr: 0x13458, symBinAddr: 0x100016F58, symSize: 0x3C }
  - { offsetInCU: 0x7A0DE, offset: 0x7A0DE, size: 0x8, addend: 0x0, symName: __ZNKSt3__16__treeINS_12__value_typeINS_12basic_stringIcNS_11char_traitsIcEENS_9allocatorIcEEEE9ParameterEENS_19__map_value_compareIS7_S9_NS_4lessIS7_EELb1EEENS5_IS9_EEE6__rootB7v160006Ev, symObjAddr: 0x13494, symBinAddr: 0x100016F94, symSize: 0x28 }
  - { offsetInCU: 0x7A104, offset: 0x7A104, size: 0x8, addend: 0x0, symName: __ZNKSt3__16__treeINS_12__value_typeINS_12basic_stringIcNS_11char_traitsIcEENS_9allocatorIcEEEE9ParameterEENS_19__map_value_compareIS7_S9_NS_4lessIS7_EELb1EEENS5_IS9_EEE10__root_ptrEv, symObjAddr: 0x134BC, symBinAddr: 0x100016FBC, symSize: 0x24 }
  - { offsetInCU: 0x7A12A, offset: 0x7A12A, size: 0x8, addend: 0x0, symName: __ZNSt3__16__treeINS_12__value_typeINS_12basic_stringIcNS_11char_traitsIcEENS_9allocatorIcEEEE9ParameterEENS_19__map_value_compareIS7_S9_NS_4lessIS7_EELb1EEENS5_IS9_EEE10value_compB7v160006Ev, symObjAddr: 0x134E0, symBinAddr: 0x100016FE0, symSize: 0x28 }
  - { offsetInCU: 0x7A150, offset: 0x7A150, size: 0x8, addend: 0x0, symName: __ZNKSt3__119__map_value_compareINS_12basic_stringIcNS_11char_traitsIcEENS_9allocatorIcEEEENS_12__value_typeIS6_9ParameterEENS_4lessIS6_EELb1EEclB7v160006ERKS6_RKS9_, symObjAddr: 0x13508, symBinAddr: 0x100017008, symSize: 0x50 }
  - { offsetInCU: 0x7A194, offset: 0x7A194, size: 0x8, addend: 0x0, symName: __ZNKSt3__119__map_value_compareINS_12basic_stringIcNS_11char_traitsIcEENS_9allocatorIcEEEENS_12__value_typeIS6_9ParameterEENS_4lessIS6_EELb1EEclB7v160006ERKS9_RKS6_, symObjAddr: 0x13558, symBinAddr: 0x100017058, symSize: 0x48 }
  - { offsetInCU: 0x7A1D8, offset: 0x7A1D8, size: 0x8, addend: 0x0, symName: __ZNKSt3__16__treeINS_12__value_typeINS_12basic_stringIcNS_11char_traitsIcEENS_9allocatorIcEEEE9ParameterEENS_19__map_value_compareIS7_S9_NS_4lessIS7_EELb1EEENS5_IS9_EEE10__end_nodeB7v160006Ev, symObjAddr: 0x135A0, symBinAddr: 0x1000170A0, symSize: 0x2C }
  - { offsetInCU: 0x7A1FE, offset: 0x7A1FE, size: 0x8, addend: 0x0, symName: __ZNKSt3__117__compressed_pairINS_15__tree_end_nodeIPNS_16__tree_node_baseIPvEEEENS_9allocatorINS_11__tree_nodeINS_12__value_typeINS_12basic_stringIcNS_11char_traitsIcEENS7_IcEEEE9ParameterEES3_EEEEE5firstB7v160006Ev, symObjAddr: 0x135CC, symBinAddr: 0x1000170CC, symSize: 0x24 }
  - { offsetInCU: 0x7A224, offset: 0x7A224, size: 0x8, addend: 0x0, symName: __ZNKSt3__122__compressed_pair_elemINS_15__tree_end_nodeIPNS_16__tree_node_baseIPvEEEELi0ELb0EE5__getB7v160006Ev, symObjAddr: 0x135F0, symBinAddr: 0x1000170F0, symSize: 0x14 }
  - { offsetInCU: 0x7A24A, offset: 0x7A24A, size: 0x8, addend: 0x0, symName: __ZNSt3__117__compressed_pairImNS_19__map_value_compareINS_12basic_stringIcNS_11char_traitsIcEENS_9allocatorIcEEEENS_12__value_typeIS7_9ParameterEENS_4lessIS7_EELb1EEEE6secondB7v160006Ev, symObjAddr: 0x13604, symBinAddr: 0x100017104, symSize: 0x24 }
  - { offsetInCU: 0x7A270, offset: 0x7A270, size: 0x8, addend: 0x0, symName: __ZNSt3__122__compressed_pair_elemINS_19__map_value_compareINS_12basic_stringIcNS_11char_traitsIcEENS_9allocatorIcEEEENS_12__value_typeIS7_9ParameterEENS_4lessIS7_EELb1EEELi1ELb1EE5__getB7v160006Ev, symObjAddr: 0x13628, symBinAddr: 0x100017128, symSize: 0x14 }
  - { offsetInCU: 0x7A296, offset: 0x7A296, size: 0x8, addend: 0x0, symName: __ZNKSt3__14lessINS_12basic_stringIcNS_11char_traitsIcEENS_9allocatorIcEEEEEclB7v160006ERKS6_S9_, symObjAddr: 0x1363C, symBinAddr: 0x10001713C, symSize: 0x34 }
  - { offsetInCU: 0x7A2DA, offset: 0x7A2DA, size: 0x8, addend: 0x0, symName: __ZNKSt3__112__value_typeINS_12basic_stringIcNS_11char_traitsIcEENS_9allocatorIcEEEE9ParameterE11__get_valueB7v160006Ev, symObjAddr: 0x13670, symBinAddr: 0x100017170, symSize: 0x24 }
  - { offsetInCU: 0x7A300, offset: 0x7A300, size: 0x8, addend: 0x0, symName: __ZNKSt3__112basic_stringIcNS_11char_traitsIcEENS_9allocatorIcEEE7compareB7v160006ERKS5_, symObjAddr: 0x136CC, symBinAddr: 0x1000171CC, symSize: 0x4C }
  - { offsetInCU: 0x7A337, offset: 0x7A337, size: 0x8, addend: 0x0, symName: __ZNKSt3__112basic_stringIcNS_11char_traitsIcEENS_9allocatorIcEEE7compareINS_17basic_string_viewIcS2_EEEENS_9enable_ifIXsr33__can_be_converted_to_string_viewIcS2_T_EE5valueEiE4typeERKSA_, symObjAddr: 0x13718, symBinAddr: 0x100017218, symSize: 0x12C }
  - { offsetInCU: 0x7A3B4, offset: 0x7A3B4, size: 0x8, addend: 0x0, symName: __ZNKSt3__112basic_stringIcNS_11char_traitsIcEENS_9allocatorIcEEEcvNS_17basic_string_viewIcS2_EEB7v160006Ev, symObjAddr: 0x13844, symBinAddr: 0x100017344, symSize: 0x50 }
  - { offsetInCU: 0x7A3DA, offset: 0x7A3DA, size: 0x8, addend: 0x0, symName: __ZNKSt3__112basic_stringIcNS_11char_traitsIcEENS_9allocatorIcEEE4sizeB7v160006Ev, symObjAddr: 0x13894, symBinAddr: 0x100017394, symSize: 0x54 }
  - { offsetInCU: 0x7A400, offset: 0x7A400, size: 0x8, addend: 0x0, symName: __ZNKSt3__117basic_string_viewIcNS_11char_traitsIcEEE4sizeB7v160006Ev, symObjAddr: 0x138E8, symBinAddr: 0x1000173E8, symSize: 0x18 }
  - { offsetInCU: 0x7A426, offset: 0x7A426, size: 0x8, addend: 0x0, symName: __ZNSt3__111char_traitsIcE7compareEPKcS3_m, symObjAddr: 0x13900, symBinAddr: 0x100017400, symSize: 0x6C }
  - { offsetInCU: 0x7A465, offset: 0x7A465, size: 0x8, addend: 0x0, symName: __ZNKSt3__112basic_stringIcNS_11char_traitsIcEENS_9allocatorIcEEE4dataB7v160006Ev, symObjAddr: 0x1396C, symBinAddr: 0x10001746C, symSize: 0x28 }
  - { offsetInCU: 0x7A48B, offset: 0x7A48B, size: 0x8, addend: 0x0, symName: __ZNKSt3__117basic_string_viewIcNS_11char_traitsIcEEE4dataB7v160006Ev, symObjAddr: 0x13994, symBinAddr: 0x100017494, symSize: 0x18 }
  - { offsetInCU: 0x7A4B1, offset: 0x7A4B1, size: 0x8, addend: 0x0, symName: __ZNKSt3__112basic_stringIcNS_11char_traitsIcEENS_9allocatorIcEEE9__is_longB7v160006Ev, symObjAddr: 0x139AC, symBinAddr: 0x1000174AC, symSize: 0x38 }
  - { offsetInCU: 0x7A4D7, offset: 0x7A4D7, size: 0x8, addend: 0x0, symName: __ZNKSt3__112basic_stringIcNS_11char_traitsIcEENS_9allocatorIcEEE15__get_long_sizeB7v160006Ev, symObjAddr: 0x139E4, symBinAddr: 0x1000174E4, symSize: 0x28 }
  - { offsetInCU: 0x7A4FD, offset: 0x7A4FD, size: 0x8, addend: 0x0, symName: __ZNKSt3__112basic_stringIcNS_11char_traitsIcEENS_9allocatorIcEEE16__get_short_sizeB7v160006Ev, symObjAddr: 0x13A0C, symBinAddr: 0x10001750C, symSize: 0x34 }
  - { offsetInCU: 0x7A523, offset: 0x7A523, size: 0x8, addend: 0x0, symName: __ZNKSt3__117__compressed_pairINS_12basic_stringIcNS_11char_traitsIcEENS_9allocatorIcEEE5__repES5_E5firstB7v160006Ev, symObjAddr: 0x13A40, symBinAddr: 0x100017540, symSize: 0x24 }
  - { offsetInCU: 0x7A549, offset: 0x7A549, size: 0x8, addend: 0x0, symName: __ZNKSt3__122__compressed_pair_elemINS_12basic_stringIcNS_11char_traitsIcEENS_9allocatorIcEEE5__repELi0ELb0EE5__getB7v160006Ev, symObjAddr: 0x13A64, symBinAddr: 0x100017564, symSize: 0x14 }
  - { offsetInCU: 0x7A56F, offset: 0x7A56F, size: 0x8, addend: 0x0, symName: __ZNKSt3__112basic_stringIcNS_11char_traitsIcEENS_9allocatorIcEEE13__get_pointerB7v160006Ev, symObjAddr: 0x13AC0, symBinAddr: 0x1000175C0, symSize: 0x54 }
  - { offsetInCU: 0x7A595, offset: 0x7A595, size: 0x8, addend: 0x0, symName: __ZNKSt3__112basic_stringIcNS_11char_traitsIcEENS_9allocatorIcEEE18__get_long_pointerB7v160006Ev, symObjAddr: 0x13B14, symBinAddr: 0x100017614, symSize: 0x28 }
  - { offsetInCU: 0x7A5BB, offset: 0x7A5BB, size: 0x8, addend: 0x0, symName: __ZNKSt3__112basic_stringIcNS_11char_traitsIcEENS_9allocatorIcEEE19__get_short_pointerB7v160006Ev, symObjAddr: 0x13B3C, symBinAddr: 0x10001763C, symSize: 0x28 }
  - { offsetInCU: 0x7A5E1, offset: 0x7A5E1, size: 0x8, addend: 0x0, symName: __ZNSt3__114pointer_traitsIPKcE10pointer_toB7v160006ERS1_, symObjAddr: 0x13B64, symBinAddr: 0x100017664, symSize: 0x14 }
  - { offsetInCU: 0x7A604, offset: 0x7A604, size: 0x8, addend: 0x0, symName: __ZNSt3__117basic_string_viewIcNS_11char_traitsIcEEEC1B7v160006EPKcm, symObjAddr: 0x13B78, symBinAddr: 0x100017678, symSize: 0x3C }
  - { offsetInCU: 0x7A64C, offset: 0x7A64C, size: 0x8, addend: 0x0, symName: __ZNSt3__117basic_string_viewIcNS_11char_traitsIcEEEC2B7v160006EPKcm, symObjAddr: 0x13BB4, symBinAddr: 0x1000176B4, symSize: 0x50 }
  - { offsetInCU: 0x7A694, offset: 0x7A694, size: 0x8, addend: 0x0, symName: __ZNSt3__16__treeINS_12__value_typeINS_12basic_stringIcNS_11char_traitsIcEENS_9allocatorIcEEEE9ParameterEENS_19__map_value_compareIS7_S9_NS_4lessIS7_EELb1EEENS5_IS9_EEE12__node_allocB7v160006Ev, symObjAddr: 0x13C3C, symBinAddr: 0x10001773C, symSize: 0x28 }
  - { offsetInCU: 0x7A6BA, offset: 0x7A6BA, size: 0x8, addend: 0x0, symName: __ZNSt3__116allocator_traitsINS_9allocatorINS_11__tree_nodeINS_12__value_typeINS_12basic_stringIcNS_11char_traitsIcEENS1_IcEEEE9ParameterEEPvEEEEE8allocateB7v160006ERSD_m, symObjAddr: 0x13C64, symBinAddr: 0x100017764, symSize: 0x2C }
  - { offsetInCU: 0x7A6ED, offset: 0x7A6ED, size: 0x8, addend: 0x0, symName: __ZNSt3__122__tree_node_destructorINS_9allocatorINS_11__tree_nodeINS_12__value_typeINS_12basic_stringIcNS_11char_traitsIcEENS1_IcEEEE9ParameterEEPvEEEEEC1B7v160006ERSD_b, symObjAddr: 0x13C90, symBinAddr: 0x100017790, symSize: 0x48 }
  - { offsetInCU: 0x7A73B, offset: 0x7A73B, size: 0x8, addend: 0x0, symName: __ZNSt3__110unique_ptrINS_11__tree_nodeINS_12__value_typeINS_12basic_stringIcNS_11char_traitsIcEENS_9allocatorIcEEEE9ParameterEEPvEENS_22__tree_node_destructorINS6_ISC_EEEEEC1B7v160006ILb1EvEEPSC_NS_16__dependent_typeINS_27__unique_ptr_deleter_sfinaeISF_EEXT_EE20__good_rval_ref_typeE, symObjAddr: 0x13CD8, symBinAddr: 0x1000177D8, symSize: 0x3C }
  - { offsetInCU: 0x7A78C, offset: 0x7A78C, size: 0x8, addend: 0x0, symName: __ZNSt3__116allocator_traitsINS_9allocatorINS_11__tree_nodeINS_12__value_typeINS_12basic_stringIcNS_11char_traitsIcEENS1_IcEEEE9ParameterEEPvEEEEE9constructB7v160006INS_4pairIKS8_S9_EEJRKNS_21piecewise_construct_tENS_5tupleIJRSH_EEENSM_IJEEEEvEEvRSD_PT_DpOT0_, symObjAddr: 0x13D14, symBinAddr: 0x100017814, symSize: 0x44 }
  - { offsetInCU: 0x7A80B, offset: 0x7A80B, size: 0x8, addend: 0x0, symName: __ZNSt3__122__tree_key_value_typesINS_12__value_typeINS_12basic_stringIcNS_11char_traitsIcEENS_9allocatorIcEEEE9ParameterEEE9__get_ptrB7v160006ERS9_, symObjAddr: 0x13D58, symBinAddr: 0x100017858, symSize: 0x24 }
  - { offsetInCU: 0x7A82F, offset: 0x7A82F, size: 0x8, addend: 0x0, symName: __ZNKSt3__110unique_ptrINS_11__tree_nodeINS_12__value_typeINS_12basic_stringIcNS_11char_traitsIcEENS_9allocatorIcEEEE9ParameterEEPvEENS_22__tree_node_destructorINS6_ISC_EEEEEptB7v160006Ev, symObjAddr: 0x13D7C, symBinAddr: 0x10001787C, symSize: 0x28 }
  - { offsetInCU: 0x7A855, offset: 0x7A855, size: 0x8, addend: 0x0, symName: __ZNSt3__110unique_ptrINS_11__tree_nodeINS_12__value_typeINS_12basic_stringIcNS_11char_traitsIcEENS_9allocatorIcEEEE9ParameterEEPvEENS_22__tree_node_destructorINS6_ISC_EEEEE11get_deleterB7v160006Ev, symObjAddr: 0x13DA4, symBinAddr: 0x1000178A4, symSize: 0x24 }
  - { offsetInCU: 0x7A87B, offset: 0x7A87B, size: 0x8, addend: 0x0, symName: __ZNSt3__117__compressed_pairINS_15__tree_end_nodeIPNS_16__tree_node_baseIPvEEEENS_9allocatorINS_11__tree_nodeINS_12__value_typeINS_12basic_stringIcNS_11char_traitsIcEENS7_IcEEEE9ParameterEES3_EEEEE6secondB7v160006Ev, symObjAddr: 0x13DC8, symBinAddr: 0x1000178C8, symSize: 0x24 }
  - { offsetInCU: 0x7A8A1, offset: 0x7A8A1, size: 0x8, addend: 0x0, symName: __ZNSt3__122__compressed_pair_elemINS_9allocatorINS_11__tree_nodeINS_12__value_typeINS_12basic_stringIcNS_11char_traitsIcEENS1_IcEEEE9ParameterEEPvEEEELi1ELb1EE5__getB7v160006Ev, symObjAddr: 0x13DEC, symBinAddr: 0x1000178EC, symSize: 0x14 }
  - { offsetInCU: 0x7A8C7, offset: 0x7A8C7, size: 0x8, addend: 0x0, symName: __ZNSt3__19allocatorINS_11__tree_nodeINS_12__value_typeINS_12basic_stringIcNS_11char_traitsIcEENS0_IcEEEE9ParameterEEPvEEE8allocateB7v160006Em, symObjAddr: 0x13E00, symBinAddr: 0x100017900, symSize: 0x5C }
  - { offsetInCU: 0x7A906, offset: 0x7A906, size: 0x8, addend: 0x0, symName: __ZNSt3__116allocator_traitsINS_9allocatorINS_11__tree_nodeINS_12__value_typeINS_12basic_stringIcNS_11char_traitsIcEENS1_IcEEEE9ParameterEEPvEEEEE8max_sizeB7v160006ISD_vEEmRKSD_, symObjAddr: 0x13E5C, symBinAddr: 0x10001795C, symSize: 0x24 }
  - { offsetInCU: 0x7A934, offset: 0x7A934, size: 0x8, addend: 0x0, symName: __ZNKSt3__19allocatorINS_11__tree_nodeINS_12__value_typeINS_12basic_stringIcNS_11char_traitsIcEENS0_IcEEEE9ParameterEEPvEEE8max_sizeB7v160006Ev, symObjAddr: 0x13E80, symBinAddr: 0x100017980, symSize: 0x20 }
  - { offsetInCU: 0x7A95A, offset: 0x7A95A, size: 0x8, addend: 0x0, symName: __ZNSt3__122__tree_node_destructorINS_9allocatorINS_11__tree_nodeINS_12__value_typeINS_12basic_stringIcNS_11char_traitsIcEENS1_IcEEEE9ParameterEEPvEEEEEC2B7v160006ERSD_b, symObjAddr: 0x13EA0, symBinAddr: 0x1000179A0, symSize: 0x38 }
  - { offsetInCU: 0x7A9A2, offset: 0x7A9A2, size: 0x8, addend: 0x0, symName: __ZNSt3__110unique_ptrINS_11__tree_nodeINS_12__value_typeINS_12basic_stringIcNS_11char_traitsIcEENS_9allocatorIcEEEE9ParameterEEPvEENS_22__tree_node_destructorINS6_ISC_EEEEEC2B7v160006ILb1EvEEPSC_NS_16__dependent_typeINS_27__unique_ptr_deleter_sfinaeISF_EEXT_EE20__good_rval_ref_typeE, symObjAddr: 0x13ED8, symBinAddr: 0x1000179D8, symSize: 0x48 }
  - { offsetInCU: 0x7A9F3, offset: 0x7A9F3, size: 0x8, addend: 0x0, symName: __ZNSt3__117__compressed_pairIPNS_11__tree_nodeINS_12__value_typeINS_12basic_stringIcNS_11char_traitsIcEENS_9allocatorIcEEEE9ParameterEEPvEENS_22__tree_node_destructorINS6_ISC_EEEEEC1B7v160006IRSD_SG_EEOT_OT0_, symObjAddr: 0x13F20, symBinAddr: 0x100017A20, symSize: 0x3C }
  - { offsetInCU: 0x7AA4B, offset: 0x7AA4B, size: 0x8, addend: 0x0, symName: __ZNSt3__117__compressed_pairIPNS_11__tree_nodeINS_12__value_typeINS_12basic_stringIcNS_11char_traitsIcEENS_9allocatorIcEEEE9ParameterEEPvEENS_22__tree_node_destructorINS6_ISC_EEEEEC2B7v160006IRSD_SG_EEOT_OT0_, symObjAddr: 0x13F5C, symBinAddr: 0x100017A5C, symSize: 0x48 }
  - { offsetInCU: 0x7AAA3, offset: 0x7AAA3, size: 0x8, addend: 0x0, symName: __ZNSt3__122__compressed_pair_elemIPNS_11__tree_nodeINS_12__value_typeINS_12basic_stringIcNS_11char_traitsIcEENS_9allocatorIcEEEE9ParameterEEPvEELi0ELb0EEC2B7v160006IRSD_vEEOT_, symObjAddr: 0x13FA4, symBinAddr: 0x100017AA4, symSize: 0x24 }
  - { offsetInCU: 0x7AAE5, offset: 0x7AAE5, size: 0x8, addend: 0x0, symName: __ZNSt3__122__compressed_pair_elemINS_22__tree_node_destructorINS_9allocatorINS_11__tree_nodeINS_12__value_typeINS_12basic_stringIcNS_11char_traitsIcEENS2_IcEEEE9ParameterEEPvEEEEEELi1ELb0EEC2B7v160006ISF_vEEOT_, symObjAddr: 0x13FC8, symBinAddr: 0x100017AC8, symSize: 0x24 }
  - { offsetInCU: 0x7AB27, offset: 0x7AB27, size: 0x8, addend: 0x0, symName: __ZNSt3__19allocatorINS_11__tree_nodeINS_12__value_typeINS_12basic_stringIcNS_11char_traitsIcEENS0_IcEEEE9ParameterEEPvEEE9constructB7v160006INS_4pairIKS7_S8_EEJRKNS_21piecewise_construct_tENS_5tupleIJRSF_EEENSK_IJEEEEEEvPT_DpOT0_, symObjAddr: 0x13FEC, symBinAddr: 0x100017AEC, symSize: 0x44 }
  - { offsetInCU: 0x7ABA3, offset: 0x7ABA3, size: 0x8, addend: 0x0, symName: __ZNSt3__14pairIKNS_12basic_stringIcNS_11char_traitsIcEENS_9allocatorIcEEEE9ParameterEC1B7v160006IJRS7_EJEEENS_21piecewise_construct_tENS_5tupleIJDpT_EEENSD_IJDpT0_EEE, symObjAddr: 0x14030, symBinAddr: 0x100017B30, symSize: 0x3C }
  - { offsetInCU: 0x7AC0A, offset: 0x7AC0A, size: 0x8, addend: 0x0, symName: __ZNSt3__14pairIKNS_12basic_stringIcNS_11char_traitsIcEENS_9allocatorIcEEEE9ParameterEC1B7v160006IJRS7_EJEJLm0EEJEEENS_21piecewise_construct_tERNS_5tupleIJDpT_EEERNSD_IJDpT0_EEENS_15__tuple_indicesIJXspT1_EEEENSM_IJXspT2_EEEE, symObjAddr: 0x1406C, symBinAddr: 0x100017B6C, symSize: 0x3C }
  - { offsetInCU: 0x7AC9A, offset: 0x7AC9A, size: 0x8, addend: 0x0, symName: __ZNSt3__14pairIKNS_12basic_stringIcNS_11char_traitsIcEENS_9allocatorIcEEEE9ParameterEC2B7v160006IJRS7_EJEJLm0EEJEEENS_21piecewise_construct_tERNS_5tupleIJDpT_EEERNSD_IJDpT0_EEENS_15__tuple_indicesIJXspT1_EEEENSM_IJXspT2_EEEE, symObjAddr: 0x140A8, symBinAddr: 0x100017BA8, symSize: 0x64 }
  - { offsetInCU: 0x7AD2A, offset: 0x7AD2A, size: 0x8, addend: 0x0, symName: __ZN9ParameterC1Ev, symObjAddr: 0x14130, symBinAddr: 0x100017C30, symSize: 0x2C }
  - { offsetInCU: 0x7AD56, offset: 0x7AD56, size: 0x8, addend: 0x0, symName: __ZNSt3__112__tuple_leafILm0ERKNS_12basic_stringIcNS_11char_traitsIcEENS_9allocatorIcEEEELb0EE3getB7v160006Ev, symObjAddr: 0x1415C, symBinAddr: 0x100017C5C, symSize: 0x18 }
  - { offsetInCU: 0x7AD7C, offset: 0x7AD7C, size: 0x8, addend: 0x0, symName: __ZN9ParameterC2Ev, symObjAddr: 0x14174, symBinAddr: 0x100017C74, symSize: 0x2C }
  - { offsetInCU: 0x7ADA8, offset: 0x7ADA8, size: 0x8, addend: 0x0, symName: __ZNKSt3__117__compressed_pairIPNS_11__tree_nodeINS_12__value_typeINS_12basic_stringIcNS_11char_traitsIcEENS_9allocatorIcEEEE9ParameterEEPvEENS_22__tree_node_destructorINS6_ISC_EEEEE5firstB7v160006Ev, symObjAddr: 0x141A0, symBinAddr: 0x100017CA0, symSize: 0x24 }
  - { offsetInCU: 0x7ADCE, offset: 0x7ADCE, size: 0x8, addend: 0x0, symName: __ZNKSt3__122__compressed_pair_elemIPNS_11__tree_nodeINS_12__value_typeINS_12basic_stringIcNS_11char_traitsIcEENS_9allocatorIcEEEE9ParameterEEPvEELi0ELb0EE5__getB7v160006Ev, symObjAddr: 0x141C4, symBinAddr: 0x100017CC4, symSize: 0x14 }
  - { offsetInCU: 0x7ADF4, offset: 0x7ADF4, size: 0x8, addend: 0x0, symName: __ZNSt3__117__compressed_pairIPNS_11__tree_nodeINS_12__value_typeINS_12basic_stringIcNS_11char_traitsIcEENS_9allocatorIcEEEE9ParameterEEPvEENS_22__tree_node_destructorINS6_ISC_EEEEE6secondB7v160006Ev, symObjAddr: 0x141D8, symBinAddr: 0x100017CD8, symSize: 0x28 }
  - { offsetInCU: 0x7AE1A, offset: 0x7AE1A, size: 0x8, addend: 0x0, symName: __ZNSt3__122__compressed_pair_elemINS_22__tree_node_destructorINS_9allocatorINS_11__tree_nodeINS_12__value_typeINS_12basic_stringIcNS_11char_traitsIcEENS2_IcEEEE9ParameterEEPvEEEEEELi1ELb0EE5__getB7v160006Ev, symObjAddr: 0x14200, symBinAddr: 0x100017D00, symSize: 0x14 }
  - { offsetInCU: 0x7AE40, offset: 0x7AE40, size: 0x8, addend: 0x0, symName: __ZNSt3__16__treeINS_12__value_typeINS_12basic_stringIcNS_11char_traitsIcEENS_9allocatorIcEEEE9ParameterEENS_19__map_value_compareIS7_S9_NS_4lessIS7_EELb1EEENS5_IS9_EEE4sizeB7v160006Ev, symObjAddr: 0x14540, symBinAddr: 0x100018040, symSize: 0x28 }
  - { offsetInCU: 0x7AE66, offset: 0x7AE66, size: 0x8, addend: 0x0, symName: __ZNKSt3__116__tree_node_baseIPvE15__parent_unsafeB7v160006Ev, symObjAddr: 0x14568, symBinAddr: 0x100018068, symSize: 0x18 }
  - { offsetInCU: 0x7AE8C, offset: 0x7AE8C, size: 0x8, addend: 0x0, symName: __ZNSt3__116__tree_node_baseIPvE12__set_parentB7v160006EPS2_, symObjAddr: 0x14750, symBinAddr: 0x100018250, symSize: 0x20 }
  - { offsetInCU: 0x7AEC1, offset: 0x7AEC1, size: 0x8, addend: 0x0, symName: __ZNSt3__117__compressed_pairImNS_19__map_value_compareINS_12basic_stringIcNS_11char_traitsIcEENS_9allocatorIcEEEENS_12__value_typeIS7_9ParameterEENS_4lessIS7_EELb1EEEE5firstB7v160006Ev, symObjAddr: 0x14770, symBinAddr: 0x100018270, symSize: 0x24 }
  - { offsetInCU: 0x7AEE7, offset: 0x7AEE7, size: 0x8, addend: 0x0, symName: __ZNSt3__122__compressed_pair_elemImLi0ELb0EE5__getB7v160006Ev, symObjAddr: 0x14794, symBinAddr: 0x100018294, symSize: 0x14 }
  - { offsetInCU: 0x7AF0D, offset: 0x7AF0D, size: 0x8, addend: 0x0, symName: __ZNSt3__117__compressed_pairIPNS_11__tree_nodeINS_12__value_typeINS_12basic_stringIcNS_11char_traitsIcEENS_9allocatorIcEEEE9ParameterEEPvEENS_22__tree_node_destructorINS6_ISC_EEEEE5firstB7v160006Ev, symObjAddr: 0x147A8, symBinAddr: 0x1000182A8, symSize: 0x24 }
  - { offsetInCU: 0x7AF33, offset: 0x7AF33, size: 0x8, addend: 0x0, symName: __ZNSt3__122__compressed_pair_elemIPNS_11__tree_nodeINS_12__value_typeINS_12basic_stringIcNS_11char_traitsIcEENS_9allocatorIcEEEE9ParameterEEPvEELi0ELb0EE5__getB7v160006Ev, symObjAddr: 0x147CC, symBinAddr: 0x1000182CC, symSize: 0x14 }
  - { offsetInCU: 0x7AF59, offset: 0x7AF59, size: 0x8, addend: 0x0, symName: __ZNSt3__110unique_ptrINS_11__tree_nodeINS_12__value_typeINS_12basic_stringIcNS_11char_traitsIcEENS_9allocatorIcEEEE9ParameterEEPvEENS_22__tree_node_destructorINS6_ISC_EEEEED2B7v160006Ev, symObjAddr: 0x147E0, symBinAddr: 0x1000182E0, symSize: 0x30 }
  - { offsetInCU: 0x7AF83, offset: 0x7AF83, size: 0x8, addend: 0x0, symName: __ZNSt3__110unique_ptrINS_11__tree_nodeINS_12__value_typeINS_12basic_stringIcNS_11char_traitsIcEENS_9allocatorIcEEEE9ParameterEEPvEENS_22__tree_node_destructorINS6_ISC_EEEEE5resetB7v160006EPSC_, symObjAddr: 0x14810, symBinAddr: 0x100018310, symSize: 0x78 }
  - { offsetInCU: 0x7AFC7, offset: 0x7AFC7, size: 0x8, addend: 0x0, symName: __ZNSt3__122__tree_node_destructorINS_9allocatorINS_11__tree_nodeINS_12__value_typeINS_12basic_stringIcNS_11char_traitsIcEENS1_IcEEEE9ParameterEEPvEEEEEclB7v160006EPSC_, symObjAddr: 0x14888, symBinAddr: 0x100018388, symSize: 0x98 }
  - { offsetInCU: 0x7AFFC, offset: 0x7AFFC, size: 0x8, addend: 0x0, symName: __ZNSt3__116allocator_traitsINS_9allocatorINS_11__tree_nodeINS_12__value_typeINS_12basic_stringIcNS_11char_traitsIcEENS1_IcEEEE9ParameterEEPvEEEEE7destroyB7v160006INS_4pairIKS8_S9_EEvvEEvRSD_PT_, symObjAddr: 0x14920, symBinAddr: 0x100018420, symSize: 0x28 }
  - { offsetInCU: 0x7B037, offset: 0x7B037, size: 0x8, addend: 0x0, symName: __ZNSt3__116allocator_traitsINS_9allocatorINS_11__tree_nodeINS_12__value_typeINS_12basic_stringIcNS_11char_traitsIcEENS1_IcEEEE9ParameterEEPvEEEEE10deallocateB7v160006ERSD_PSC_m, symObjAddr: 0x14948, symBinAddr: 0x100018448, symSize: 0x34 }
  - { offsetInCU: 0x7B079, offset: 0x7B079, size: 0x8, addend: 0x0, symName: __ZNSt3__14pairIKNS_12basic_stringIcNS_11char_traitsIcEENS_9allocatorIcEEEE9ParameterED1Ev, symObjAddr: 0x1497C, symBinAddr: 0x10001847C, symSize: 0x2C }
  - { offsetInCU: 0x7B0A5, offset: 0x7B0A5, size: 0x8, addend: 0x0, symName: __ZNSt3__14pairIKNS_12basic_stringIcNS_11char_traitsIcEENS_9allocatorIcEEEE9ParameterED2Ev, symObjAddr: 0x149A8, symBinAddr: 0x1000184A8, symSize: 0x38 }
  - { offsetInCU: 0x7B0D1, offset: 0x7B0D1, size: 0x8, addend: 0x0, symName: __ZNSt3__19allocatorINS_11__tree_nodeINS_12__value_typeINS_12basic_stringIcNS_11char_traitsIcEENS0_IcEEEE9ParameterEEPvEEE10deallocateB7v160006EPSB_m, symObjAddr: 0x149E0, symBinAddr: 0x1000184E0, symSize: 0x44 }
  - { offsetInCU: 0x7B113, offset: 0x7B113, size: 0x8, addend: 0x0, symName: __ZNSt3__115__tree_iteratorINS_12__value_typeINS_12basic_stringIcNS_11char_traitsIcEENS_9allocatorIcEEEE9ParameterEEPNS_11__tree_nodeIS9_PvEElEC2B7v160006ESD_, symObjAddr: 0x14A24, symBinAddr: 0x100018524, symSize: 0x20 }
  - { offsetInCU: 0x7B14C, offset: 0x7B14C, size: 0x8, addend: 0x0, symName: __ZNSt3__14pairINS_15__tree_iteratorINS_12__value_typeINS_12basic_stringIcNS_11char_traitsIcEENS_9allocatorIcEEEE9ParameterEEPNS_11__tree_nodeISA_PvEElEEbEC2B7v160006ISF_RbLSC_0EEEOT_OT0_, symObjAddr: 0x14A44, symBinAddr: 0x100018544, symSize: 0x38 }
  - { offsetInCU: 0x7B1AA, offset: 0x7B1AA, size: 0x8, addend: 0x0, symName: __ZNSt3__15tupleIJRKNS_12basic_stringIcNS_11char_traitsIcEENS_9allocatorIcEEEEEEC1B7v160006INS_4_AndELi0EEES8_, symObjAddr: 0x14A7C, symBinAddr: 0x10001857C, symSize: 0x34 }
  - { offsetInCU: 0x7B1F2, offset: 0x7B1F2, size: 0x8, addend: 0x0, symName: __ZNSt3__15tupleIJRKNS_12basic_stringIcNS_11char_traitsIcEENS_9allocatorIcEEEEEEC2B7v160006INS_4_AndELi0EEES8_, symObjAddr: 0x14AB0, symBinAddr: 0x1000185B0, symSize: 0x34 }
  - { offsetInCU: 0x7B23A, offset: 0x7B23A, size: 0x8, addend: 0x0, symName: __ZNSt3__112__tuple_implINS_15__tuple_indicesIJLm0EEEEJRKNS_12basic_stringIcNS_11char_traitsIcEENS_9allocatorIcEEEEEEC1B7v160006IJLm0EEJSA_EJEJEJSA_EEENS1_IJXspT_EEEENS_13__tuple_typesIJDpT0_EEENS1_IJXspT1_EEEENSE_IJDpT2_EEEDpOT3_, symObjAddr: 0x14AE4, symBinAddr: 0x1000185E4, symSize: 0x34 }
  - { offsetInCU: 0x7B2CF, offset: 0x7B2CF, size: 0x8, addend: 0x0, symName: __ZNSt3__112__tuple_implINS_15__tuple_indicesIJLm0EEEEJRKNS_12basic_stringIcNS_11char_traitsIcEENS_9allocatorIcEEEEEEC2B7v160006IJLm0EEJSA_EJEJEJSA_EEENS1_IJXspT_EEEENS_13__tuple_typesIJDpT0_EEENS1_IJXspT1_EEEENSE_IJDpT2_EEEDpOT3_, symObjAddr: 0x14B18, symBinAddr: 0x100018618, symSize: 0x34 }
  - { offsetInCU: 0x7B364, offset: 0x7B364, size: 0x8, addend: 0x0, symName: __ZNSt3__112__tuple_leafILm0ERKNS_12basic_stringIcNS_11char_traitsIcEENS_9allocatorIcEEEELb0EEC2B7v160006IS8_vEEOT_, symObjAddr: 0x14B4C, symBinAddr: 0x10001864C, symSize: 0x20 }
  - { offsetInCU: 0x7B3A7, offset: 0x7B3A7, size: 0x8, addend: 0x0, symName: __ZNSt3__114pointer_traitsIPNS_12__value_typeINS_12basic_stringIcNS_11char_traitsIcEENS_9allocatorIcEEEE9ParameterEEE10pointer_toB7v160006ERS9_, symObjAddr: 0x14B6C, symBinAddr: 0x10001866C, symSize: 0x14 }
  - { offsetInCU: 0x7B3CA, offset: 0x7B3CA, size: 0x8, addend: 0x0, symName: __ZNKSt3__115__tree_iteratorINS_12__value_typeINS_12basic_stringIcNS_11char_traitsIcEENS_9allocatorIcEEEE9ParameterEEPNS_11__tree_nodeIS9_PvEElE8__get_npB7v160006Ev, symObjAddr: 0x14B80, symBinAddr: 0x100018680, symSize: 0x18 }
  - { offsetInCU: 0x7B3F0, offset: 0x7B3F0, size: 0x8, addend: 0x0, symName: __ZNSt3__112basic_stringIcNS_11char_traitsIcEENS_9allocatorIcEEEaSB7v160006EOS5_, symObjAddr: 0x14BD0, symBinAddr: 0x1000186D0, symSize: 0x34 }
  - { offsetInCU: 0x7B425, offset: 0x7B425, size: 0x8, addend: 0x0, symName: __ZNSt3__112basic_stringIcNS_11char_traitsIcEENS_9allocatorIcEEE13__move_assignB7v160006ERS5_NS_17integral_constantIbLb1EEE, symObjAddr: 0x14C04, symBinAddr: 0x100018704, symSize: 0xC8 }
  - { offsetInCU: 0x7B468, offset: 0x7B468, size: 0x8, addend: 0x0, symName: __ZNSt3__112basic_stringIcNS_11char_traitsIcEENS_9allocatorIcEEE7__allocB7v160006Ev, symObjAddr: 0x14CCC, symBinAddr: 0x1000187CC, symSize: 0x24 }
  - { offsetInCU: 0x7B48E, offset: 0x7B48E, size: 0x8, addend: 0x0, symName: __ZNSt3__112basic_stringIcNS_11char_traitsIcEENS_9allocatorIcEEE18__get_long_pointerB7v160006Ev, symObjAddr: 0x14CF0, symBinAddr: 0x1000187F0, symSize: 0x28 }
  - { offsetInCU: 0x7B4B4, offset: 0x7B4B4, size: 0x8, addend: 0x0, symName: __ZNKSt3__112basic_stringIcNS_11char_traitsIcEENS_9allocatorIcEEE14__get_long_capB7v160006Ev, symObjAddr: 0x14D18, symBinAddr: 0x100018818, symSize: 0x30 }
  - { offsetInCU: 0x7B4DA, offset: 0x7B4DA, size: 0x8, addend: 0x0, symName: __ZNSt3__112basic_stringIcNS_11char_traitsIcEENS_9allocatorIcEEE19__move_assign_allocB7v160006ERS5_, symObjAddr: 0x14D48, symBinAddr: 0x100018848, symSize: 0x2C }
  - { offsetInCU: 0x7B50F, offset: 0x7B50F, size: 0x8, addend: 0x0, symName: __ZNSt3__117__compressed_pairINS_12basic_stringIcNS_11char_traitsIcEENS_9allocatorIcEEE5__repES5_E5firstB7v160006Ev, symObjAddr: 0x14D74, symBinAddr: 0x100018874, symSize: 0x24 }
  - { offsetInCU: 0x7B535, offset: 0x7B535, size: 0x8, addend: 0x0, symName: __ZNSt3__112basic_stringIcNS_11char_traitsIcEENS_9allocatorIcEEE16__set_short_sizeB7v160006Em, symObjAddr: 0x14D98, symBinAddr: 0x100018898, symSize: 0x78 }
  - { offsetInCU: 0x7B56A, offset: 0x7B56A, size: 0x8, addend: 0x0, symName: __ZNSt3__111char_traitsIcE6assignERcRKc, symObjAddr: 0x14E10, symBinAddr: 0x100018910, symSize: 0x24 }
  - { offsetInCU: 0x7B59B, offset: 0x7B59B, size: 0x8, addend: 0x0, symName: __ZNSt3__112basic_stringIcNS_11char_traitsIcEENS_9allocatorIcEEE19__get_short_pointerB7v160006Ev, symObjAddr: 0x14E34, symBinAddr: 0x100018934, symSize: 0x28 }
  - { offsetInCU: 0x7B5C1, offset: 0x7B5C1, size: 0x8, addend: 0x0, symName: __ZNSt3__117__compressed_pairINS_12basic_stringIcNS_11char_traitsIcEENS_9allocatorIcEEE5__repES5_E6secondB7v160006Ev, symObjAddr: 0x14E5C, symBinAddr: 0x10001895C, symSize: 0x24 }
  - { offsetInCU: 0x7B5E7, offset: 0x7B5E7, size: 0x8, addend: 0x0, symName: __ZNSt3__112basic_stringIcNS_11char_traitsIcEENS_9allocatorIcEEE19__move_assign_allocB7v160006ERS5_NS_17integral_constantIbLb1EEE, symObjAddr: 0x14E80, symBinAddr: 0x100018980, symSize: 0x38 }
  - { offsetInCU: 0x7B628, offset: 0x7B628, size: 0x8, addend: 0x0, symName: __ZNSt3__122__compressed_pair_elemINS_12basic_stringIcNS_11char_traitsIcEENS_9allocatorIcEEE5__repELi0ELb0EE5__getB7v160006Ev, symObjAddr: 0x14EB8, symBinAddr: 0x1000189B8, symSize: 0x14 }
  - { offsetInCU: 0x7B64E, offset: 0x7B64E, size: 0x8, addend: 0x0, symName: __ZNSt3__114pointer_traitsIPcE10pointer_toB7v160006ERc, symObjAddr: 0x14ECC, symBinAddr: 0x1000189CC, symSize: 0x14 }
  - { offsetInCU: 0x7B671, offset: 0x7B671, size: 0x8, addend: 0x0, symName: __ZN9ParameterD2Ev, symObjAddr: 0x14EE0, symBinAddr: 0x1000189E0, symSize: 0x2C }
  - { offsetInCU: 0x7B69D, offset: 0x7B69D, size: 0x8, addend: 0x0, symName: __ZNSt3__13mapINS_12basic_stringIcNS_11char_traitsIcEENS_9allocatorIcEEEE9ParameterNS_4lessIS6_EENS4_INS_4pairIKS6_S7_EEEEED1B7v160006Ev, symObjAddr: 0x14F0C, symBinAddr: 0x100018A0C, symSize: 0x2C }
  - { offsetInCU: 0x7B6C7, offset: 0x7B6C7, size: 0x8, addend: 0x0, symName: __ZNSt3__13mapINS_12basic_stringIcNS_11char_traitsIcEENS_9allocatorIcEEEE9ParameterNS_4lessIS6_EENS4_INS_4pairIKS6_S7_EEEEED2B7v160006Ev, symObjAddr: 0x14F38, symBinAddr: 0x100018A38, symSize: 0x2C }
  - { offsetInCU: 0x7B6F1, offset: 0x7B6F1, size: 0x8, addend: 0x0, symName: __ZNSt3__16__treeINS_12__value_typeINS_12basic_stringIcNS_11char_traitsIcEENS_9allocatorIcEEEE9ParameterEENS_19__map_value_compareIS7_S9_NS_4lessIS7_EELb1EEENS5_IS9_EEED1Ev, symObjAddr: 0x14F64, symBinAddr: 0x100018A64, symSize: 0x2C }
  - { offsetInCU: 0x7B71D, offset: 0x7B71D, size: 0x8, addend: 0x0, symName: __ZNSt3__16__treeINS_12__value_typeINS_12basic_stringIcNS_11char_traitsIcEENS_9allocatorIcEEEE9ParameterEENS_19__map_value_compareIS7_S9_NS_4lessIS7_EELb1EEENS5_IS9_EEED2Ev, symObjAddr: 0x14F90, symBinAddr: 0x100018A90, symSize: 0x38 }
  - { offsetInCU: 0x7B749, offset: 0x7B749, size: 0x8, addend: 0x0, symName: __ZNSt3__16__treeINS_12__value_typeINS_12basic_stringIcNS_11char_traitsIcEENS_9allocatorIcEEEE9ParameterEENS_19__map_value_compareIS7_S9_NS_4lessIS7_EELb1EEENS5_IS9_EEE7destroyEPNS_11__tree_nodeIS9_PvEE, symObjAddr: 0x14FC8, symBinAddr: 0x100018AC8, symSize: 0xA8 }
  - { offsetInCU: 0x7B795, offset: 0x7B795, size: 0x8, addend: 0x0, symName: __ZN12Configurable13get_int_paramENSt3__112basic_stringIcNS0_11char_traitsIcEENS0_9allocatorIcEEEE, symObjAddr: 0x15070, symBinAddr: 0x100018B70, symSize: 0x84 }
  - { offsetInCU: 0x7B7CA, offset: 0x7B7CA, size: 0x8, addend: 0x0, symName: __ZN15PDPTWT_solution14remove_requestEPK7Request, symObjAddr: 0x150F4, symBinAddr: 0x100018BF4, symSize: 0x178 }
  - { offsetInCU: 0x7B836, offset: 0x7B836, size: 0x8, addend: 0x0, symName: __ZN12Configurable9get_paramENSt3__112basic_stringIcNS0_11char_traitsIcEENS0_9allocatorIcEEEE, symObjAddr: 0x1526C, symBinAddr: 0x100018D6C, symSize: 0x74 }
  - { offsetInCU: 0x7B86B, offset: 0x7B86B, size: 0x8, addend: 0x0, symName: __ZNKSt3__13mapINS_12basic_stringIcNS_11char_traitsIcEENS_9allocatorIcEEEE9ParameterNS_4lessIS6_EENS4_INS_4pairIKS6_S7_EEEEE5countB7v160006ERSB_, symObjAddr: 0x152E0, symBinAddr: 0x100018DE0, symSize: 0x2C }
  - { offsetInCU: 0x7B8A0, offset: 0x7B8A0, size: 0x8, addend: 0x0, symName: __ZNKSt3__16__treeINS_12__value_typeINS_12basic_stringIcNS_11char_traitsIcEENS_9allocatorIcEEEE9ParameterEENS_19__map_value_compareIS7_S9_NS_4lessIS7_EELb1EEENS5_IS9_EEE14__count_uniqueIS7_EEmRKT_, symObjAddr: 0x1530C, symBinAddr: 0x100018E0C, symSize: 0xC8 }
  - { offsetInCU: 0x7B8EF, offset: 0x7B8EF, size: 0x8, addend: 0x0, symName: __ZNKSt3__16__treeINS_12__value_typeINS_12basic_stringIcNS_11char_traitsIcEENS_9allocatorIcEEEE9ParameterEENS_19__map_value_compareIS7_S9_NS_4lessIS7_EELb1EEENS5_IS9_EEE10value_compB7v160006Ev, symObjAddr: 0x153D4, symBinAddr: 0x100018ED4, symSize: 0x28 }
  - { offsetInCU: 0x7B915, offset: 0x7B915, size: 0x8, addend: 0x0, symName: __ZNKSt3__117__compressed_pairImNS_19__map_value_compareINS_12basic_stringIcNS_11char_traitsIcEENS_9allocatorIcEEEENS_12__value_typeIS7_9ParameterEENS_4lessIS7_EELb1EEEE6secondB7v160006Ev, symObjAddr: 0x153FC, symBinAddr: 0x100018EFC, symSize: 0x24 }
  - { offsetInCU: 0x7B93B, offset: 0x7B93B, size: 0x8, addend: 0x0, symName: __ZNKSt3__122__compressed_pair_elemINS_19__map_value_compareINS_12basic_stringIcNS_11char_traitsIcEENS_9allocatorIcEEEENS_12__value_typeIS7_9ParameterEENS_4lessIS7_EELb1EEELi1ELb1EE5__getB7v160006Ev, symObjAddr: 0x15420, symBinAddr: 0x100018F20, symSize: 0x14 }
  - { offsetInCU: 0x7B961, offset: 0x7B961, size: 0x8, addend: 0x0, symName: __ZNSt3__110unique_ptrIN7mlpalns13DestroyMethodI15PDPTWT_solutionEENS_14default_deleteIS4_EEEC1B7v160006I13RandomRemovalNS5_IS9_EEvvEEONS0_IT_T0_EE, symObjAddr: 0x154A0, symBinAddr: 0x100018FA0, symSize: 0x34 }
  - { offsetInCU: 0x7B9AD, offset: 0x7B9AD, size: 0x8, addend: 0x0, symName: __ZNSt3__110unique_ptrI13RandomRemovalNS_14default_deleteIS1_EEED1B7v160006Ev, symObjAddr: 0x154D4, symBinAddr: 0x100018FD4, symSize: 0x2C }
  - { offsetInCU: 0x7B9DD, offset: 0x7B9DD, size: 0x8, addend: 0x0, symName: __ZN13RandomRemovalC1ERKS_, symObjAddr: 0x15500, symBinAddr: 0x100019000, symSize: 0x34 }
  - { offsetInCU: 0x7BA12, offset: 0x7BA12, size: 0x8, addend: 0x0, symName: __ZNSt3__110unique_ptrI13RandomRemovalNS_14default_deleteIS1_EEEC1B7v160006ILb1EvEEPS1_, symObjAddr: 0x15534, symBinAddr: 0x100019034, symSize: 0x34 }
  - { offsetInCU: 0x7BA55, offset: 0x7BA55, size: 0x8, addend: 0x0, symName: __ZN13RandomRemovalC2ERKS_, symObjAddr: 0x15568, symBinAddr: 0x100019068, symSize: 0x98 }
  - { offsetInCU: 0x7BA90, offset: 0x7BA90, size: 0x8, addend: 0x0, symName: __ZN7mlpalns13DestroyMethodI15PDPTWT_solutionEC2ERKS2_, symObjAddr: 0x15600, symBinAddr: 0x100019100, symSize: 0x28 }
  - { offsetInCU: 0x7BAD0, offset: 0x7BAD0, size: 0x8, addend: 0x0, symName: __ZN12ConfigurableC2ERKS_, symObjAddr: 0x15628, symBinAddr: 0x100019128, symSize: 0x4C }
  - { offsetInCU: 0x7BB05, offset: 0x7BB05, size: 0x8, addend: 0x0, symName: __ZNSt3__13mapINS_12basic_stringIcNS_11char_traitsIcEENS_9allocatorIcEEEE9ParameterNS_4lessIS6_EENS4_INS_4pairIKS6_S7_EEEEEC1B7v160006ERKSE_, symObjAddr: 0x15674, symBinAddr: 0x100019174, symSize: 0x34 }
  - { offsetInCU: 0x7BB3E, offset: 0x7BB3E, size: 0x8, addend: 0x0, symName: __ZNSt3__13mapINS_12basic_stringIcNS_11char_traitsIcEENS_9allocatorIcEEEE9ParameterNS_4lessIS6_EENS4_INS_4pairIKS6_S7_EEEEEC2B7v160006ERKSE_, symObjAddr: 0x156A8, symBinAddr: 0x1000191A8, symSize: 0x88 }
  - { offsetInCU: 0x7BB77, offset: 0x7BB77, size: 0x8, addend: 0x0, symName: __ZNSt3__16__treeINS_12__value_typeINS_12basic_stringIcNS_11char_traitsIcEENS_9allocatorIcEEEE9ParameterEENS_19__map_value_compareIS7_S9_NS_4lessIS7_EELb1EEENS5_IS9_EEEC1ERKSF_, symObjAddr: 0x15730, symBinAddr: 0x100019230, symSize: 0x34 }
  - { offsetInCU: 0x7BBB2, offset: 0x7BBB2, size: 0x8, addend: 0x0, symName: __ZNSt3__13mapINS_12basic_stringIcNS_11char_traitsIcEENS_9allocatorIcEEEE9ParameterNS_4lessIS6_EENS4_INS_4pairIKS6_S7_EEEEE6insertB7v160006INS_20__map_const_iteratorINS_21__tree_const_iteratorINS_12__value_typeIS6_S7_EEPNS_11__tree_nodeISJ_PvEElEEEEEEvT_SQ_, symObjAddr: 0x15764, symBinAddr: 0x100019264, symSize: 0x8C }
  - { offsetInCU: 0x7BC1C, offset: 0x7BC1C, size: 0x8, addend: 0x0, symName: __ZNKSt3__13mapINS_12basic_stringIcNS_11char_traitsIcEENS_9allocatorIcEEEE9ParameterNS_4lessIS6_EENS4_INS_4pairIKS6_S7_EEEEE5beginB7v160006Ev, symObjAddr: 0x157F0, symBinAddr: 0x1000192F0, symSize: 0x38 }
  - { offsetInCU: 0x7BC42, offset: 0x7BC42, size: 0x8, addend: 0x0, symName: __ZNKSt3__13mapINS_12basic_stringIcNS_11char_traitsIcEENS_9allocatorIcEEEE9ParameterNS_4lessIS6_EENS4_INS_4pairIKS6_S7_EEEEE3endB7v160006Ev, symObjAddr: 0x15828, symBinAddr: 0x100019328, symSize: 0x38 }
  - { offsetInCU: 0x7BC68, offset: 0x7BC68, size: 0x8, addend: 0x0, symName: __ZNSt3__16__treeINS_12__value_typeINS_12basic_stringIcNS_11char_traitsIcEENS_9allocatorIcEEEE9ParameterEENS_19__map_value_compareIS7_S9_NS_4lessIS7_EELb1EEENS5_IS9_EEEC2ERKSF_, symObjAddr: 0x15860, symBinAddr: 0x100019360, symSize: 0x9C }
  - { offsetInCU: 0x7BCA3, offset: 0x7BCA3, size: 0x8, addend: 0x0, symName: __ZNSt3__116allocator_traitsINS_9allocatorINS_11__tree_nodeINS_12__value_typeINS_12basic_stringIcNS_11char_traitsIcEENS1_IcEEEE9ParameterEEPvEEEEE37select_on_container_copy_constructionB7v160006ISD_vvEESD_RKSD_, symObjAddr: 0x158FC, symBinAddr: 0x1000193FC, symSize: 0x10 }
  - { offsetInCU: 0x7BCD2, offset: 0x7BCD2, size: 0x8, addend: 0x0, symName: __ZNKSt3__16__treeINS_12__value_typeINS_12basic_stringIcNS_11char_traitsIcEENS_9allocatorIcEEEE9ParameterEENS_19__map_value_compareIS7_S9_NS_4lessIS7_EELb1EEENS5_IS9_EEE12__node_allocB7v160006Ev, symObjAddr: 0x1590C, symBinAddr: 0x10001940C, symSize: 0x28 }
  - { offsetInCU: 0x7BCFE, offset: 0x7BCFE, size: 0x8, addend: 0x0, symName: __ZNSt3__117__compressed_pairINS_15__tree_end_nodeIPNS_16__tree_node_baseIPvEEEENS_9allocatorINS_11__tree_nodeINS_12__value_typeINS_12basic_stringIcNS_11char_traitsIcEENS7_IcEEEE9ParameterEES3_EEEEEC1B7v160006INS_18__default_init_tagESI_EEOT_OT0_, symObjAddr: 0x15934, symBinAddr: 0x100019434, symSize: 0x3C }
  - { offsetInCU: 0x7BD56, offset: 0x7BD56, size: 0x8, addend: 0x0, symName: __ZNKSt3__117__compressed_pairINS_15__tree_end_nodeIPNS_16__tree_node_baseIPvEEEENS_9allocatorINS_11__tree_nodeINS_12__value_typeINS_12basic_stringIcNS_11char_traitsIcEENS7_IcEEEE9ParameterEES3_EEEEE6secondB7v160006Ev, symObjAddr: 0x15970, symBinAddr: 0x100019470, symSize: 0x24 }
  - { offsetInCU: 0x7BD7C, offset: 0x7BD7C, size: 0x8, addend: 0x0, symName: __ZNKSt3__122__compressed_pair_elemINS_9allocatorINS_11__tree_nodeINS_12__value_typeINS_12basic_stringIcNS_11char_traitsIcEENS1_IcEEEE9ParameterEEPvEEEELi1ELb1EE5__getB7v160006Ev, symObjAddr: 0x15994, symBinAddr: 0x100019494, symSize: 0x14 }
  - { offsetInCU: 0x7BDA2, offset: 0x7BDA2, size: 0x8, addend: 0x0, symName: __ZNSt3__117__compressed_pairINS_15__tree_end_nodeIPNS_16__tree_node_baseIPvEEEENS_9allocatorINS_11__tree_nodeINS_12__value_typeINS_12basic_stringIcNS_11char_traitsIcEENS7_IcEEEE9ParameterEES3_EEEEEC2B7v160006INS_18__default_init_tagESI_EEOT_OT0_, symObjAddr: 0x159A8, symBinAddr: 0x1000194A8, symSize: 0x40 }
  - { offsetInCU: 0x7BDFA, offset: 0x7BDFA, size: 0x8, addend: 0x0, symName: __ZNSt3__122__compressed_pair_elemINS_15__tree_end_nodeIPNS_16__tree_node_baseIPvEEEELi0ELb0EEC2B7v160006ENS_18__default_init_tagE, symObjAddr: 0x159E8, symBinAddr: 0x1000194E8, symSize: 0x2C }
  - { offsetInCU: 0x7BE2F, offset: 0x7BE2F, size: 0x8, addend: 0x0, symName: __ZNSt3__122__compressed_pair_elemINS_9allocatorINS_11__tree_nodeINS_12__value_typeINS_12basic_stringIcNS_11char_traitsIcEENS1_IcEEEE9ParameterEEPvEEEELi1ELb1EEC2B7v160006ISD_vEEOT_, symObjAddr: 0x15A14, symBinAddr: 0x100019514, symSize: 0x18 }
  - { offsetInCU: 0x7BE71, offset: 0x7BE71, size: 0x8, addend: 0x0, symName: __ZNKSt3__13mapINS_12basic_stringIcNS_11char_traitsIcEENS_9allocatorIcEEEE9ParameterNS_4lessIS6_EENS4_INS_4pairIKS6_S7_EEEEE4cendB7v160006Ev, symObjAddr: 0x15A2C, symBinAddr: 0x10001952C, symSize: 0x2C }
  - { offsetInCU: 0x7BE97, offset: 0x7BE97, size: 0x8, addend: 0x0, symName: __ZNSt3__13mapINS_12basic_stringIcNS_11char_traitsIcEENS_9allocatorIcEEEE9ParameterNS_4lessIS6_EENS4_INS_4pairIKS6_S7_EEEEE6insertB7v160006ENS_20__map_const_iteratorINS_21__tree_const_iteratorINS_12__value_typeIS6_S7_EEPNS_11__tree_nodeISI_PvEElEEEERKSC_, symObjAddr: 0x15A88, symBinAddr: 0x100019588, symSize: 0x50 }
  - { offsetInCU: 0x7BEDB, offset: 0x7BEDB, size: 0x8, addend: 0x0, symName: __ZNSt3__120__map_const_iteratorINS_21__tree_const_iteratorINS_12__value_typeINS_12basic_stringIcNS_11char_traitsIcEENS_9allocatorIcEEEE9ParameterEEPNS_11__tree_nodeISA_PvEElEEEC1B7v160006ESF_, symObjAddr: 0x15AD8, symBinAddr: 0x1000195D8, symSize: 0x34 }
  - { offsetInCU: 0x7BF14, offset: 0x7BF14, size: 0x8, addend: 0x0, symName: __ZNKSt3__120__map_const_iteratorINS_21__tree_const_iteratorINS_12__value_typeINS_12basic_stringIcNS_11char_traitsIcEENS_9allocatorIcEEEE9ParameterEEPNS_11__tree_nodeISA_PvEElEEEdeB7v160006Ev, symObjAddr: 0x15B0C, symBinAddr: 0x10001960C, symSize: 0x28 }
  - { offsetInCU: 0x7BF3A, offset: 0x7BF3A, size: 0x8, addend: 0x0, symName: __ZNSt3__120__map_const_iteratorINS_21__tree_const_iteratorINS_12__value_typeINS_12basic_stringIcNS_11char_traitsIcEENS_9allocatorIcEEEE9ParameterEEPNS_11__tree_nodeISA_PvEElEEEppB7v160006Ev, symObjAddr: 0x15B34, symBinAddr: 0x100019634, symSize: 0x2C }
  - { offsetInCU: 0x7BF60, offset: 0x7BF60, size: 0x8, addend: 0x0, symName: __ZNSt3__16__treeINS_12__value_typeINS_12basic_stringIcNS_11char_traitsIcEENS_9allocatorIcEEEE9ParameterEENS_19__map_value_compareIS7_S9_NS_4lessIS7_EELb1EEENS5_IS9_EEE15__insert_uniqueB7v160006ENS_21__tree_const_iteratorIS9_PNS_11__tree_nodeIS9_PvEElEERKNS_4pairIKS7_S8_EE, symObjAddr: 0x15BC4, symBinAddr: 0x1000196C4, symSize: 0x64 }
  - { offsetInCU: 0x7BFA4, offset: 0x7BFA4, size: 0x8, addend: 0x0, symName: __ZNSt3__114__map_iteratorINS_15__tree_iteratorINS_12__value_typeINS_12basic_stringIcNS_11char_traitsIcEENS_9allocatorIcEEEE9ParameterEEPNS_11__tree_nodeISA_PvEElEEEC1B7v160006ESF_, symObjAddr: 0x15C28, symBinAddr: 0x100019728, symSize: 0x34 }
  - { offsetInCU: 0x7BFDD, offset: 0x7BFDD, size: 0x8, addend: 0x0, symName: __ZNSt3__16__treeINS_12__value_typeINS_12basic_stringIcNS_11char_traitsIcEENS_9allocatorIcEEEE9ParameterEENS_19__map_value_compareIS7_S9_NS_4lessIS7_EELb1EEENS5_IS9_EEE30__emplace_hint_unique_key_argsIS7_JRKNS_4pairIKS7_S8_EEEEENSH_INS_15__tree_iteratorIS9_PNS_11__tree_nodeIS9_PvEElEEbEENS_21__tree_const_iteratorIS9_SQ_lEERKT_DpOT0_, symObjAddr: 0x15C5C, symBinAddr: 0x10001975C, symSize: 0x104 }
  - { offsetInCU: 0x7C0A9, offset: 0x7C0A9, size: 0x8, addend: 0x0, symName: __ZNSt3__122__tree_key_value_typesINS_12__value_typeINS_12basic_stringIcNS_11char_traitsIcEENS_9allocatorIcEEEE9ParameterEEE9__get_keyB7v160006IKNS_4pairIKS7_S8_EEEENS_9enable_ifIXsr17__is_same_uncvrefIT_SE_EE5valueERSD_E4typeERSH_, symObjAddr: 0x15D60, symBinAddr: 0x100019860, symSize: 0x14 }
  - { offsetInCU: 0x7C0D6, offset: 0x7C0D6, size: 0x8, addend: 0x0, symName: __ZNSt3__16__treeINS_12__value_typeINS_12basic_stringIcNS_11char_traitsIcEENS_9allocatorIcEEEE9ParameterEENS_19__map_value_compareIS7_S9_NS_4lessIS7_EELb1EEENS5_IS9_EEE12__find_equalIS7_EERPNS_16__tree_node_baseIPvEENS_21__tree_const_iteratorIS9_PNS_11__tree_nodeIS9_SI_EElEERPNS_15__tree_end_nodeISK_EESL_RKT_, symObjAddr: 0x15D74, symBinAddr: 0x100019874, symSize: 0x304 }
  - { offsetInCU: 0x7C17F, offset: 0x7C17F, size: 0x8, addend: 0x0, symName: __ZNSt3__16__treeINS_12__value_typeINS_12basic_stringIcNS_11char_traitsIcEENS_9allocatorIcEEEE9ParameterEENS_19__map_value_compareIS7_S9_NS_4lessIS7_EELb1EEENS5_IS9_EEE16__construct_nodeIJRKNS_4pairIKS7_S8_EEEEENS_10unique_ptrINS_11__tree_nodeIS9_PvEENS_22__tree_node_destructorINS5_ISP_EEEEEEDpOT_, symObjAddr: 0x16078, symBinAddr: 0x100019B78, symSize: 0x110 }
  - { offsetInCU: 0x7C1E0, offset: 0x7C1E0, size: 0x8, addend: 0x0, symName: __ZNSt3__16__treeINS_12__value_typeINS_12basic_stringIcNS_11char_traitsIcEENS_9allocatorIcEEEE9ParameterEENS_19__map_value_compareIS7_S9_NS_4lessIS7_EELb1EEENS5_IS9_EEE3endB7v160006Ev, symObjAddr: 0x16188, symBinAddr: 0x100019C88, symSize: 0x34 }
  - { offsetInCU: 0x7C206, offset: 0x7C206, size: 0x8, addend: 0x0, symName: __ZNSt3__121__tree_const_iteratorINS_12__value_typeINS_12basic_stringIcNS_11char_traitsIcEENS_9allocatorIcEEEE9ParameterEEPNS_11__tree_nodeIS9_PvEElEC1B7v160006ENS_15__tree_iteratorIS9_SD_lEE, symObjAddr: 0x161BC, symBinAddr: 0x100019CBC, symSize: 0x34 }
  - { offsetInCU: 0x7C23F, offset: 0x7C23F, size: 0x8, addend: 0x0, symName: __ZNKSt3__121__tree_const_iteratorINS_12__value_typeINS_12basic_stringIcNS_11char_traitsIcEENS_9allocatorIcEEEE9ParameterEEPNS_11__tree_nodeIS9_PvEElEdeB7v160006Ev, symObjAddr: 0x161F0, symBinAddr: 0x100019CF0, symSize: 0x28 }
  - { offsetInCU: 0x7C265, offset: 0x7C265, size: 0x8, addend: 0x0, symName: __ZNSt3__16__treeINS_12__value_typeINS_12basic_stringIcNS_11char_traitsIcEENS_9allocatorIcEEEE9ParameterEENS_19__map_value_compareIS7_S9_NS_4lessIS7_EELb1EEENS5_IS9_EEE5beginB7v160006Ev, symObjAddr: 0x16218, symBinAddr: 0x100019D18, symSize: 0x34 }
  - { offsetInCU: 0x7C28B, offset: 0x7C28B, size: 0x8, addend: 0x0, symName: __ZNSt3__121__tree_const_iteratorINS_12__value_typeINS_12basic_stringIcNS_11char_traitsIcEENS_9allocatorIcEEEE9ParameterEEPNS_11__tree_nodeIS9_PvEElEmmB7v160006Ev, symObjAddr: 0x1624C, symBinAddr: 0x100019D4C, symSize: 0x38 }
  - { offsetInCU: 0x7C2B1, offset: 0x7C2B1, size: 0x8, addend: 0x0, symName: __ZNKSt3__121__tree_const_iteratorINS_12__value_typeINS_12basic_stringIcNS_11char_traitsIcEENS_9allocatorIcEEEE9ParameterEEPNS_11__tree_nodeIS9_PvEElE8__get_npB7v160006Ev, symObjAddr: 0x162D4, symBinAddr: 0x100019DD4, symSize: 0x18 }
  - { offsetInCU: 0x7C2D7, offset: 0x7C2D7, size: 0x8, addend: 0x0, symName: __ZNSt3__115__tree_iteratorINS_12__value_typeINS_12basic_stringIcNS_11char_traitsIcEENS_9allocatorIcEEEE9ParameterEEPNS_11__tree_nodeIS9_PvEElEC1B7v160006EPNS_15__tree_end_nodeIPNS_16__tree_node_baseISB_EEEE, symObjAddr: 0x162EC, symBinAddr: 0x100019DEC, symSize: 0x34 }
  - { offsetInCU: 0x7C310, offset: 0x7C310, size: 0x8, addend: 0x0, symName: __ZNSt3__115__tree_iteratorINS_12__value_typeINS_12basic_stringIcNS_11char_traitsIcEENS_9allocatorIcEEEE9ParameterEEPNS_11__tree_nodeIS9_PvEElEC2B7v160006EPNS_15__tree_end_nodeIPNS_16__tree_node_baseISB_EEEE, symObjAddr: 0x16320, symBinAddr: 0x100019E20, symSize: 0x20 }
  - { offsetInCU: 0x7C349, offset: 0x7C349, size: 0x8, addend: 0x0, symName: __ZNSt3__121__tree_const_iteratorINS_12__value_typeINS_12basic_stringIcNS_11char_traitsIcEENS_9allocatorIcEEEE9ParameterEEPNS_11__tree_nodeIS9_PvEElEC2B7v160006ENS_15__tree_iteratorIS9_SD_lEE, symObjAddr: 0x16340, symBinAddr: 0x100019E40, symSize: 0x20 }
  - { offsetInCU: 0x7C382, offset: 0x7C382, size: 0x8, addend: 0x0, symName: __ZNSt3__121__tree_const_iteratorINS_12__value_typeINS_12basic_stringIcNS_11char_traitsIcEENS_9allocatorIcEEEE9ParameterEEPNS_11__tree_nodeIS9_PvEElEppB7v160006Ev, symObjAddr: 0x16530, symBinAddr: 0x10001A030, symSize: 0x38 }
  - { offsetInCU: 0x7C3A8, offset: 0x7C3A8, size: 0x8, addend: 0x0, symName: __ZNSt3__116allocator_traitsINS_9allocatorINS_11__tree_nodeINS_12__value_typeINS_12basic_stringIcNS_11char_traitsIcEENS1_IcEEEE9ParameterEEPvEEEEE9constructB7v160006INS_4pairIKS8_S9_EEJRKSI_EvEEvRSD_PT_DpOT0_, symObjAddr: 0x16628, symBinAddr: 0x10001A128, symSize: 0x34 }
  - { offsetInCU: 0x7C3FF, offset: 0x7C3FF, size: 0x8, addend: 0x0, symName: __ZNSt3__19allocatorINS_11__tree_nodeINS_12__value_typeINS_12basic_stringIcNS_11char_traitsIcEENS0_IcEEEE9ParameterEEPvEEE9constructB7v160006INS_4pairIKS7_S8_EEJRKSG_EEEvPT_DpOT0_, symObjAddr: 0x1665C, symBinAddr: 0x10001A15C, symSize: 0x30 }
  - { offsetInCU: 0x7C455, offset: 0x7C455, size: 0x8, addend: 0x0, symName: __ZNSt3__14pairIKNS_12basic_stringIcNS_11char_traitsIcEENS_9allocatorIcEEEE9ParameterEC1ERKS9_, symObjAddr: 0x1668C, symBinAddr: 0x10001A18C, symSize: 0x34 }
  - { offsetInCU: 0x7C48A, offset: 0x7C48A, size: 0x8, addend: 0x0, symName: __ZNSt3__14pairIKNS_12basic_stringIcNS_11char_traitsIcEENS_9allocatorIcEEEE9ParameterEC2ERKS9_, symObjAddr: 0x166C0, symBinAddr: 0x10001A1C0, symSize: 0x70 }
  - { offsetInCU: 0x7C4C5, offset: 0x7C4C5, size: 0x8, addend: 0x0, symName: __ZN9ParameterC1ERKS_, symObjAddr: 0x16730, symBinAddr: 0x10001A230, symSize: 0x34 }
  - { offsetInCU: 0x7C4FA, offset: 0x7C4FA, size: 0x8, addend: 0x0, symName: __ZN9ParameterC2ERKS_, symObjAddr: 0x16764, symBinAddr: 0x10001A264, symSize: 0x48 }
  - { offsetInCU: 0x7C52F, offset: 0x7C52F, size: 0x8, addend: 0x0, symName: __ZNSt3__114__map_iteratorINS_15__tree_iteratorINS_12__value_typeINS_12basic_stringIcNS_11char_traitsIcEENS_9allocatorIcEEEE9ParameterEEPNS_11__tree_nodeISA_PvEElEEEC2B7v160006ESF_, symObjAddr: 0x167AC, symBinAddr: 0x10001A2AC, symSize: 0x20 }
  - { offsetInCU: 0x7C568, offset: 0x7C568, size: 0x8, addend: 0x0, symName: __ZNSt3__120__map_const_iteratorINS_21__tree_const_iteratorINS_12__value_typeINS_12basic_stringIcNS_11char_traitsIcEENS_9allocatorIcEEEE9ParameterEEPNS_11__tree_nodeISA_PvEElEEEC2B7v160006ESF_, symObjAddr: 0x167CC, symBinAddr: 0x10001A2CC, symSize: 0x20 }
  - { offsetInCU: 0x7C5A1, offset: 0x7C5A1, size: 0x8, addend: 0x0, symName: __ZNKSt3__121__tree_const_iteratorINS_12__value_typeINS_12basic_stringIcNS_11char_traitsIcEENS_9allocatorIcEEEE9ParameterEEPNS_11__tree_nodeIS9_PvEElEptB7v160006Ev, symObjAddr: 0x167EC, symBinAddr: 0x10001A2EC, symSize: 0x2C }
  - { offsetInCU: 0x7C5C7, offset: 0x7C5C7, size: 0x8, addend: 0x0, symName: __ZNSt3__114pointer_traitsIPKNS_12__value_typeINS_12basic_stringIcNS_11char_traitsIcEENS_9allocatorIcEEEE9ParameterEEE10pointer_toB7v160006ERSA_, symObjAddr: 0x16818, symBinAddr: 0x10001A318, symSize: 0x14 }
  - { offsetInCU: 0x7C5EA, offset: 0x7C5EA, size: 0x8, addend: 0x0, symName: __ZNKSt3__16__treeINS_12__value_typeINS_12basic_stringIcNS_11char_traitsIcEENS_9allocatorIcEEEE9ParameterEENS_19__map_value_compareIS7_S9_NS_4lessIS7_EELb1EEENS5_IS9_EEE5beginB7v160006Ev, symObjAddr: 0x1682C, symBinAddr: 0x10001A32C, symSize: 0x34 }
  - { offsetInCU: 0x7C610, offset: 0x7C610, size: 0x8, addend: 0x0, symName: __ZNKSt3__16__treeINS_12__value_typeINS_12basic_stringIcNS_11char_traitsIcEENS_9allocatorIcEEEE9ParameterEENS_19__map_value_compareIS7_S9_NS_4lessIS7_EELb1EEENS5_IS9_EEE12__begin_nodeB7v160006Ev, symObjAddr: 0x16860, symBinAddr: 0x10001A360, symSize: 0x14 }
  - { offsetInCU: 0x7C636, offset: 0x7C636, size: 0x8, addend: 0x0, symName: __ZNSt3__121__tree_const_iteratorINS_12__value_typeINS_12basic_stringIcNS_11char_traitsIcEENS_9allocatorIcEEEE9ParameterEEPNS_11__tree_nodeIS9_PvEElEC1B7v160006EPNS_15__tree_end_nodeIPNS_16__tree_node_baseISB_EEEE, symObjAddr: 0x16874, symBinAddr: 0x10001A374, symSize: 0x34 }
  - { offsetInCU: 0x7C66F, offset: 0x7C66F, size: 0x8, addend: 0x0, symName: __ZNSt3__121__tree_const_iteratorINS_12__value_typeINS_12basic_stringIcNS_11char_traitsIcEENS_9allocatorIcEEEE9ParameterEEPNS_11__tree_nodeIS9_PvEElEC2B7v160006EPNS_15__tree_end_nodeIPNS_16__tree_node_baseISB_EEEE, symObjAddr: 0x168A8, symBinAddr: 0x10001A3A8, symSize: 0x20 }
  - { offsetInCU: 0x7C6A8, offset: 0x7C6A8, size: 0x8, addend: 0x0, symName: __ZNKSt3__16__treeINS_12__value_typeINS_12basic_stringIcNS_11char_traitsIcEENS_9allocatorIcEEEE9ParameterEENS_19__map_value_compareIS7_S9_NS_4lessIS7_EELb1EEENS5_IS9_EEE3endB7v160006Ev, symObjAddr: 0x168C8, symBinAddr: 0x10001A3C8, symSize: 0x34 }
  - { offsetInCU: 0x7C6CE, offset: 0x7C6CE, size: 0x8, addend: 0x0, symName: __ZNSt3__110unique_ptrI13RandomRemovalNS_14default_deleteIS1_EEEC2B7v160006ILb1EvEEPS1_, symObjAddr: 0x168FC, symBinAddr: 0x10001A3FC, symSize: 0x44 }
  - { offsetInCU: 0x7C717, offset: 0x7C717, size: 0x8, addend: 0x0, symName: __ZNSt3__117__compressed_pairIP13RandomRemovalNS_14default_deleteIS1_EEEC1B7v160006IRS2_NS_16__value_init_tagEEEOT_OT0_, symObjAddr: 0x16940, symBinAddr: 0x10001A440, symSize: 0x3C }
  - { offsetInCU: 0x7C76F, offset: 0x7C76F, size: 0x8, addend: 0x0, symName: __ZNSt3__117__compressed_pairIP13RandomRemovalNS_14default_deleteIS1_EEEC2B7v160006IRS2_NS_16__value_init_tagEEEOT_OT0_, symObjAddr: 0x1697C, symBinAddr: 0x10001A47C, symSize: 0x40 }
  - { offsetInCU: 0x7C7C7, offset: 0x7C7C7, size: 0x8, addend: 0x0, symName: __ZNSt3__122__compressed_pair_elemIP13RandomRemovalLi0ELb0EEC2B7v160006IRS2_vEEOT_, symObjAddr: 0x169BC, symBinAddr: 0x10001A4BC, symSize: 0x24 }
  - { offsetInCU: 0x7C809, offset: 0x7C809, size: 0x8, addend: 0x0, symName: __ZNSt3__122__compressed_pair_elemINS_14default_deleteI13RandomRemovalEELi1ELb1EEC2B7v160006ENS_16__value_init_tagE, symObjAddr: 0x169E0, symBinAddr: 0x10001A4E0, symSize: 0x14 }
  - { offsetInCU: 0x7C83E, offset: 0x7C83E, size: 0x8, addend: 0x0, symName: __ZNSt3__110unique_ptrIN7mlpalns13DestroyMethodI15PDPTWT_solutionEENS_14default_deleteIS4_EEEC2B7v160006I13RandomRemovalNS5_IS9_EEvvEEONS0_IT_T0_EE, symObjAddr: 0x169F4, symBinAddr: 0x10001A4F4, symSize: 0x60 }
  - { offsetInCU: 0x7C88A, offset: 0x7C88A, size: 0x8, addend: 0x0, symName: __ZNSt3__110unique_ptrI13RandomRemovalNS_14default_deleteIS1_EEE7releaseB7v160006Ev, symObjAddr: 0x16A54, symBinAddr: 0x10001A554, symSize: 0x44 }
  - { offsetInCU: 0x7C8BF, offset: 0x7C8BF, size: 0x8, addend: 0x0, symName: __ZNSt3__110unique_ptrI13RandomRemovalNS_14default_deleteIS1_EEE11get_deleterB7v160006Ev, symObjAddr: 0x16A98, symBinAddr: 0x10001A598, symSize: 0x24 }
  - { offsetInCU: 0x7C8F1, offset: 0x7C8F1, size: 0x8, addend: 0x0, symName: __ZNSt3__117__compressed_pairIPN7mlpalns13DestroyMethodI15PDPTWT_solutionEENS_14default_deleteIS4_EEEC1B7v160006IP13RandomRemovalNS6_ISA_EEEEOT_OT0_, symObjAddr: 0x16ABC, symBinAddr: 0x10001A5BC, symSize: 0x3C }
  - { offsetInCU: 0x7C949, offset: 0x7C949, size: 0x8, addend: 0x0, symName: __ZNSt3__117__compressed_pairIP13RandomRemovalNS_14default_deleteIS1_EEE5firstB7v160006Ev, symObjAddr: 0x16AF8, symBinAddr: 0x10001A5F8, symSize: 0x24 }
  - { offsetInCU: 0x7C96F, offset: 0x7C96F, size: 0x8, addend: 0x0, symName: __ZNSt3__122__compressed_pair_elemIP13RandomRemovalLi0ELb0EE5__getB7v160006Ev, symObjAddr: 0x16B1C, symBinAddr: 0x10001A61C, symSize: 0x14 }
  - { offsetInCU: 0x7C995, offset: 0x7C995, size: 0x8, addend: 0x0, symName: __ZNSt3__117__compressed_pairIP13RandomRemovalNS_14default_deleteIS1_EEE6secondB7v160006Ev, symObjAddr: 0x16B30, symBinAddr: 0x10001A630, symSize: 0x24 }
  - { offsetInCU: 0x7C9BB, offset: 0x7C9BB, size: 0x8, addend: 0x0, symName: __ZNSt3__122__compressed_pair_elemINS_14default_deleteI13RandomRemovalEELi1ELb1EE5__getB7v160006Ev, symObjAddr: 0x16B54, symBinAddr: 0x10001A654, symSize: 0x14 }
  - { offsetInCU: 0x7C9E1, offset: 0x7C9E1, size: 0x8, addend: 0x0, symName: __ZNSt3__117__compressed_pairIPN7mlpalns13DestroyMethodI15PDPTWT_solutionEENS_14default_deleteIS4_EEEC2B7v160006IP13RandomRemovalNS6_ISA_EEEEOT_OT0_, symObjAddr: 0x16B68, symBinAddr: 0x10001A668, symSize: 0x44 }
  - { offsetInCU: 0x7CA39, offset: 0x7CA39, size: 0x8, addend: 0x0, symName: __ZNSt3__122__compressed_pair_elemIPN7mlpalns13DestroyMethodI15PDPTWT_solutionEELi0ELb0EEC2B7v160006IP13RandomRemovalvEEOT_, symObjAddr: 0x16BAC, symBinAddr: 0x10001A6AC, symSize: 0x24 }
  - { offsetInCU: 0x7CA7B, offset: 0x7CA7B, size: 0x8, addend: 0x0, symName: __ZNSt3__122__compressed_pair_elemINS_14default_deleteIN7mlpalns13DestroyMethodI15PDPTWT_solutionEEEELi1ELb1EEC2B7v160006INS1_I13RandomRemovalEEvEEOT_, symObjAddr: 0x16BD0, symBinAddr: 0x10001A6D0, symSize: 0x38 }
  - { offsetInCU: 0x7CABD, offset: 0x7CABD, size: 0x8, addend: 0x0, symName: __ZNSt3__114default_deleteIN7mlpalns13DestroyMethodI15PDPTWT_solutionEEEC2B7v160006I13RandomRemovalEERKNS0_IT_EEPNS_9enable_ifIXsr14is_convertibleIPS8_PS4_EE5valueEvE4typeE, symObjAddr: 0x16C08, symBinAddr: 0x10001A708, symSize: 0x1C }
  - { offsetInCU: 0x7CB06, offset: 0x7CB06, size: 0x8, addend: 0x0, symName: __ZNSt3__110unique_ptrI13RandomRemovalNS_14default_deleteIS1_EEED2B7v160006Ev, symObjAddr: 0x16C24, symBinAddr: 0x10001A724, symSize: 0x30 }
  - { offsetInCU: 0x7CB30, offset: 0x7CB30, size: 0x8, addend: 0x0, symName: __ZNSt3__110unique_ptrI13RandomRemovalNS_14default_deleteIS1_EEE5resetB7v160006EPS1_, symObjAddr: 0x16C54, symBinAddr: 0x10001A754, symSize: 0x78 }
  - { offsetInCU: 0x7CB74, offset: 0x7CB74, size: 0x8, addend: 0x0, symName: __ZNKSt3__114default_deleteI13RandomRemovalEclB7v160006EPS1_, symObjAddr: 0x16CCC, symBinAddr: 0x10001A7CC, symSize: 0x4C }
  - { offsetInCU: 0x7CBA8, offset: 0x7CBA8, size: 0x8, addend: 0x0, symName: __ZN17insert_w_transferC2Ev, symObjAddr: 0x16D18, symBinAddr: 0x10001A818, symSize: 0x44 }
  - { offsetInCU: 0x7CBD4, offset: 0x7CBD4, size: 0x8, addend: 0x0, symName: __ZN7mlpalns12RepairMethodI15PDPTWT_solutionEC2Ev, symObjAddr: 0x16D5C, symBinAddr: 0x10001A85C, symSize: 0x24 }
  - { offsetInCU: 0x7CBFE, offset: 0x7CBFE, size: 0x8, addend: 0x0, symName: __ZN17insert_w_transfer15repair_solutionER15PDPTWT_solutionRNSt3__123mersenne_twister_engineIjLm32ELm624ELm397ELm31ELj2567483615ELm11ELj4294967295ELm7ELj2636928640ELm15ELj4022730752ELm18ELj1812433253EEE, symObjAddr: 0x16D80, symBinAddr: 0x10001A880, symSize: 0xE10 }
  - { offsetInCU: 0x7D093, offset: 0x7D093, size: 0x8, addend: 0x0, symName: __ZNK17insert_w_transfer5cloneEv, symObjAddr: 0x17B90, symBinAddr: 0x10001B690, symSize: 0x48 }
  - { offsetInCU: 0x7D0B9, offset: 0x7D0B9, size: 0x8, addend: 0x0, symName: __ZN17insert_w_transferD0Ev, symObjAddr: 0x17BD8, symBinAddr: 0x10001B6D8, symSize: 0x30 }
  - { offsetInCU: 0x7D0E5, offset: 0x7D0E5, size: 0x8, addend: 0x0, symName: __ZN7mlpalns12RepairMethodI15PDPTWT_solutionED1Ev, symObjAddr: 0x17C08, symBinAddr: 0x10001B708, symSize: 0x14 }
  - { offsetInCU: 0x7D10F, offset: 0x7D10F, size: 0x8, addend: 0x0, symName: __ZN7mlpalns12RepairMethodI15PDPTWT_solutionED0Ev, symObjAddr: 0x17C1C, symBinAddr: 0x10001B71C, symSize: 0xC }
  - { offsetInCU: 0x7D139, offset: 0x7D139, size: 0x8, addend: 0x0, symName: __ZNSt3__110unique_ptrIN7mlpalns12RepairMethodI15PDPTWT_solutionEENS_14default_deleteIS4_EEEC1B7v160006I17insert_w_transferNS5_IS9_EEvvEEONS0_IT_T0_EE, symObjAddr: 0x17C6C, symBinAddr: 0x10001B76C, symSize: 0x34 }
  - { offsetInCU: 0x7D185, offset: 0x7D185, size: 0x8, addend: 0x0, symName: __ZNSt3__110unique_ptrI17insert_w_transferNS_14default_deleteIS1_EEED1B7v160006Ev, symObjAddr: 0x17CA0, symBinAddr: 0x10001B7A0, symSize: 0x2C }
  - { offsetInCU: 0x7D1B5, offset: 0x7D1B5, size: 0x8, addend: 0x0, symName: __ZN17insert_w_transferC1ERKS_, symObjAddr: 0x17CCC, symBinAddr: 0x10001B7CC, symSize: 0x34 }
  - { offsetInCU: 0x7D1EA, offset: 0x7D1EA, size: 0x8, addend: 0x0, symName: __ZNSt3__110unique_ptrI17insert_w_transferNS_14default_deleteIS1_EEEC1B7v160006ILb1EvEEPS1_, symObjAddr: 0x17D00, symBinAddr: 0x10001B800, symSize: 0x34 }
  - { offsetInCU: 0x7D22D, offset: 0x7D22D, size: 0x8, addend: 0x0, symName: __ZN17insert_w_transferC2ERKS_, symObjAddr: 0x17D34, symBinAddr: 0x10001B834, symSize: 0x4C }
  - { offsetInCU: 0x7D268, offset: 0x7D268, size: 0x8, addend: 0x0, symName: __ZN7mlpalns12RepairMethodI15PDPTWT_solutionEC2ERKS2_, symObjAddr: 0x17D80, symBinAddr: 0x10001B880, symSize: 0x28 }
  - { offsetInCU: 0x7D29D, offset: 0x7D29D, size: 0x8, addend: 0x0, symName: __ZNSt3__110unique_ptrI17insert_w_transferNS_14default_deleteIS1_EEEC2B7v160006ILb1EvEEPS1_, symObjAddr: 0x17DA8, symBinAddr: 0x10001B8A8, symSize: 0x44 }
  - { offsetInCU: 0x7D2E0, offset: 0x7D2E0, size: 0x8, addend: 0x0, symName: __ZNSt3__117__compressed_pairIP17insert_w_transferNS_14default_deleteIS1_EEEC1B7v160006IRS2_NS_16__value_init_tagEEEOT_OT0_, symObjAddr: 0x17DEC, symBinAddr: 0x10001B8EC, symSize: 0x3C }
  - { offsetInCU: 0x7D338, offset: 0x7D338, size: 0x8, addend: 0x0, symName: __ZNSt3__117__compressed_pairIP17insert_w_transferNS_14default_deleteIS1_EEEC2B7v160006IRS2_NS_16__value_init_tagEEEOT_OT0_, symObjAddr: 0x17E28, symBinAddr: 0x10001B928, symSize: 0x40 }
  - { offsetInCU: 0x7D390, offset: 0x7D390, size: 0x8, addend: 0x0, symName: __ZNSt3__122__compressed_pair_elemIP17insert_w_transferLi0ELb0EEC2B7v160006IRS2_vEEOT_, symObjAddr: 0x17E68, symBinAddr: 0x10001B968, symSize: 0x24 }
  - { offsetInCU: 0x7D3D2, offset: 0x7D3D2, size: 0x8, addend: 0x0, symName: __ZNSt3__122__compressed_pair_elemINS_14default_deleteI17insert_w_transferEELi1ELb1EEC2B7v160006ENS_16__value_init_tagE, symObjAddr: 0x17E8C, symBinAddr: 0x10001B98C, symSize: 0x14 }
  - { offsetInCU: 0x7D407, offset: 0x7D407, size: 0x8, addend: 0x0, symName: __ZNSt3__110unique_ptrIN7mlpalns12RepairMethodI15PDPTWT_solutionEENS_14default_deleteIS4_EEEC2B7v160006I17insert_w_transferNS5_IS9_EEvvEEONS0_IT_T0_EE, symObjAddr: 0x17EA0, symBinAddr: 0x10001B9A0, symSize: 0x60 }
  - { offsetInCU: 0x7D453, offset: 0x7D453, size: 0x8, addend: 0x0, symName: __ZNSt3__110unique_ptrI17insert_w_transferNS_14default_deleteIS1_EEE7releaseB7v160006Ev, symObjAddr: 0x17F00, symBinAddr: 0x10001BA00, symSize: 0x44 }
  - { offsetInCU: 0x7D488, offset: 0x7D488, size: 0x8, addend: 0x0, symName: __ZNSt3__110unique_ptrI17insert_w_transferNS_14default_deleteIS1_EEE11get_deleterB7v160006Ev, symObjAddr: 0x17F44, symBinAddr: 0x10001BA44, symSize: 0x24 }
  - { offsetInCU: 0x7D4BA, offset: 0x7D4BA, size: 0x8, addend: 0x0, symName: __ZNSt3__117__compressed_pairIPN7mlpalns12RepairMethodI15PDPTWT_solutionEENS_14default_deleteIS4_EEEC1B7v160006IP17insert_w_transferNS6_ISA_EEEEOT_OT0_, symObjAddr: 0x17F68, symBinAddr: 0x10001BA68, symSize: 0x3C }
  - { offsetInCU: 0x7D512, offset: 0x7D512, size: 0x8, addend: 0x0, symName: __ZNSt3__117__compressed_pairIP17insert_w_transferNS_14default_deleteIS1_EEE5firstB7v160006Ev, symObjAddr: 0x17FA4, symBinAddr: 0x10001BAA4, symSize: 0x24 }
  - { offsetInCU: 0x7D538, offset: 0x7D538, size: 0x8, addend: 0x0, symName: __ZNSt3__122__compressed_pair_elemIP17insert_w_transferLi0ELb0EE5__getB7v160006Ev, symObjAddr: 0x17FC8, symBinAddr: 0x10001BAC8, symSize: 0x14 }
  - { offsetInCU: 0x7D55E, offset: 0x7D55E, size: 0x8, addend: 0x0, symName: __ZNSt3__117__compressed_pairIP17insert_w_transferNS_14default_deleteIS1_EEE6secondB7v160006Ev, symObjAddr: 0x17FDC, symBinAddr: 0x10001BADC, symSize: 0x24 }
  - { offsetInCU: 0x7D584, offset: 0x7D584, size: 0x8, addend: 0x0, symName: __ZNSt3__122__compressed_pair_elemINS_14default_deleteI17insert_w_transferEELi1ELb1EE5__getB7v160006Ev, symObjAddr: 0x18000, symBinAddr: 0x10001BB00, symSize: 0x14 }
  - { offsetInCU: 0x7D5AA, offset: 0x7D5AA, size: 0x8, addend: 0x0, symName: __ZNSt3__117__compressed_pairIPN7mlpalns12RepairMethodI15PDPTWT_solutionEENS_14default_deleteIS4_EEEC2B7v160006IP17insert_w_transferNS6_ISA_EEEEOT_OT0_, symObjAddr: 0x18014, symBinAddr: 0x10001BB14, symSize: 0x44 }
  - { offsetInCU: 0x7D602, offset: 0x7D602, size: 0x8, addend: 0x0, symName: __ZNSt3__122__compressed_pair_elemIPN7mlpalns12RepairMethodI15PDPTWT_solutionEELi0ELb0EEC2B7v160006IP17insert_w_transfervEEOT_, symObjAddr: 0x18058, symBinAddr: 0x10001BB58, symSize: 0x24 }
  - { offsetInCU: 0x7D644, offset: 0x7D644, size: 0x8, addend: 0x0, symName: __ZNSt3__122__compressed_pair_elemINS_14default_deleteIN7mlpalns12RepairMethodI15PDPTWT_solutionEEEELi1ELb1EEC2B7v160006INS1_I17insert_w_transferEEvEEOT_, symObjAddr: 0x1807C, symBinAddr: 0x10001BB7C, symSize: 0x38 }
  - { offsetInCU: 0x7D686, offset: 0x7D686, size: 0x8, addend: 0x0, symName: __ZNSt3__114default_deleteIN7mlpalns12RepairMethodI15PDPTWT_solutionEEEC2B7v160006I17insert_w_transferEERKNS0_IT_EEPNS_9enable_ifIXsr14is_convertibleIPS8_PS4_EE5valueEvE4typeE, symObjAddr: 0x180B4, symBinAddr: 0x10001BBB4, symSize: 0x1C }
  - { offsetInCU: 0x7D6CF, offset: 0x7D6CF, size: 0x8, addend: 0x0, symName: __ZNSt3__110unique_ptrI17insert_w_transferNS_14default_deleteIS1_EEED2B7v160006Ev, symObjAddr: 0x180D0, symBinAddr: 0x10001BBD0, symSize: 0x30 }
  - { offsetInCU: 0x7D6F9, offset: 0x7D6F9, size: 0x8, addend: 0x0, symName: __ZNSt3__110unique_ptrI17insert_w_transferNS_14default_deleteIS1_EEE5resetB7v160006EPS1_, symObjAddr: 0x18100, symBinAddr: 0x10001BC00, symSize: 0x78 }
  - { offsetInCU: 0x7D73D, offset: 0x7D73D, size: 0x8, addend: 0x0, symName: __ZNKSt3__114default_deleteI17insert_w_transferEclB7v160006EPS1_, symObjAddr: 0x18178, symBinAddr: 0x10001BC78, symSize: 0x4C }
  - { offsetInCU: 0x7D771, offset: 0x7D771, size: 0x8, addend: 0x0, symName: __ZN11ShawRemovalC2Ev, symObjAddr: 0x181C4, symBinAddr: 0x10001BCC4, symSize: 0x22C }
  - { offsetInCU: 0x7D79B, offset: 0x7D79B, size: 0x8, addend: 0x0, symName: __ZN11ShawRemoval16destroy_solutionER15PDPTWT_solutionRNSt3__123mersenne_twister_engineIjLm32ELm624ELm397ELm31ELj2567483615ELm11ELj4294967295ELm7ELj2636928640ELm15ELj4022730752ELm18ELj1812433253EEE, symObjAddr: 0x183F0, symBinAddr: 0x10001BEF0, symSize: 0x584 }
  - { offsetInCU: 0x7D8F0, offset: 0x7D8F0, size: 0x8, addend: 0x0, symName: __ZNK11ShawRemoval5cloneEv, symObjAddr: 0x18974, symBinAddr: 0x10001C474, symSize: 0x48 }
  - { offsetInCU: 0x7D916, offset: 0x7D916, size: 0x8, addend: 0x0, symName: __ZN11ShawRemovalD0Ev, symObjAddr: 0x189BC, symBinAddr: 0x10001C4BC, symSize: 0x30 }
  - { offsetInCU: 0x7D942, offset: 0x7D942, size: 0x8, addend: 0x0, symName: __ZThn8_N11ShawRemovalD1Ev, symObjAddr: 0x189EC, symBinAddr: 0x10001C4EC, symSize: 0x1C }
  - { offsetInCU: 0x7D958, offset: 0x7D958, size: 0x8, addend: 0x0, symName: __ZThn8_N11ShawRemovalD0Ev, symObjAddr: 0x18A08, symBinAddr: 0x10001C508, symSize: 0x18 }
  - { offsetInCU: 0x7D96E, offset: 0x7D96E, size: 0x8, addend: 0x0, symName: __ZNSt3__16vectorIPK7RequestNS_9allocatorIS3_EEE7reserveEm, symObjAddr: 0x18A20, symBinAddr: 0x10001C520, symSize: 0xE8 }
  - { offsetInCU: 0x7D9CA, offset: 0x7D9CA, size: 0x8, addend: 0x0, symName: __ZNSt3__16vectorINS_4pairIPK7RequestdEENS_9allocatorIS5_EEEC1B7v160006Ev, symObjAddr: 0x18B08, symBinAddr: 0x10001C608, symSize: 0x2C }
  - { offsetInCU: 0x7D9F4, offset: 0x7D9F4, size: 0x8, addend: 0x0, symName: __ZNSt3__16vectorINS_4pairIPK7RequestdEENS_9allocatorIS5_EEE7reserveEm, symObjAddr: 0x18B34, symBinAddr: 0x10001C634, symSize: 0xE8 }
  - { offsetInCU: 0x7DA50, offset: 0x7DA50, size: 0x8, addend: 0x0, symName: __ZNSt3__16vectorINS_4pairIPK7RequestdEENS_9allocatorIS5_EEE9push_backB7v160006EOS5_, symObjAddr: 0x18C1C, symBinAddr: 0x10001C71C, symSize: 0x6C }
  - { offsetInCU: 0x7DA86, offset: 0x7DA86, size: 0x8, addend: 0x0, symName: __Z20calculate_relativityPK6PDPTWTPK7RequestS4_ddd, symObjAddr: 0x18C88, symBinAddr: 0x10001C788, symSize: 0x118 }
  - { offsetInCU: 0x7DB29, offset: 0x7DB29, size: 0x8, addend: 0x0, symName: __ZNSt3__14pairIPK7RequestdEC1B7v160006IS3_dLPv0EEEOT_OT0_, symObjAddr: 0x18DA0, symBinAddr: 0x10001C8A0, symSize: 0x3C }
  - { offsetInCU: 0x7DB87, offset: 0x7DB87, size: 0x8, addend: 0x0, symName: __ZNKSt3__16vectorINS_4pairIPK7RequestdEENS_9allocatorIS5_EEE5emptyB7v160006Ev, symObjAddr: 0x18DDC, symBinAddr: 0x10001C8DC, symSize: 0x28 }
  - { offsetInCU: 0x7DBAD, offset: 0x7DBAD, size: 0x8, addend: 0x0, symName: __ZNSt3__16vectorINS_4pairIPK7RequestdEENS_9allocatorIS5_EEE5beginB7v160006Ev, symObjAddr: 0x18E44, symBinAddr: 0x10001C944, symSize: 0x30 }
  - { offsetInCU: 0x7DBD5, offset: 0x7DBD5, size: 0x8, addend: 0x0, symName: __ZNSt3__16vectorINS_4pairIPK7RequestdEENS_9allocatorIS5_EEE3endB7v160006Ev, symObjAddr: 0x18E74, symBinAddr: 0x10001C974, symSize: 0x30 }
  - { offsetInCU: 0x7DBFD, offset: 0x7DBFD, size: 0x8, addend: 0x0, symName: __ZNKSt3__16vectorINS_4pairIPK7RequestdEENS_9allocatorIS5_EEE4sizeB7v160006Ev, symObjAddr: 0x18ED0, symBinAddr: 0x10001C9D0, symSize: 0x28 }
  - { offsetInCU: 0x7DC23, offset: 0x7DC23, size: 0x8, addend: 0x0, symName: __ZNSt3__16vectorINS_4pairIPK7RequestdEENS_9allocatorIS5_EEE2atEm, symObjAddr: 0x18F1C, symBinAddr: 0x10001CA1C, symSize: 0x60 }
  - { offsetInCU: 0x7DC5A, offset: 0x7DC5A, size: 0x8, addend: 0x0, symName: __ZNSt3__16vectorINS_4pairIPK7RequestdEENS_9allocatorIS5_EEED1B7v160006Ev, symObjAddr: 0x18F7C, symBinAddr: 0x10001CA7C, symSize: 0x2C }
  - { offsetInCU: 0x7DC84, offset: 0x7DC84, size: 0x8, addend: 0x0, symName: __ZNSt3__16vectorINS_4pairIPK7RequestdEENS_9allocatorIS5_EEEC2B7v160006Ev, symObjAddr: 0x18FA8, symBinAddr: 0x10001CAA8, symSize: 0x58 }
  - { offsetInCU: 0x7DCAE, offset: 0x7DCAE, size: 0x8, addend: 0x0, symName: __ZNSt3__117__compressed_pairIPNS_4pairIPK7RequestdEENS_9allocatorIS5_EEEC1B7v160006IDnNS_18__default_init_tagEEEOT_OT0_, symObjAddr: 0x19000, symBinAddr: 0x10001CB00, symSize: 0x3C }
  - { offsetInCU: 0x7DD06, offset: 0x7DD06, size: 0x8, addend: 0x0, symName: __ZNSt3__117__compressed_pairIPNS_4pairIPK7RequestdEENS_9allocatorIS5_EEEC2B7v160006IDnNS_18__default_init_tagEEEOT_OT0_, symObjAddr: 0x1904C, symBinAddr: 0x10001CB4C, symSize: 0x40 }
  - { offsetInCU: 0x7DD5E, offset: 0x7DD5E, size: 0x8, addend: 0x0, symName: __ZNSt3__122__compressed_pair_elemIPNS_4pairIPK7RequestdEELi0ELb0EEC2B7v160006IDnvEEOT_, symObjAddr: 0x1908C, symBinAddr: 0x10001CB8C, symSize: 0x1C }
  - { offsetInCU: 0x7DDA0, offset: 0x7DDA0, size: 0x8, addend: 0x0, symName: __ZNSt3__122__compressed_pair_elemINS_9allocatorINS_4pairIPK7RequestdEEEELi1ELb1EEC2B7v160006ENS_18__default_init_tagE, symObjAddr: 0x190A8, symBinAddr: 0x10001CBA8, symSize: 0x2C }
  - { offsetInCU: 0x7DDD5, offset: 0x7DDD5, size: 0x8, addend: 0x0, symName: __ZNSt3__19allocatorINS_4pairIPK7RequestdEEEC2B7v160006Ev, symObjAddr: 0x190D4, symBinAddr: 0x10001CBD4, symSize: 0x2C }
  - { offsetInCU: 0x7DDFF, offset: 0x7DDFF, size: 0x8, addend: 0x0, symName: __ZNSt3__116__non_trivial_ifILb1ENS_9allocatorINS_4pairIPK7RequestdEEEEEC2B7v160006Ev, symObjAddr: 0x19100, symBinAddr: 0x10001CC00, symSize: 0x14 }
  - { offsetInCU: 0x7DE29, offset: 0x7DE29, size: 0x8, addend: 0x0, symName: __ZNKSt3__16vectorINS_4pairIPK7RequestdEENS_9allocatorIS5_EEE8capacityB7v160006Ev, symObjAddr: 0x19114, symBinAddr: 0x10001CC14, symSize: 0x40 }
  - { offsetInCU: 0x7DE4F, offset: 0x7DE4F, size: 0x8, addend: 0x0, symName: __ZNKSt3__16vectorINS_4pairIPK7RequestdEENS_9allocatorIS5_EEE8max_sizeEv, symObjAddr: 0x19154, symBinAddr: 0x10001CC54, symSize: 0x60 }
  - { offsetInCU: 0x7DE77, offset: 0x7DE77, size: 0x8, addend: 0x0, symName: __ZNKSt3__16vectorINS_4pairIPK7RequestdEENS_9allocatorIS5_EEE20__throw_length_errorB7v160006Ev, symObjAddr: 0x191B4, symBinAddr: 0x10001CCB4, symSize: 0x1C }
  - { offsetInCU: 0x7DE9D, offset: 0x7DE9D, size: 0x8, addend: 0x0, symName: __ZNSt3__16vectorINS_4pairIPK7RequestdEENS_9allocatorIS5_EEE7__allocB7v160006Ev, symObjAddr: 0x191D0, symBinAddr: 0x10001CCD0, symSize: 0x28 }
  - { offsetInCU: 0x7DEC3, offset: 0x7DEC3, size: 0x8, addend: 0x0, symName: __ZNSt3__114__split_bufferINS_4pairIPK7RequestdEERNS_9allocatorIS5_EEEC1EmmS8_, symObjAddr: 0x191F8, symBinAddr: 0x10001CCF8, symSize: 0x44 }
  - { offsetInCU: 0x7DF19, offset: 0x7DF19, size: 0x8, addend: 0x0, symName: __ZNSt3__114__split_bufferINS_4pairIPK7RequestdEERNS_9allocatorIS5_EEED1Ev, symObjAddr: 0x19354, symBinAddr: 0x10001CE54, symSize: 0x2C }
  - { offsetInCU: 0x7DF45, offset: 0x7DF45, size: 0x8, addend: 0x0, symName: __ZNKSt3__16vectorINS_4pairIPK7RequestdEENS_9allocatorIS5_EEE9__end_capB7v160006Ev, symObjAddr: 0x19380, symBinAddr: 0x10001CE80, symSize: 0x28 }
  - { offsetInCU: 0x7DF6B, offset: 0x7DF6B, size: 0x8, addend: 0x0, symName: __ZNKSt3__117__compressed_pairIPNS_4pairIPK7RequestdEENS_9allocatorIS5_EEE5firstB7v160006Ev, symObjAddr: 0x193A8, symBinAddr: 0x10001CEA8, symSize: 0x24 }
  - { offsetInCU: 0x7DF91, offset: 0x7DF91, size: 0x8, addend: 0x0, symName: __ZNKSt3__122__compressed_pair_elemIPNS_4pairIPK7RequestdEELi0ELb0EE5__getB7v160006Ev, symObjAddr: 0x193CC, symBinAddr: 0x10001CECC, symSize: 0x14 }
  - { offsetInCU: 0x7DFC2, offset: 0x7DFC2, size: 0x8, addend: 0x0, symName: __ZNSt3__116allocator_traitsINS_9allocatorINS_4pairIPK7RequestdEEEEE8max_sizeB7v160006IS7_vEEmRKS7_, symObjAddr: 0x193E0, symBinAddr: 0x10001CEE0, symSize: 0x24 }
  - { offsetInCU: 0x7DFF0, offset: 0x7DFF0, size: 0x8, addend: 0x0, symName: __ZNKSt3__16vectorINS_4pairIPK7RequestdEENS_9allocatorIS5_EEE7__allocB7v160006Ev, symObjAddr: 0x19404, symBinAddr: 0x10001CF04, symSize: 0x28 }
  - { offsetInCU: 0x7E016, offset: 0x7E016, size: 0x8, addend: 0x0, symName: __ZNKSt3__19allocatorINS_4pairIPK7RequestdEEE8max_sizeB7v160006Ev, symObjAddr: 0x1942C, symBinAddr: 0x10001CF2C, symSize: 0x14 }
  - { offsetInCU: 0x7E03C, offset: 0x7E03C, size: 0x8, addend: 0x0, symName: __ZNKSt3__117__compressed_pairIPNS_4pairIPK7RequestdEENS_9allocatorIS5_EEE6secondB7v160006Ev, symObjAddr: 0x19440, symBinAddr: 0x10001CF40, symSize: 0x24 }
  - { offsetInCU: 0x7E062, offset: 0x7E062, size: 0x8, addend: 0x0, symName: __ZNKSt3__122__compressed_pair_elemINS_9allocatorINS_4pairIPK7RequestdEEEELi1ELb1EE5__getB7v160006Ev, symObjAddr: 0x19464, symBinAddr: 0x10001CF64, symSize: 0x14 }
  - { offsetInCU: 0x7E088, offset: 0x7E088, size: 0x8, addend: 0x0, symName: __ZNSt3__117__compressed_pairIPNS_4pairIPK7RequestdEENS_9allocatorIS5_EEE6secondB7v160006Ev, symObjAddr: 0x19478, symBinAddr: 0x10001CF78, symSize: 0x24 }
  - { offsetInCU: 0x7E0AE, offset: 0x7E0AE, size: 0x8, addend: 0x0, symName: __ZNSt3__122__compressed_pair_elemINS_9allocatorINS_4pairIPK7RequestdEEEELi1ELb1EE5__getB7v160006Ev, symObjAddr: 0x1949C, symBinAddr: 0x10001CF9C, symSize: 0x14 }
  - { offsetInCU: 0x7E0D4, offset: 0x7E0D4, size: 0x8, addend: 0x0, symName: __ZNSt3__114__split_bufferINS_4pairIPK7RequestdEERNS_9allocatorIS5_EEEC2EmmS8_, symObjAddr: 0x194B0, symBinAddr: 0x10001CFB0, symSize: 0xD4 }
  - { offsetInCU: 0x7E147, offset: 0x7E147, size: 0x8, addend: 0x0, symName: __ZNSt3__117__compressed_pairIPNS_4pairIPK7RequestdEERNS_9allocatorIS5_EEEC1B7v160006IDnS9_EEOT_OT0_, symObjAddr: 0x19584, symBinAddr: 0x10001D084, symSize: 0x3C }
  - { offsetInCU: 0x7E19F, offset: 0x7E19F, size: 0x8, addend: 0x0, symName: __ZNSt3__114__split_bufferINS_4pairIPK7RequestdEERNS_9allocatorIS5_EEE7__allocB7v160006Ev, symObjAddr: 0x19600, symBinAddr: 0x10001D100, symSize: 0x28 }
  - { offsetInCU: 0x7E1C5, offset: 0x7E1C5, size: 0x8, addend: 0x0, symName: __ZNSt3__114__split_bufferINS_4pairIPK7RequestdEERNS_9allocatorIS5_EEE9__end_capB7v160006Ev, symObjAddr: 0x19628, symBinAddr: 0x10001D128, symSize: 0x28 }
  - { offsetInCU: 0x7E1EB, offset: 0x7E1EB, size: 0x8, addend: 0x0, symName: __ZNSt3__117__compressed_pairIPNS_4pairIPK7RequestdEERNS_9allocatorIS5_EEEC2B7v160006IDnS9_EEOT_OT0_, symObjAddr: 0x19650, symBinAddr: 0x10001D150, symSize: 0x48 }
  - { offsetInCU: 0x7E243, offset: 0x7E243, size: 0x8, addend: 0x0, symName: __ZNSt3__122__compressed_pair_elemIRNS_9allocatorINS_4pairIPK7RequestdEEEELi1ELb0EEC2B7v160006IS8_vEEOT_, symObjAddr: 0x19698, symBinAddr: 0x10001D198, symSize: 0x20 }
  - { offsetInCU: 0x7E285, offset: 0x7E285, size: 0x8, addend: 0x0, symName: __ZNSt3__19allocatorINS_4pairIPK7RequestdEEE8allocateB7v160006Em, symObjAddr: 0x196B8, symBinAddr: 0x10001D1B8, symSize: 0x58 }
  - { offsetInCU: 0x7E2B9, offset: 0x7E2B9, size: 0x8, addend: 0x0, symName: __ZNSt3__117__compressed_pairIPNS_4pairIPK7RequestdEERNS_9allocatorIS5_EEE6secondB7v160006Ev, symObjAddr: 0x19710, symBinAddr: 0x10001D210, symSize: 0x28 }
  - { offsetInCU: 0x7E2DF, offset: 0x7E2DF, size: 0x8, addend: 0x0, symName: __ZNSt3__122__compressed_pair_elemIRNS_9allocatorINS_4pairIPK7RequestdEEEELi1ELb0EE5__getB7v160006Ev, symObjAddr: 0x19738, symBinAddr: 0x10001D238, symSize: 0x18 }
  - { offsetInCU: 0x7E305, offset: 0x7E305, size: 0x8, addend: 0x0, symName: __ZNSt3__117__compressed_pairIPNS_4pairIPK7RequestdEERNS_9allocatorIS5_EEE5firstB7v160006Ev, symObjAddr: 0x19750, symBinAddr: 0x10001D250, symSize: 0x24 }
  - { offsetInCU: 0x7E32B, offset: 0x7E32B, size: 0x8, addend: 0x0, symName: __ZNSt3__122__compressed_pair_elemIPNS_4pairIPK7RequestdEELi0ELb0EE5__getB7v160006Ev, symObjAddr: 0x19774, symBinAddr: 0x10001D274, symSize: 0x14 }
  - { offsetInCU: 0x7E351, offset: 0x7E351, size: 0x8, addend: 0x0, symName: __ZNKSt3__16vectorINS_4pairIPK7RequestdEENS_9allocatorIS5_EEE17__annotate_deleteB7v160006Ev, symObjAddr: 0x19788, symBinAddr: 0x10001D288, symSize: 0xB8 }
  - { offsetInCU: 0x7E377, offset: 0x7E377, size: 0x8, addend: 0x0, symName: __ZNSt3__116reverse_iteratorIPNS_4pairIPK7RequestdEEEC1B7v160006ES6_, symObjAddr: 0x1996C, symBinAddr: 0x10001D46C, symSize: 0x34 }
  - { offsetInCU: 0x7E3AF, offset: 0x7E3AF, size: 0x8, addend: 0x0, symName: __ZNKSt3__116reverse_iteratorIPNS_4pairIPK7RequestdEEE4baseB7v160006Ev, symObjAddr: 0x199A0, symBinAddr: 0x10001D4A0, symSize: 0x18 }
  - { offsetInCU: 0x7E3D5, offset: 0x7E3D5, size: 0x8, addend: 0x0, symName: __ZNSt3__16vectorINS_4pairIPK7RequestdEENS_9allocatorIS5_EEE9__end_capB7v160006Ev, symObjAddr: 0x199F4, symBinAddr: 0x10001D4F4, symSize: 0x28 }
  - { offsetInCU: 0x7E3FB, offset: 0x7E3FB, size: 0x8, addend: 0x0, symName: __ZNKSt3__16vectorINS_4pairIPK7RequestdEENS_9allocatorIS5_EEE14__annotate_newB7v160006Em, symObjAddr: 0x19A1C, symBinAddr: 0x10001D51C, symSize: 0xAC }
  - { offsetInCU: 0x7E430, offset: 0x7E430, size: 0x8, addend: 0x0, symName: __ZNKSt3__16vectorINS_4pairIPK7RequestdEENS_9allocatorIS5_EEE31__annotate_contiguous_containerB7v160006EPKvSA_SA_SA_, symObjAddr: 0x19AD8, symBinAddr: 0x10001D5D8, symSize: 0x20 }
  - { offsetInCU: 0x7E486, offset: 0x7E486, size: 0x8, addend: 0x0, symName: __ZNKSt3__16vectorINS_4pairIPK7RequestdEENS_9allocatorIS5_EEE4dataB7v160006Ev, symObjAddr: 0x19AF8, symBinAddr: 0x10001D5F8, symSize: 0x28 }
  - { offsetInCU: 0x7E4AC, offset: 0x7E4AC, size: 0x8, addend: 0x0, symName: __ZNSt3__129_AllocatorDestroyRangeReverseINS_9allocatorINS_4pairIPK7RequestdEEEENS_16reverse_iteratorIPS6_EEEC1B7v160006ERS7_RSA_SD_, symObjAddr: 0x19B80, symBinAddr: 0x10001D680, symSize: 0x44 }
  - { offsetInCU: 0x7E503, offset: 0x7E503, size: 0x8, addend: 0x0, symName: __ZNSt3__116allocator_traitsINS_9allocatorINS_4pairIPK7RequestdEEEEE9constructB7v160006IS6_JS6_EvEEvRS7_PT_DpOT0_, symObjAddr: 0x19C0C, symBinAddr: 0x10001D70C, symSize: 0x34 }
  - { offsetInCU: 0x7E55A, offset: 0x7E55A, size: 0x8, addend: 0x0, symName: __ZNKSt3__116reverse_iteratorIPNS_4pairIPK7RequestdEEEdeB7v160006Ev, symObjAddr: 0x19C64, symBinAddr: 0x10001D764, symSize: 0x28 }
  - { offsetInCU: 0x7E58E, offset: 0x7E58E, size: 0x8, addend: 0x0, symName: __ZNSt3__116reverse_iteratorIPNS_4pairIPK7RequestdEEEppB7v160006Ev, symObjAddr: 0x19C8C, symBinAddr: 0x10001D78C, symSize: 0x20 }
  - { offsetInCU: 0x7E5B4, offset: 0x7E5B4, size: 0x8, addend: 0x0, symName: __ZNSt3__128__exception_guard_exceptionsINS_29_AllocatorDestroyRangeReverseINS_9allocatorINS_4pairIPK7RequestdEEEENS_16reverse_iteratorIPS7_EEEEE10__completeB7v160006Ev, symObjAddr: 0x19CAC, symBinAddr: 0x10001D7AC, symSize: 0x1C }
  - { offsetInCU: 0x7E5DA, offset: 0x7E5DA, size: 0x8, addend: 0x0, symName: __ZNSt3__128__exception_guard_exceptionsINS_29_AllocatorDestroyRangeReverseINS_9allocatorINS_4pairIPK7RequestdEEEENS_16reverse_iteratorIPS7_EEEEED1B7v160006Ev, symObjAddr: 0x19CC8, symBinAddr: 0x10001D7C8, symSize: 0x2C }
  - { offsetInCU: 0x7E604, offset: 0x7E604, size: 0x8, addend: 0x0, symName: __ZNSt3__128__exception_guard_exceptionsINS_29_AllocatorDestroyRangeReverseINS_9allocatorINS_4pairIPK7RequestdEEEENS_16reverse_iteratorIPS7_EEEEEC1B7v160006ESC_, symObjAddr: 0x19CF4, symBinAddr: 0x10001D7F4, symSize: 0x34 }
  - { offsetInCU: 0x7E63D, offset: 0x7E63D, size: 0x8, addend: 0x0, symName: __ZNSt3__128__exception_guard_exceptionsINS_29_AllocatorDestroyRangeReverseINS_9allocatorINS_4pairIPK7RequestdEEEENS_16reverse_iteratorIPS7_EEEEEC2B7v160006ESC_, symObjAddr: 0x19D28, symBinAddr: 0x10001D828, symSize: 0x30 }
  - { offsetInCU: 0x7E676, offset: 0x7E676, size: 0x8, addend: 0x0, symName: __ZNSt3__129_AllocatorDestroyRangeReverseINS_9allocatorINS_4pairIPK7RequestdEEEENS_16reverse_iteratorIPS6_EEEC2B7v160006ERS7_RSA_SD_, symObjAddr: 0x19D58, symBinAddr: 0x10001D858, symSize: 0x38 }
  - { offsetInCU: 0x7E6CD, offset: 0x7E6CD, size: 0x8, addend: 0x0, symName: __ZNSt3__19allocatorINS_4pairIPK7RequestdEEE9constructB7v160006IS5_JS5_EEEvPT_DpOT0_, symObjAddr: 0x19D90, symBinAddr: 0x10001D890, symSize: 0x28 }
  - { offsetInCU: 0x7E729, offset: 0x7E729, size: 0x8, addend: 0x0, symName: __ZNSt3__119__to_address_helperINS_16reverse_iteratorIPNS_4pairIPK7RequestdEEEEvE6__callB7v160006ERKS8_, symObjAddr: 0x19DB8, symBinAddr: 0x10001D8B8, symSize: 0x38 }
  - { offsetInCU: 0x7E74C, offset: 0x7E74C, size: 0x8, addend: 0x0, symName: __ZNKSt3__116reverse_iteratorIPNS_4pairIPK7RequestdEEEptB7v160006Ev, symObjAddr: 0x19DF0, symBinAddr: 0x10001D8F0, symSize: 0x24 }
